(lp1
((lp2
ccopy_reg
_reconstructor
p3
(ckernel1
node
p4
c__builtin__
object
p5
NtRp6
(dp7
S'Text'
p8
V JOHN SMITH IS A SCIENTIST AT HARVARD .
p9
sS'Type'
p10
VROOT
p11
sS'Parent'
p12
NsS'Orig'
p13
Nsbag3
(g4
g5
NtRp14
(dp15
g8
V JOHN SMITH IS A SCIENTIST AT HARVARD .
p16
sg10
VS
sg12
I0
sg13
Nsbag3
(g4
g5
NtRp17
(dp18
g8
VJOHN
p19
sg10
VNP
p20
sg12
I1
sg13
Nsbag3
(g4
g5
NtRp21
(dp22
g8
g19
sg10
VNNP
p23
sg12
I2
sg13
Nsbag3
(g4
g5
NtRp24
(dp25
g8
S'SMITH'
p26
sg10
VNNP
p27
sg12
I2
sg13
VSMITH
p28
sbag3
(g4
g5
NtRp29
(dp30
g8
S'BE'
p31
sg10
VVP
p32
sg12
I1
sg13
Nsbag3
(g4
g5
NtRp33
(dp34
g8
g31
sg10
VVBZ
p35
sg12
I5
sg13
VIS
p36
sbag3
(g4
g5
NtRp37
(dp38
g8
S'SCIENTIST'
p39
sg10
VNP
p40
sg12
I5
sg13
Nsbag3
(g4
g5
NtRp41
(dp42
g8
g39
sg10
VNP
p43
sg12
I7
sg13
Nsbag3
(g4
g5
NtRp44
(dp45
g8
S'A'
sg10
VDT
p46
sg12
I8
sg13
VA
sbag3
(g4
g5
NtRp47
(dp48
g8
g39
sg10
VNN
p49
sg12
I8
sg13
VSCIENTIST
p50
sbag3
(g4
g5
NtRp51
(dp52
g8
S'AT'
p53
sg10
VPP
p54
sg12
I7
sg13
Nsbag3
(g4
g5
NtRp55
(dp56
g8
g53
sg10
VIN
p57
sg12
I11
sg13
VAT
p58
sbag3
(g4
g5
NtRp59
(dp60
g8
S'HARVARD'
p61
sg10
VNP
p62
sg12
I11
sg13
VHARVARD
p63
sbag3
(g4
g5
NtRp64
(dp65
g8
g61
sg10
VNNP
p66
sg12
I13
sg13
VHARVARD
p67
sbag3
(g4
g5
NtRp68
(dp69
g8
S'.'
sg10
V.
sg12
I1
sg13
V.
sba(lp70
(lp71
I1
aa(lp72
I2
aI5
aI15
aa(lp73
I3
aI4
aa(lp74
a(lp75
a(lp76
I6
aI7
aa(lp77
a(lp78
I8
aI11
aa(lp79
I9
aI10
aa(lp80
a(lp81
a(lp82
I12
aI13
aa(lp83
a(lp84
I14
aa(lp85
a(lp86
a(lp87
NaNaS'MEMBER'
p88
aNaNaNaNaNaNaNaNaNaNaS'ORG'
p89
aNaNaI1
tp90
a(g2
g70
(lp91
NaNaNaNaNaNaNag88
aNaNaNaNaNag89
aNaNaI7
tp92
a(g2
g70
(lp93
NaNaNaNaNaNaNaNag88
aNaNaNaNag89
aNaNaI7
tp94
a.