(lp1
((lp2
ccopy_reg
_reconstructor
p3
(ckernel1
node
p4
c__builtin__
object
p5
NtRp6
(dp7
S'Text'
p8
V MEANWHILE , HIS ELDER BROTHER , SIR WILLIAM KIRBY LAING , STUDIED ENGINEERING AT CAMBRIDGE UNIVERSITY .
p9
sS'Type'
p10
VROOT
p11
sS'Parent'
p12
NsS'Orig'
p13
Nsbag3
(g4
g5
NtRp14
(dp15
g8
V MEANWHILE , HIS ELDER BROTHER , SIR WILLIAM KIRBY LAING , STUDIED ENGINEERING AT CAMBRIDGE UNIVERSITY .
p16
sg10
VS
sg12
I0
sg13
Nsbag3
(g4
g5
NtRp17
(dp18
g8
VMEANWHILE
p19
sg10
VADVP
p20
sg12
I1
sg13
Nsbag3
(g4
g5
NtRp21
(dp22
g8
g19
sg10
VRB
p23
sg12
I2
sg13
Nsbag3
(g4
g5
NtRp24
(dp25
g8
S','
sg10
V,
sg12
I1
sg13
V,
sbag3
(g4
g5
NtRp26
(dp27
g8
S'BROTHER'
p28
sg10
VNP
p29
sg12
I1
sg13
Nsbag3
(g4
g5
NtRp30
(dp31
g8
g28
sg10
VNP
p32
sg12
I5
sg13
Nsbag3
(g4
g5
NtRp33
(dp34
g8
S'HE'
p35
sg10
VPRP$
p36
sg12
I6
sg13
VHIS
p37
sbag3
(g4
g5
NtRp38
(dp39
g8
S'ELDER'
p40
sg10
VJJR
p41
sg12
I6
sg13
VELDER
p42
sbag3
(g4
g5
NtRp43
(dp44
g8
g28
sg10
VNN
p45
sg12
I6
sg13
VBROTHER
p46
sbag3
(g4
g5
NtRp47
(dp48
g8
S','
sg10
V,
sg12
I5
sg13
V,
sbag3
(g4
g5
NtRp49
(dp50
g8
S'SIR'
p51
sg10
VNP
p52
sg12
I5
sg13
Nsbag3
(g4
g5
NtRp53
(dp54
g8
g51
sg10
VNNP
p55
sg12
I11
sg13
VSIR
p56
sbag3
(g4
g5
NtRp57
(dp58
g8
S'WILLIAM'
p59
sg10
VNNP
p60
sg12
I11
sg13
VWILLIAM
p61
sbag3
(g4
g5
NtRp62
(dp63
g8
S'KIRBY'
p64
sg10
VNNP
p65
sg12
I11
sg13
VKIRBY
p66
sbag3
(g4
g5
NtRp67
(dp68
g8
S'LAING'
p69
sg10
VNNP
p70
sg12
I11
sg13
VLAING
p71
sbag3
(g4
g5
NtRp72
(dp73
g8
S','
sg10
V,
sg12
I5
sg13
V,
sbag3
(g4
g5
NtRp74
(dp75
g8
S'STUDY'
p76
sg10
VVP
p77
sg12
I1
sg13
Nsbag3
(g4
g5
NtRp78
(dp79
g8
g76
sg10
VVBN
p80
sg12
I17
sg13
VSTUDIED
p81
sbag3
(g4
g5
NtRp82
(dp83
g8
S'ENGINEERING'
p84
sg10
VNP
p85
sg12
I17
sg13
VENGINEERING
p86
sbag3
(g4
g5
NtRp87
(dp88
g8
g84
sg10
VNN
p89
sg12
I19
sg13
VENGINEERING
p90
sbag3
(g4
g5
NtRp91
(dp92
g8
S'AT'
p93
sg10
VPP
p94
sg12
I17
sg13
Nsbag3
(g4
g5
NtRp95
(dp96
g8
g93
sg10
VIN
p97
sg12
I21
sg13
VAT
p98
sbag3
(g4
g5
NtRp99
(dp100
g8
S'CAMBRIDGE'
p101
sg10
VNP
p102
sg12
I21
sg13
Nsbag3
(g4
g5
NtRp103
(dp104
g8
g101
sg10
VNNP
p105
sg12
I23
sg13
VCAMBRIDGE
p106
sbag3
(g4
g5
NtRp107
(dp108
g8
S'UNIVERSITY'
p109
sg10
VNNP
p110
sg12
I23
sg13
VUNIVERSITY
p111
sbag3
(g4
g5
NtRp112
(dp113
g8
S'.'
sg10
V.
sg12
I1
sg13
V.
sba(lp114
(lp115
I1
aa(lp116
I2
aI4
aI5
aI17
aI26
aa(lp117
I3
aa(lp118
a(lp119
a(lp120
I6
aI10
aI11
aI16
aa(lp121
I7
aI8
aI9
aa(lp122
a(lp123
a(lp124
a(lp125
a(lp126
I12
aI13
aI14
aI15
aa(lp127
a(lp128
a(lp129
a(lp130
a(lp131
a(lp132
I18
aI19
aI21
aa(lp133
a(lp134
I20
aa(lp135
a(lp136
I22
aI23
aa(lp137
a(lp138
I24
aI25
aa(lp139
a(lp140
a(lp141
a(lp142
NaNaNaNaNaS'MEMBER'
p143
aNaNaNaNaNaNaNaNaNaNaNaNaNaNaNaNaNaNaS'ORG'
p144
aNaNaI1
tp145
a(g2
g114
(lp146
NaNaNaNaNaNag143
aNaNaNaNaNaNaNaNaNaNaNaNaNaNaNaNaNag144
aNaNaI1
tp147
a(g2
g114
(lp148
NaNaNaNaNaNaNaNaNag143
aNaNaNaNaNaNaNaNaNaNaNaNaNaNag144
aNaNaI1
tp149
a(g2
g114
(lp150
NaNaNaNaNaNaNaNaNaNaNag143
aNaNaNaNaNaNaNaNaNaNaNaNag144
aNaNaI1
tp151
a(g2
g114
(lp152
NaNaNaNaNaNaNaNaNaNaNaNaNaNaNaNaNaNaNag143
aNaNaNaNag144
aNaNaI17
tp153
a(g2
g114
(lp154
NaNaNaNaNaNaNaNaNaNaNaNaNaNaNaNaNaNaNaNag143
aNaNaNag144
aNaNaI17
tp155
a((lp156
g3
(g4
g5
NtRp157
(dp158
g8
V PIERRE RUSSELL ATTENDED WYANDOTTE HIGH SCHOOL .
p159
sg10
VROOT
p160
sg12
Nsg13
Nsbag3
(g4
g5
NtRp161
(dp162
g8
V PIERRE RUSSELL ATTENDED WYANDOTTE HIGH SCHOOL .
p163
sg10
VS
sg12
I0
sg13
Nsbag3
(g4
g5
NtRp164
(dp165
g8
VPIERRE
p166
sg10
VNP
p167
sg12
I1
sg13
Nsbag3
(g4
g5
NtRp168
(dp169
g8
g166
sg10
VNNP
p170
sg12
I2
sg13
Nsbag3
(g4
g5
NtRp171
(dp172
g8
S'RUSSELL'
p173
sg10
VNNP
p174
sg12
I2
sg13
VRUSSELL
p175
sbag3
(g4
g5
NtRp176
(dp177
g8
S'ATTEND'
p178
sg10
VVP
p179
sg12
I1
sg13
Nsbag3
(g4
g5
NtRp180
(dp181
g8
g178
sg10
VVBD
p182
sg12
I5
sg13
VATTENDED
p183
sbag3
(g4
g5
NtRp184
(dp185
g8
S'WYANDOTTE'
p186
sg10
VNP
p187
sg12
I5
sg13
Nsbag3
(g4
g5
NtRp188
(dp189
g8
g186
sg10
VNNP
p190
sg12
I7
sg13
VWYANDOTTE
p191
sbag3
(g4
g5
NtRp192
(dp193
g8
S'HIGH'
p194
sg10
VNNP
p195
sg12
I7
sg13
VHIGH
p196
sbag3
(g4
g5
NtRp197
(dp198
g8
S'SCHOOL'
p199
sg10
VNNP
p200
sg12
I7
sg13
VSCHOOL
p201
sbag3
(g4
g5
NtRp202
(dp203
g8
S'.'
sg10
V.
sg12
I1
sg13
V.
sba(lp204
(lp205
I1
aa(lp206
I2
aI5
aI11
aa(lp207
I3
aI4
aa(lp208
a(lp209
a(lp210
I6
aI7
aa(lp211
a(lp212
I8
aI9
aI10
aa(lp213
a(lp214
a(lp215
a(lp216
a(lp217
NaNag143
aNaNaNaNaNag144
aNaNaNaI1
tp218
a((lp219
g3
(g4
g5
NtRp220
(dp221
g8
V WILLIAM LEIGH WAS EDUCATED AT HARROW AND MAGDALEN COLLEGE , CAMBRIDGE .
p222
sg10
VROOT
p223
sg12
Nsg13
Nsbag3
(g4
g5
NtRp224
(dp225
g8
V WILLIAM LEIGH WAS EDUCATED AT HARROW AND MAGDALEN COLLEGE , CAMBRIDGE .
p226
sg10
VS
sg12
I0
sg13
Nsbag3
(g4
g5
NtRp227
(dp228
g8
VWILLIAM
p229
sg10
VNP
p230
sg12
I1
sg13
Nsbag3
(g4
g5
NtRp231
(dp232
g8
g229
sg10
VNNP
p233
sg12
I2
sg13
Nsbag3
(g4
g5
NtRp234
(dp235
g8
S'LEIGH'
p236
sg10
VNNP
p237
sg12
I2
sg13
VLEIGH
p238
sbag3
(g4
g5
NtRp239
(dp240
g8
S'BE'
p241
sg10
VVP
p242
sg12
I1
sg13
Nsbag3
(g4
g5
NtRp243
(dp244
g8
g241
sg10
VVBD
p245
sg12
I5
sg13
VWAS
p246
sbag3
(g4
g5
NtRp247
(dp248
g8
S'EDUCATE'
p249
sg10
VVP
p250
sg12
I5
sg13
Nsbag3
(g4
g5
NtRp251
(dp252
g8
g249
sg10
VVBN
p253
sg12
I7
sg13
VEDUCATED
p254
sbag3
(g4
g5
NtRp255
(dp256
g8
S'AT'
p257
sg10
VPP
p258
sg12
I7
sg13
Nsbag3
(g4
g5
NtRp259
(dp260
g8
g257
sg10
VIN
p261
sg12
I9
sg13
VAT
p262
sbag3
(g4
g5
NtRp263
(dp264
g8
S'HARROW'
p265
sg10
VNP
p266
sg12
I9
sg13
Nsbag3
(g4
g5
NtRp267
(dp268
g8
g265
sg10
VNP
p269
sg12
I11
sg13
Nsbag3
(g4
g5
NtRp270
(dp271
g8
g265
sg10
VNNP
p272
sg12
I12
sg13
VHARROW
p273
sbag3
(g4
g5
NtRp274
(dp275
g8
S'AND'
p276
sg10
VCC
p277
sg12
I12
sg13
VAND
p278
sbag3
(g4
g5
NtRp279
(dp280
g8
S'MAGDALEN'
p281
sg10
VNNP
p282
sg12
I12
sg13
VMAGDALEN
p283
sbag3
(g4
g5
NtRp284
(dp285
g8
S'COLLEGE'
p286
sg10
VNNP
p287
sg12
I12
sg13
VCOLLEGE
p288
sbag3
(g4
g5
NtRp289
(dp290
g8
S','
sg10
V,
sg12
I11
sg13
V,
sbag3
(g4
g5
NtRp291
(dp292
g8
S'CAMBRIDGE'
p293
sg10
VNP
p294
sg12
I11
sg13
VCAMBRIDGE
p295
sbag3
(g4
g5
NtRp296
(dp297
g8
g293
sg10
VNNP
p298
sg12
I18
sg13
VCAMBRIDGE
p299
sbag3
(g4
g5
NtRp300
(dp301
g8
S'.'
sg10
V.
sg12
I1
sg13
V.
sba(lp302
(lp303
I1
aa(lp304
I2
aI5
aI20
aa(lp305
I3
aI4
aa(lp306
a(lp307
a(lp308
I6
aI7
aa(lp309
a(lp310
I8
aI9
aa(lp311
a(lp312
I10
aI11
aa(lp313
a(lp314
I12
aI17
aI18
aa(lp315
I13
aI14
aI15
aI16
aa(lp316
a(lp317
a(lp318
a(lp319
a(lp320
a(lp321
I19
aa(lp322
a(lp323
a(lp324
NaNag143
aNaNaNaNaNaNaNaNaNaNaNaNag144
aNaNaNaNaNaI1
tp325
a(g219
g302
(lp326
NaNaNaNaNaNaNaNaNaNaNag143
aNaNaNag144
aNaNaNaNaNaI11
tp327
a(g219
g302
(lp328
NaNaNaNaNaNaNaNaNaNaNaNaNaNaNag144
aNaNag143
aNaNaI11
tp329
a((lp330
g3
(g4
g5
NtRp331
(dp332
g8
V TIMOTHY WU ATTENDED THE SINGAPORE AMERICAN SCHOOL , AN INTERNATIONAL SCHOOL IN SINGAPORE .
p333
sg10
VROOT
p334
sg12
Nsg13
Nsbag3
(g4
g5
NtRp335
(dp336
g8
V TIMOTHY WU ATTENDED THE SINGAPORE AMERICAN SCHOOL , AN INTERNATIONAL SCHOOL IN SINGAPORE .
p337
sg10
VS
sg12
I0
sg13
Nsbag3
(g4
g5
NtRp338
(dp339
g8
VTIMOTHY
p340
sg10
VNP
p341
sg12
I1
sg13
Nsbag3
(g4
g5
NtRp342
(dp343
g8
g340
sg10
VNNP
p344
sg12
I2
sg13
Nsbag3
(g4
g5
NtRp345
(dp346
g8
S'WU'
p347
sg10
VNNP
p348
sg12
I2
sg13
VWU
p349
sbag3
(g4
g5
NtRp350
(dp351
g8
S'ATTEND'
p352
sg10
VVP
p353
sg12
I1
sg13
Nsbag3
(g4
g5
NtRp354
(dp355
g8
g352
sg10
VVBD
p356
sg12
I5
sg13
VATTENDED
p357
sbag3
(g4
g5
NtRp358
(dp359
g8
S'SINGAPORE'
p360
sg10
VNP
p361
sg12
I5
sg13
Nsbag3
(g4
g5
NtRp362
(dp363
g8
g360
sg10
VNP
p364
sg12
I7
sg13
Nsbag3
(g4
g5
NtRp365
(dp366
g8
S'THE'
p367
sg10
VDT
p368
sg12
I8
sg13
VTHE
p369
sbag3
(g4
g5
NtRp370
(dp371
g8
g360
sg10
VNNP
p372
sg12
I8
sg13
VSINGAPORE
p373
sbag3
(g4
g5
NtRp374
(dp375
g8
S'AMERICAN'
p376
sg10
VNNP
p377
sg12
I8
sg13
VAMERICAN
p378
sbag3
(g4
g5
NtRp379
(dp380
g8
S'SCHOOL'
p381
sg10
VNNP
p382
sg12
I8
sg13
VSCHOOL
p383
sbag3
(g4
g5
NtRp384
(dp385
g8
S','
sg10
V,
sg12
I7
sg13
V,
sbag3
(g4
g5
NtRp386
(dp387
g8
g381
sg10
VNP
p388
sg12
I7
sg13
Nsbag3
(g4
g5
NtRp389
(dp390
g8
g381
sg10
VNP
p391
sg12
I14
sg13
Nsbag3
(g4
g5
NtRp392
(dp393
g8
S'A'
sg10
VDT
p394
sg12
I15
sg13
VAN
p395
sbag3
(g4
g5
NtRp396
(dp397
g8
S'INTERNATIONAL'
p398
sg10
VJJ
p399
sg12
I15
sg13
VINTERNATIONAL
p400
sbag3
(g4
g5
NtRp401
(dp402
g8
g381
sg10
VNN
p403
sg12
I15
sg13
VSCHOOL
p404
sbag3
(g4
g5
NtRp405
(dp406
g8
S'IN'
p407
sg10
VPP
p408
sg12
I14
sg13
Nsbag3
(g4
g5
NtRp409
(dp410
g8
g407
sg10
VIN
p411
sg12
I19
sg13
VIN
p412
sbag3
(g4
g5
NtRp413
(dp414
g8
g360
sg10
VNP
p415
sg12
I19
sg13
VSINGAPORE
p416
sbag3
(g4
g5
NtRp417
(dp418
g8
g360
sg10
VNNP
p419
sg12
I21
sg13
VSINGAPORE
p420
sbag3
(g4
g5
NtRp421
(dp422
g8
S'.'
sg10
V.
sg12
I1
sg13
V.
sba(lp423
(lp424
I1
aa(lp425
I2
aI5
aI23
aa(lp426
I3
aI4
aa(lp427
a(lp428
a(lp429
I6
aI7
aa(lp430
a(lp431
I8
aI13
aI14
aa(lp432
I9
aI10
aI11
aI12
aa(lp433
a(lp434
a(lp435
a(lp436
a(lp437
a(lp438
I15
aI19
aa(lp439
I16
aI17
aI18
aa(lp440
a(lp441
a(lp442
a(lp443
I20
aI21
aa(lp444
a(lp445
I22
aa(lp446
a(lp447
a(lp448
NaNag143
aNaNaNaNaNaNaNaNag144
aNaNaNaNaNaNaNaNaNaNaNaNaI1
tp449
a(g330
g423
(lp450
NaNaNaNaNaNaNag143
aNaNaNag144
aNaNaNaNaNaNaNaNaNaNaNaNaI7
tp451
a(g330
g423
(lp452
NaNaNaNaNaNaNaNaNaNaNag144
aNaNag143
aNaNaNaNaNaNaNaNaNaI7
tp453
a(g330
g423
(lp454
NaNaNaNaNaNaNaNaNaNaNag144
aNaNaNag143
aNaNaNaNaNaNaNaNaI7
tp455
a(g330
g423
(lp456
NaNaNaNaNaNaNaNaNaNaNag144
aNaNaNaNaNaNag143
aNaNaNaNaNaI7
tp457
a(g330
g423
(lp458
NaNaNaNaNaNaNaNaNaNaNag144
aNaNaNaNaNaNaNaNaNag143
aNaNaI7
tp459
a((lp460
g3
(g4
g5
NtRp461
(dp462
g8
V JOHN W. TYSON GRADUATED FROM SOUTHERN METHODIST UNIVERSITY , DALLAS , TX .
p463
sg10
VROOT
p464
sg12
Nsg13
Nsbag3
(g4
g5
NtRp465
(dp466
g8
V JOHN W. TYSON GRADUATED FROM SOUTHERN METHODIST UNIVERSITY , DALLAS , TX .
p467
sg10
VS
sg12
I0
sg13
Nsbag3
(g4
g5
NtRp468
(dp469
g8
VJOHN
p470
sg10
VNP
p471
sg12
I1
sg13
Nsbag3
(g4
g5
NtRp472
(dp473
g8
g470
sg10
VNNP
p474
sg12
I2
sg13
Nsbag3
(g4
g5
NtRp475
(dp476
g8
S'W.'
p477
sg10
VNNP
p478
sg12
I2
sg13
VW.
p479
sbag3
(g4
g5
NtRp480
(dp481
g8
S'TYSON'
p482
sg10
VNNP
p483
sg12
I2
sg13
VTYSON
p484
sbag3
(g4
g5
NtRp485
(dp486
g8
S'GRADUATE'
p487
sg10
VVP
p488
sg12
I1
sg13
Nsbag3
(g4
g5
NtRp489
(dp490
g8
g487
sg10
VVBD
p491
sg12
I6
sg13
VGRADUATED
p492
sbag3
(g4
g5
NtRp493
(dp494
g8
S'FROM'
p495
sg10
VPP
p496
sg12
I6
sg13
Nsbag3
(g4
g5
NtRp497
(dp498
g8
g495
sg10
VIN
p499
sg12
I8
sg13
VFROM
p500
sbag3
(g4
g5
NtRp501
(dp502
g8
S'SOUTHERN'
p503
sg10
VNP
p504
sg12
I8
sg13
Nsbag3
(g4
g5
NtRp505
(dp506
g8
g503
sg10
VNP
p507
sg12
I10
sg13
Nsbag3
(g4
g5
NtRp508
(dp509
g8
g503
sg10
VNNP
p510
sg12
I11
sg13
VSOUTHERN
p511
sbag3
(g4
g5
NtRp512
(dp513
g8
S'METHODIST'
p514
sg10
VNNP
p515
sg12
I11
sg13
VMETHODIST
p516
sbag3
(g4
g5
NtRp517
(dp518
g8
S'UNIVERSITY'
p519
sg10
VNNP
p520
sg12
I11
sg13
VUNIVERSITY
p521
sbag3
(g4
g5
NtRp522
(dp523
g8
S','
sg10
V,
sg12
I10
sg13
V,
sbag3
(g4
g5
NtRp524
(dp525
g8
S'DALLAS'
p526
sg10
VNP
p527
sg12
I10
sg13
Nsbag3
(g4
g5
NtRp528
(dp529
g8
g526
sg10
VNNP
p530
sg12
I16
sg13
VDALLAS
p531
sbag3
(g4
g5
NtRp532
(dp533
g8
S','
sg10
V,
sg12
I16
sg13
V,
sbag3
(g4
g5
NtRp534
(dp535
g8
S'TX'
p536
sg10
VNNP
p537
sg12
I16
sg13
VTX
p538
sbag3
(g4
g5
NtRp539
(dp540
g8
S'.'
sg10
V.
sg12
I1
sg13
V.
sba(lp541
(lp542
I1
aa(lp543
I2
aI6
aI20
aa(lp544
I3
aI4
aI5
aa(lp545
a(lp546
a(lp547
a(lp548
I7
aI8
aa(lp549
a(lp550
I9
aI10
aa(lp551
a(lp552
I11
aI15
aI16
aa(lp553
I12
aI13
aI14
aa(lp554
a(lp555
a(lp556
a(lp557
a(lp558
I17
aI18
aI19
aa(lp559
a(lp560
a(lp561
a(lp562
a(lp563
NaNag143
aNaNaNaNaNaNaNaNaNag144
aNaNaNaNaNaNaNaNaI1
tp564
a(g460
g541
(lp565
NaNaNaNaNaNaNaNaNaNag143
aNag144
aNaNaNaNaNaNaNaNaI10
tp566
a(g460
g541
(lp567
NaNaNaNaNaNaNaNaNaNaNaNag144
aNaNaNag143
aNaNaNaNaI10
tp568
a((lp569
g3
(g4
g5
NtRp570
(dp571
g8
V NEHEMIAH DONNELLAN GRADUATED FROM TRINITY COLLEGE DUBLIN IN 1666 .
p572
sg10
VROOT
p573
sg12
Nsg13
Nsbag3
(g4
g5
NtRp574
(dp575
g8
V NEHEMIAH DONNELLAN GRADUATED FROM TRINITY COLLEGE DUBLIN IN 1666 .
p576
sg10
VS
sg12
I0
sg13
Nsbag3
(g4
g5
NtRp577
(dp578
g8
VNEHEMIAH
p579
sg10
VNP
p580
sg12
I1
sg13
Nsbag3
(g4
g5
NtRp581
(dp582
g8
g579
sg10
VNNP
p583
sg12
I2
sg13
Nsbag3
(g4
g5
NtRp584
(dp585
g8
S'DONNELLAN'
p586
sg10
VNNP
p587
sg12
I2
sg13
VDONNELLAN
p588
sbag3
(g4
g5
NtRp589
(dp590
g8
S'GRADUATE'
p591
sg10
VVP
p592
sg12
I1
sg13
Nsbag3
(g4
g5
NtRp593
(dp594
g8
g591
sg10
VVBD
p595
sg12
I5
sg13
VGRADUATED
p596
sbag3
(g4
g5
NtRp597
(dp598
g8
S'FROM'
p599
sg10
VPP
p600
sg12
I5
sg13
Nsbag3
(g4
g5
NtRp601
(dp602
g8
g599
sg10
VIN
p603
sg12
I7
sg13
VFROM
p604
sbag3
(g4
g5
NtRp605
(dp606
g8
S'TRINITY'
p607
sg10
VNP
p608
sg12
I7
sg13
Nsbag3
(g4
g5
NtRp609
(dp610
g8
g607
sg10
VNP
p611
sg12
I9
sg13
Nsbag3
(g4
g5
NtRp612
(dp613
g8
g607
sg10
VNNP
p614
sg12
I10
sg13
VTRINITY
p615
sbag3
(g4
g5
NtRp616
(dp617
g8
S'COLLEGE'
p618
sg10
VNNP
p619
sg12
I10
sg13
VCOLLEGE
p620
sbag3
(g4
g5
NtRp621
(dp622
g8
S'DUBLIN'
p623
sg10
VNNP
p624
sg12
I10
sg13
VDUBLIN
p625
sbag3
(g4
g5
NtRp626
(dp627
g8
S'IN'
p628
sg10
VPP
p629
sg12
I9
sg13
Nsbag3
(g4
g5
NtRp630
(dp631
g8
g628
sg10
VIN
p632
sg12
I14
sg13
VIN
p633
sbag3
(g4
g5
NtRp634
(dp635
g8
S'1666'
p636
sg10
VNP
p637
sg12
I14
sg13
V1666
p638
sbag3
(g4
g5
NtRp639
(dp640
g8
g636
sg10
VCD
p641
sg12
I16
sg13
V1666
p642
sbag3
(g4
g5
NtRp643
(dp644
g8
S'.'
sg10
V.
sg12
I1
sg13
V.
sba(lp645
(lp646
I1
aa(lp647
I2
aI5
aI18
aa(lp648
I3
aI4
aa(lp649
a(lp650
a(lp651
I6
aI7
aa(lp652
a(lp653
I8
aI9
aa(lp654
a(lp655
I10
aI14
aa(lp656
I11
aI12
aI13
aa(lp657
a(lp658
a(lp659
a(lp660
I15
aI16
aa(lp661
a(lp662
I17
aa(lp663
a(lp664
a(lp665
NaNag143
aNaNaNaNaNaNaNaNag144
aNaNaNaNaNaNaNaI1
tp666
a(g569
g645
(lp667
NaNaNaNaNaNaNaNaNag143
aNag144
aNaNaNaNaNaNaNaI9
tp668
a(g569
g645
(lp669
NaNaNaNaNaNaNaNaNaNaNag144
aNaNaNaNag143
aNaNaI9
tp670
a((lp671
g3
(g4
g5
NtRp672
(dp673
g8
V FROM 1968 TO 1969 , NEAL TAUGHT AT THE CITY COLLEGE OF NEW YORK .
p674
sg10
VROOT
p675
sg12
Nsg13
Nsbag3
(g4
g5
NtRp676
(dp677
g8
V FROM 1968 TO 1969 , NEAL TAUGHT AT THE CITY COLLEGE OF NEW YORK .
p678
sg10
VS
sg12
I0
sg13
Nsbag3
(g4
g5
NtRp679
(dp680
g8
VFROM
p681
sg10
VPP
p682
sg12
I1
sg13
Nsbag3
(g4
g5
NtRp683
(dp684
g8
g681
sg10
VIN
p685
sg12
I2
sg13
Nsbag3
(g4
g5
NtRp686
(dp687
g8
S'1968'
p688
sg10
VNP
p689
sg12
I2
sg13
Nsbag3
(g4
g5
NtRp690
(dp691
g8
g688
sg10
VCD
p692
sg12
I4
sg13
V1968
p693
sbag3
(g4
g5
NtRp694
(dp695
g8
S'TO'
p696
sg10
VTO
p697
sg12
I4
sg13
VTO
p698
sbag3
(g4
g5
NtRp699
(dp700
g8
S'1969'
p701
sg10
VCD
p702
sg12
I4
sg13
V1969
p703
sbag3
(g4
g5
NtRp704
(dp705
g8
S','
sg10
V,
sg12
I1
sg13
V,
sbag3
(g4
g5
NtRp706
(dp707
g8
S'NEAL'
p708
sg10
VNP
p709
sg12
I1
sg13
VNEAL
p710
sbag3
(g4
g5
NtRp711
(dp712
g8
g708
sg10
VNNP
p713
sg12
I9
sg13
VNEAL
p714
sbag3
(g4
g5
NtRp715
(dp716
g8
S'TEACH'
p717
sg10
VVP
p718
sg12
I1
sg13
Nsbag3
(g4
g5
NtRp719
(dp720
g8
g717
sg10
VVBD
p721
sg12
I11
sg13
VTAUGHT
p722
sbag3
(g4
g5
NtRp723
(dp724
g8
S'AT'
p725
sg10
VPP
p726
sg12
I11
sg13
Nsbag3
(g4
g5
NtRp727
(dp728
g8
g725
sg10
VIN
p729
sg12
I13
sg13
VAT
p730
sbag3
(g4
g5
NtRp731
(dp732
g8
S'CITY'
p733
sg10
VNP
p734
sg12
I13
sg13
Nsbag3
(g4
g5
NtRp735
(dp736
g8
g733
sg10
VNP
p737
sg12
I15
sg13
Nsbag3
(g4
g5
NtRp738
(dp739
g8
S'THE'
p740
sg10
VDT
p741
sg12
I16
sg13
VTHE
p742
sbag3
(g4
g5
NtRp743
(dp744
g8
g733
sg10
VNNP
p745
sg12
I16
sg13
VCITY
p746
sbag3
(g4
g5
NtRp747
(dp748
g8
S'COLLEGE'
p749
sg10
VNNP
p750
sg12
I16
sg13
VCOLLEGE
p751
sbag3
(g4
g5
NtRp752
(dp753
g8
S'OF'
p754
sg10
VPP
p755
sg12
I15
sg13
Nsbag3
(g4
g5
NtRp756
(dp757
g8
g754
sg10
VIN
p758
sg12
I20
sg13
VOF
p759
sbag3
(g4
g5
NtRp760
(dp761
g8
S'NEW'
p762
sg10
VNP
p763
sg12
I20
sg13
Nsbag3
(g4
g5
NtRp764
(dp765
g8
g762
sg10
VNNP
p766
sg12
I22
sg13
VNEW
p767
sbag3
(g4
g5
NtRp768
(dp769
g8
S'YORK'
p770
sg10
VNNP
p771
sg12
I22
sg13
VYORK
p772
sbag3
(g4
g5
NtRp773
(dp774
g8
S'.'
sg10
V.
sg12
I1
sg13
V.
sba(lp775
(lp776
I1
aa(lp777
I2
aI8
aI9
aI11
aI25
aa(lp778
I3
aI4
aa(lp779
a(lp780
I5
aI6
aI7
aa(lp781
a(lp782
a(lp783
a(lp784
a(lp785
I10
aa(lp786
a(lp787
I12
aI13
aa(lp788
a(lp789
I14
aI15
aa(lp790
a(lp791
I16
aI20
aa(lp792
I17
aI18
aI19
aa(lp793
a(lp794
a(lp795
a(lp796
I21
aI22
aa(lp797
a(lp798
I23
aI24
aa(lp799
a(lp800
a(lp801
a(lp802
NaNaNaNag143
aNaNaNaNaNaNaNaNaNaNaNaNaNag144
aNaNaNaNaNaNaNaI1
tp803
a(g671
g775
(lp804
NaNaNaNaNaNaNaNaNag143
aNaNaNaNaNaNaNaNag144
aNaNaNaNaNaNaNaI1
tp805
a(g671
g775
(lp806
NaNaNaNaNaNaNaNaNaNaNaNaNaNaNag143
aNaNag144
aNaNaNaNaNaNaNaI15
tp807
a(g671
g775
(lp808
NaNaNaNaNaNaNaNaNaNaNaNaNaNaNaNaNaNag144
aNaNaNag143
aNaNaNaI15
tp809
a((lp810
g3
(g4
g5
NtRp811
(dp812
g8
V COLEMAN BARKS RECEIVED AN HONORARY DOCTORATE FROM TEHRAN UNIVERSITY IN 2006 .
p813
sg10
VROOT
p814
sg12
Nsg13
Nsbag3
(g4
g5
NtRp815
(dp816
g8
V COLEMAN BARKS RECEIVED AN HONORARY DOCTORATE FROM TEHRAN UNIVERSITY IN 2006 .
p817
sg10
VS
sg12
I0
sg13
Nsbag3
(g4
g5
NtRp818
(dp819
g8
VCOLEMAN
p820
sg10
VNP
p821
sg12
I1
sg13
Nsbag3
(g4
g5
NtRp822
(dp823
g8
g820
sg10
VNNP
p824
sg12
I2
sg13
Nsbag3
(g4
g5
NtRp825
(dp826
g8
S'BARKS'
p827
sg10
VNNP
p828
sg12
I2
sg13
VBARKS
p829
sbag3
(g4
g5
NtRp830
(dp831
g8
S'RECEIVE'
p832
sg10
VVP
p833
sg12
I1
sg13
Nsbag3
(g4
g5
NtRp834
(dp835
g8
g832
sg10
VVBD
p836
sg12
I5
sg13
VRECEIVED
p837
sbag3
(g4
g5
NtRp838
(dp839
g8
S'DOCTORATE'
p840
sg10
VNP
p841
sg12
I5
sg13
Nsbag3
(g4
g5
NtRp842
(dp843
g8
S'A'
sg10
VDT
p844
sg12
I7
sg13
VAN
p845
sbag3
(g4
g5
NtRp846
(dp847
g8
S'HONORARY'
p848
sg10
VJJ
p849
sg12
I7
sg13
VHONORARY
p850
sbag3
(g4
g5
NtRp851
(dp852
g8
g840
sg10
VNN
p853
sg12
I7
sg13
VDOCTORATE
p854
sbag3
(g4
g5
NtRp855
(dp856
g8
S'FROM'
p857
sg10
VPP
p858
sg12
I5
sg13
Nsbag3
(g4
g5
NtRp859
(dp860
g8
g857
sg10
VIN
p861
sg12
I11
sg13
VFROM
p862
sbag3
(g4
g5
NtRp863
(dp864
g8
S'TEHRAN'
p865
sg10
VNP
p866
sg12
I11
sg13
Nsbag3
(g4
g5
NtRp867
(dp868
g8
g865
sg10
VNNP
p869
sg12
I13
sg13
VTEHRAN
p870
sbag3
(g4
g5
NtRp871
(dp872
g8
S'UNIVERSITY'
p873
sg10
VNNP
p874
sg12
I13
sg13
VUNIVERSITY
p875
sbag3
(g4
g5
NtRp876
(dp877
g8
S'IN'
p878
sg10
VPP
p879
sg12
I5
sg13
Nsbag3
(g4
g5
NtRp880
(dp881
g8
g878
sg10
VIN
p882
sg12
I16
sg13
VIN
p883
sbag3
(g4
g5
NtRp884
(dp885
g8
S'2006'
p886
sg10
VNP
p887
sg12
I16
sg13
V2006
p888
sbag3
(g4
g5
NtRp889
(dp890
g8
g886
sg10
VCD
p891
sg12
I18
sg13
V2006
p892
sbag3
(g4
g5
NtRp893
(dp894
g8
S'.'
sg10
V.
sg12
I1
sg13
V.
sba(lp895
(lp896
I1
aa(lp897
I2
aI5
aI20
aa(lp898
I3
aI4
aa(lp899
a(lp900
a(lp901
I6
aI7
aI11
aI16
aa(lp902
a(lp903
I8
aI9
aI10
aa(lp904
a(lp905
a(lp906
a(lp907
I12
aI13
aa(lp908
a(lp909
I14
aI15
aa(lp910
a(lp911
a(lp912
I17
aI18
aa(lp913
a(lp914
I19
aa(lp915
a(lp916
a(lp917
NaNag143
aNaNaNaNaNaNaNaNaNaNaNag144
aNaNaNaNaNaNaI1
tp918
a(g810
g895
(lp919
NaNaNaNaNaNaNag143
aNaNaNaNaNaNag144
aNaNaNaNaNaNaI5
tp920
a(g810
g895
(lp921
NaNaNaNaNaNaNaNaNaNag143
aNaNaNag144
aNaNaNaNaNaNaI5
tp922
a(g810
g895
(lp923
NaNaNaNaNaNaNaNaNaNaNaNaNaNag144
aNaNaNag143
aNaNaI5
tp924
a((lp925
g3
(g4
g5
NtRp926
(dp927
g8
V BELL ATTENDED MCGILL UNIVERSITY , MONTREAL , AND STUDIED UNDER JOHN WILLIAM DAWSON .
p928
sg10
VROOT
p929
sg12
Nsg13
Nsbag3
(g4
g5
NtRp930
(dp931
g8
V BELL ATTENDED MCGILL UNIVERSITY , MONTREAL , AND STUDIED UNDER JOHN WILLIAM DAWSON .
p932
sg10
VS
sg12
I0
sg13
Nsbag3
(g4
g5
NtRp933
(dp934
g8
VBELL
p935
sg10
VNP
p936
sg12
I1
sg13
Nsbag3
(g4
g5
NtRp937
(dp938
g8
g935
sg10
VNNP
p939
sg12
I2
sg13
Nsbag3
(g4
g5
NtRp940
(dp941
g8
S'ATTEND'
p942
sg10
VVP
p943
sg12
I1
sg13
Nsbag3
(g4
g5
NtRp944
(dp945
g8
g942
sg10
VVP
p946
sg12
I4
sg13
Nsbag3
(g4
g5
NtRp947
(dp948
g8
g942
sg10
VVBD
p949
sg12
I5
sg13
VATTENDED
p950
sbag3
(g4
g5
NtRp951
(dp952
g8
S'MCGILL'
p953
sg10
VNP
p954
sg12
I5
sg13
Nsbag3
(g4
g5
NtRp955
(dp956
g8
g953
sg10
VNP
p957
sg12
I7
sg13
Nsbag3
(g4
g5
NtRp958
(dp959
g8
g953
sg10
VNNP
p960
sg12
I8
sg13
VMCGILL
p961
sbag3
(g4
g5
NtRp962
(dp963
g8
S'UNIVERSITY'
p964
sg10
VNNP
p965
sg12
I8
sg13
VUNIVERSITY
p966
sbag3
(g4
g5
NtRp967
(dp968
g8
S','
sg10
V,
sg12
I7
sg13
V,
sbag3
(g4
g5
NtRp969
(dp970
g8
S'MONTREAL'
p971
sg10
VNP
p972
sg12
I7
sg13
VMONTREAL
p973
sbag3
(g4
g5
NtRp974
(dp975
g8
g971
sg10
VNNP
p976
sg12
I12
sg13
VMONTREAL
p977
sbag3
(g4
g5
NtRp978
(dp979
g8
S','
sg10
V,
sg12
I7
sg13
V,
sbag3
(g4
g5
NtRp980
(dp981
g8
S'AND'
p982
sg10
VCC
p983
sg12
I4
sg13
VAND
p984
sbag3
(g4
g5
NtRp985
(dp986
g8
S'STUDY'
p987
sg10
VVP
p988
sg12
I4
sg13
Nsbag3
(g4
g5
NtRp989
(dp990
g8
g987
sg10
VVBN
p991
sg12
I16
sg13
VSTUDIED
p992
sbag3
(g4
g5
NtRp993
(dp994
g8
S'UNDER'
p995
sg10
VPP
p996
sg12
I16
sg13
Nsbag3
(g4
g5
NtRp997
(dp998
g8
g995
sg10
VIN
p999
sg12
I18
sg13
VUNDER
p1000
sbag3
(g4
g5
NtRp1001
(dp1002
g8
S'JOHN'
p1003
sg10
VNP
p1004
sg12
I18
sg13
Nsbag3
(g4
g5
NtRp1005
(dp1006
g8
g1003
sg10
VNNP
p1007
sg12
I20
sg13
VJOHN
p1008
sbag3
(g4
g5
NtRp1009
(dp1010
g8
S'WILLIAM'
p1011
sg10
VNNP
p1012
sg12
I20
sg13
VWILLIAM
p1013
sbag3
(g4
g5
NtRp1014
(dp1015
g8
S'DAWSON'
p1016
sg10
VNNP
p1017
sg12
I20
sg13
VDAWSON
p1018
sbag3
(g4
g5
NtRp1019
(dp1020
g8
S'.'
sg10
V.
sg12
I1
sg13
V.
sba(lp1021
(lp1022
I1
aa(lp1023
I2
aI4
aI24
aa(lp1024
I3
aa(lp1025
a(lp1026
I5
aI15
aI16
aa(lp1027
I6
aI7
aa(lp1028
a(lp1029
I8
aI11
aI12
aI14
aa(lp1030
I9
aI10
aa(lp1031
a(lp1032
a(lp1033
a(lp1034
I13
aa(lp1035
a(lp1036
a(lp1037
a(lp1038
I17
aI18
aa(lp1039
a(lp1040
I19
aI20
aa(lp1041
a(lp1042
I21
aI22
aI23
aa(lp1043
a(lp1044
a(lp1045
a(lp1046
a(lp1047
NaNag143
aNaNaNaNaNaNag144
aNaNaNaNaNaNaNaNaNaNaNaNaNaNaNaI1
tp1048
a(g925
g1021
(lp1049
NaNaNaNaNaNaNag143
aNag144
aNaNaNaNaNaNaNaNaNaNaNaNaNaNaNaI7
tp1050
a(g925
g1021
(lp1051
NaNaNaNaNaNaNaNaNag144
aNaNag143
aNaNaNaNaNaNaNaNaNaNaNaNaI7
tp1052
a(g925
g1021
(lp1053
NaNaNaNaNaNaNaNaNag144
aNaNaNaNaNaNaNaNaNaNag143
aNaNaNaNaI4
tp1054
a((lp1055
g3
(g4
g5
NtRp1056
(dp1057
g8
V CHIYO OKUMURA GRADUATED FROM AOYAMA GAKUIN UNIVERSITY .
p1058
sg10
VROOT
p1059
sg12
Nsg13
Nsbag3
(g4
g5
NtRp1060
(dp1061
g8
V CHIYO OKUMURA GRADUATED FROM AOYAMA GAKUIN UNIVERSITY .
p1062
sg10
VS
sg12
I0
sg13
Nsbag3
(g4
g5
NtRp1063
(dp1064
g8
VCHIYO
p1065
sg10
VNP
p1066
sg12
I1
sg13
Nsbag3
(g4
g5
NtRp1067
(dp1068
g8
g1065
sg10
VNNP
p1069
sg12
I2
sg13
Nsbag3
(g4
g5
NtRp1070
(dp1071
g8
S'OKUMURA'
p1072
sg10
VNNP
p1073
sg12
I2
sg13
VOKUMURA
p1074
sbag3
(g4
g5
NtRp1075
(dp1076
g8
S'GRADUATE'
p1077
sg10
VVP
p1078
sg12
I1
sg13
Nsbag3
(g4
g5
NtRp1079
(dp1080
g8
g1077
sg10
VVBD
p1081
sg12
I5
sg13
VGRADUATED
p1082
sbag3
(g4
g5
NtRp1083
(dp1084
g8
S'FROM'
p1085
sg10
VPP
p1086
sg12
I5
sg13
Nsbag3
(g4
g5
NtRp1087
(dp1088
g8
g1085
sg10
VIN
p1089
sg12
I7
sg13
VFROM
p1090
sbag3
(g4
g5
NtRp1091
(dp1092
g8
S'AOYAMA'
p1093
sg10
VNP
p1094
sg12
I7
sg13
Nsbag3
(g4
g5
NtRp1095
(dp1096
g8
g1093
sg10
VNNP
p1097
sg12
I9
sg13
VAOYAMA
p1098
sbag3
(g4
g5
NtRp1099
(dp1100
g8
S'GAKUIN'
p1101
sg10
VNNP
p1102
sg12
I9
sg13
VGAKUIN
p1103
sbag3
(g4
g5
NtRp1104
(dp1105
g8
S'UNIVERSITY'
p1106
sg10
VNNP
p1107
sg12
I9
sg13
VUNIVERSITY
p1108
sbag3
(g4
g5
NtRp1109
(dp1110
g8
S'.'
sg10
V.
sg12
I1
sg13
V.
sba(lp1111
(lp1112
I1
aa(lp1113
I2
aI5
aI13
aa(lp1114
I3
aI4
aa(lp1115
a(lp1116
a(lp1117
I6
aI7
aa(lp1118
a(lp1119
I8
aI9
aa(lp1120
a(lp1121
I10
aI11
aI12
aa(lp1122
a(lp1123
a(lp1124
a(lp1125
a(lp1126
NaNag143
aNaNaNaNaNaNaNag144
aNaNaNaI1
tp1127
a((lp1128
g3
(g4
g5
NtRp1129
(dp1130
g8
V WILLIAM THOMAS GRADUATED FROM CHARLOTTE HALL MILITARY ACADEMY IN 1804 .
p1131
sg10
VROOT
p1132
sg12
Nsg13
Nsbag3
(g4
g5
NtRp1133
(dp1134
g8
V WILLIAM THOMAS GRADUATED FROM CHARLOTTE HALL MILITARY ACADEMY IN 1804 .
p1135
sg10
VS
sg12
I0
sg13
Nsbag3
(g4
g5
NtRp1136
(dp1137
g8
VWILLIAM
p1138
sg10
VNP
p1139
sg12
I1
sg13
Nsbag3
(g4
g5
NtRp1140
(dp1141
g8
g1138
sg10
VNNP
p1142
sg12
I2
sg13
Nsbag3
(g4
g5
NtRp1143
(dp1144
g8
S'THOMAS'
p1145
sg10
VNNP
p1146
sg12
I2
sg13
VTHOMAS
p1147
sbag3
(g4
g5
NtRp1148
(dp1149
g8
S'GRADUATE'
p1150
sg10
VVP
p1151
sg12
I1
sg13
Nsbag3
(g4
g5
NtRp1152
(dp1153
g8
g1150
sg10
VVBD
p1154
sg12
I5
sg13
VGRADUATED
p1155
sbag3
(g4
g5
NtRp1156
(dp1157
g8
S'FROM'
p1158
sg10
VPP
p1159
sg12
I5
sg13
Nsbag3
(g4
g5
NtRp1160
(dp1161
g8
g1158
sg10
VIN
p1162
sg12
I7
sg13
VFROM
p1163
sbag3
(g4
g5
NtRp1164
(dp1165
g8
S'CHARLOTTE'
p1166
sg10
VNP
p1167
sg12
I7
sg13
Nsbag3
(g4
g5
NtRp1168
(dp1169
g8
g1166
sg10
VNNP
p1170
sg12
I9
sg13
VCHARLOTTE
p1171
sbag3
(g4
g5
NtRp1172
(dp1173
g8
S'HALL'
p1174
sg10
VNNP
p1175
sg12
I9
sg13
VHALL
p1176
sbag3
(g4
g5
NtRp1177
(dp1178
g8
S'MILITARY'
p1179
sg10
VNNP
p1180
sg12
I9
sg13
VMILITARY
p1181
sbag3
(g4
g5
NtRp1182
(dp1183
g8
S'ACADEMY'
p1184
sg10
VNNP
p1185
sg12
I9
sg13
VACADEMY
p1186
sbag3
(g4
g5
NtRp1187
(dp1188
g8
S'IN'
p1189
sg10
VPP
p1190
sg12
I5
sg13
Nsbag3
(g4
g5
NtRp1191
(dp1192
g8
g1189
sg10
VIN
p1193
sg12
I14
sg13
VIN
p1194
sbag3
(g4
g5
NtRp1195
(dp1196
g8
S'1804'
p1197
sg10
VNP
p1198
sg12
I14
sg13
V1804
p1199
sbag3
(g4
g5
NtRp1200
(dp1201
g8
g1197
sg10
VCD
p1202
sg12
I16
sg13
V1804
p1203
sbag3
(g4
g5
NtRp1204
(dp1205
g8
S'.'
sg10
V.
sg12
I1
sg13
V.
sba(lp1206
(lp1207
I1
aa(lp1208
I2
aI5
aI18
aa(lp1209
I3
aI4
aa(lp1210
a(lp1211
a(lp1212
I6
aI7
aI14
aa(lp1213
a(lp1214
I8
aI9
aa(lp1215
a(lp1216
I10
aI11
aI12
aI13
aa(lp1217
a(lp1218
a(lp1219
a(lp1220
a(lp1221
I15
aI16
aa(lp1222
a(lp1223
I17
aa(lp1224
a(lp1225
a(lp1226
NaNag143
aNaNaNaNaNaNaNag144
aNaNaNaNaNaNaNaNaI1
tp1227
a(g1128
g1206
(lp1228
NaNaNaNaNaNaNaNaNaNag144
aNaNaNaNaNag143
aNaNaI5
tp1229
a((lp1230
g3
(g4
g5
NtRp1231
(dp1232
g8
V BUSKIRK GRADUATED FROM INDIANA UNIVERSITY IN BLOOMINGTON IN 1841 .
p1233
sg10
VROOT
p1234
sg12
Nsg13
Nsbag3
(g4
g5
NtRp1235
(dp1236
g8
V BUSKIRK GRADUATED FROM INDIANA UNIVERSITY IN BLOOMINGTON IN 1841 .
p1237
sg10
VS
sg12
I0
sg13
Nsbag3
(g4
g5
NtRp1238
(dp1239
g8
VBUSKIRK
p1240
sg10
VNP
p1241
sg12
I1
sg13
Nsbag3
(g4
g5
NtRp1242
(dp1243
g8
g1240
sg10
VNNP
p1244
sg12
I2
sg13
Nsbag3
(g4
g5
NtRp1245
(dp1246
g8
S'GRADUATE'
p1247
sg10
VVP
p1248
sg12
I1
sg13
Nsbag3
(g4
g5
NtRp1249
(dp1250
g8
g1247
sg10
VVBD
p1251
sg12
I4
sg13
VGRADUATED
p1252
sbag3
(g4
g5
NtRp1253
(dp1254
g8
S'FROM'
p1255
sg10
VPP
p1256
sg12
I4
sg13
Nsbag3
(g4
g5
NtRp1257
(dp1258
g8
g1255
sg10
VIN
p1259
sg12
I6
sg13
VFROM
p1260
sbag3
(g4
g5
NtRp1261
(dp1262
g8
S'INDIANA'
p1263
sg10
VNP
p1264
sg12
I6
sg13
Nsbag3
(g4
g5
NtRp1265
(dp1266
g8
g1263
sg10
VNP
p1267
sg12
I8
sg13
Nsbag3
(g4
g5
NtRp1268
(dp1269
g8
g1263
sg10
VNNP
p1270
sg12
I9
sg13
VINDIANA
p1271
sbag3
(g4
g5
NtRp1272
(dp1273
g8
S'UNIVERSITY'
p1274
sg10
VNNP
p1275
sg12
I9
sg13
VUNIVERSITY
p1276
sbag3
(g4
g5
NtRp1277
(dp1278
g8
S'IN'
p1279
sg10
VPP
p1280
sg12
I8
sg13
Nsbag3
(g4
g5
NtRp1281
(dp1282
g8
g1279
sg10
VIN
p1283
sg12
I12
sg13
VIN
p1284
sbag3
(g4
g5
NtRp1285
(dp1286
g8
S'BLOOMINGTON'
p1287
sg10
VNP
p1288
sg12
I12
sg13
VBLOOMINGTON
p1289
sbag3
(g4
g5
NtRp1290
(dp1291
g8
g1287
sg10
VNNP
p1292
sg12
I14
sg13
VBLOOMINGTON
p1293
sbag3
(g4
g5
NtRp1294
(dp1295
g8
g1279
sg10
VPP
p1296
sg12
I4
sg13
Nsbag3
(g4
g5
NtRp1297
(dp1298
g8
g1279
sg10
VIN
p1299
sg12
I16
sg13
VIN
p1300
sbag3
(g4
g5
NtRp1301
(dp1302
g8
S'1841'
p1303
sg10
VNP
p1304
sg12
I16
sg13
V1841
p1305
sbag3
(g4
g5
NtRp1306
(dp1307
g8
g1303
sg10
VCD
p1308
sg12
I18
sg13
V1841
p1309
sbag3
(g4
g5
NtRp1310
(dp1311
g8
S'.'
sg10
V.
sg12
I1
sg13
V.
sba(lp1312
(lp1313
I1
aa(lp1314
I2
aI4
aI20
aa(lp1315
I3
aa(lp1316
a(lp1317
I5
aI6
aI16
aa(lp1318
a(lp1319
I7
aI8
aa(lp1320
a(lp1321
I9
aI12
aa(lp1322
I10
aI11
aa(lp1323
a(lp1324
a(lp1325
I13
aI14
aa(lp1326
a(lp1327
I15
aa(lp1328
a(lp1329
I17
aI18
aa(lp1330
a(lp1331
I19
aa(lp1332
a(lp1333
a(lp1334
NaNag143
aNaNaNaNaNaNaNag144
aNaNaNaNaNaNaNaNaNaNaI1
tp1335
a(g1230
g1312
(lp1336
NaNaNaNaNaNaNaNag143
aNag144
aNaNaNaNaNaNaNaNaNaNaI8
tp1337
a(g1230
g1312
(lp1338
NaNaNaNaNaNaNaNaNaNag144
aNaNaNag143
aNaNaNaNaNaNaI8
tp1339
a(g1230
g1312
(lp1340
NaNaNaNaNaNaNaNaNaNag144
aNaNaNaNaNaNaNag143
aNaNaI4
tp1341
a((lp1342
g3
(g4
g5
NtRp1343
(dp1344
g8
V DOWNS IS A PHI BETA KAPPA GRADUATE OF INDIANA UNIVERSITY .
p1345
sg10
VROOT
p1346
sg12
Nsg13
Nsbag3
(g4
g5
NtRp1347
(dp1348
g8
V DOWNS IS A PHI BETA KAPPA GRADUATE OF INDIANA UNIVERSITY .
p1349
sg10
VS
sg12
I0
sg13
Nsbag3
(g4
g5
NtRp1350
(dp1351
g8
VDOWNS
p1352
sg10
VNP
p1353
sg12
I1
sg13
Nsbag3
(g4
g5
NtRp1354
(dp1355
g8
g1352
sg10
VNNP
p1356
sg12
I2
sg13
Nsbag3
(g4
g5
NtRp1357
(dp1358
g8
S'BE'
p1359
sg10
VVP
p1360
sg12
I1
sg13
Nsbag3
(g4
g5
NtRp1361
(dp1362
g8
g1359
sg10
VVBZ
p1363
sg12
I4
sg13
VIS
p1364
sbag3
(g4
g5
NtRp1365
(dp1366
g8
S'PHI'
p1367
sg10
VNP
p1368
sg12
I4
sg13
Nsbag3
(g4
g5
NtRp1369
(dp1370
g8
g1367
sg10
VNP
p1371
sg12
I6
sg13
Nsbag3
(g4
g5
NtRp1372
(dp1373
g8
S'A'
sg10
VDT
p1374
sg12
I7
sg13
VA
sbag3
(g4
g5
NtRp1375
(dp1376
g8
g1367
sg10
VNNP
p1377
sg12
I7
sg13
VPHI
p1378
sbag3
(g4
g5
NtRp1379
(dp1380
g8
S'BETA'
p1381
sg10
VNNP
p1382
sg12
I7
sg13
VBETA
p1383
sbag3
(g4
g5
NtRp1384
(dp1385
g8
S'KAPPA'
p1386
sg10
VNNP
p1387
sg12
I7
sg13
VKAPPA
p1388
sbag3
(g4
g5
NtRp1389
(dp1390
g8
S'GRADUATE'
p1391
sg10
VNN
p1392
sg12
I7
sg13
VGRADUATE
p1393
sbag3
(g4
g5
NtRp1394
(dp1395
g8
S'OF'
p1396
sg10
VPP
p1397
sg12
I6
sg13
Nsbag3
(g4
g5
NtRp1398
(dp1399
g8
g1396
sg10
VIN
p1400
sg12
I13
sg13
VOF
p1401
sbag3
(g4
g5
NtRp1402
(dp1403
g8
S'INDIANA'
p1404
sg10
VNP
p1405
sg12
I13
sg13
Nsbag3
(g4
g5
NtRp1406
(dp1407
g8
g1404
sg10
VNNP
p1408
sg12
I15
sg13
VINDIANA
p1409
sbag3
(g4
g5
NtRp1410
(dp1411
g8
S'UNIVERSITY'
p1412
sg10
VNNP
p1413
sg12
I15
sg13
VUNIVERSITY
p1414
sbag3
(g4
g5
NtRp1415
(dp1416
g8
S'.'
sg10
V.
sg12
I1
sg13
V.
sba(lp1417
(lp1418
I1
aa(lp1419
I2
aI4
aI18
aa(lp1420
I3
aa(lp1421
a(lp1422
I5
aI6
aa(lp1423
a(lp1424
I7
aI13
aa(lp1425
I8
aI9
aI10
aI11
aI12
aa(lp1426
a(lp1427
a(lp1428
a(lp1429
a(lp1430
a(lp1431
I14
aI15
aa(lp1432
a(lp1433
I16
aI17
aa(lp1434
a(lp1435
a(lp1436
a(lp1437
NaNag143
aNaNaNaNaNaNaNaNaNaNaNaNaNag144
aNaNaI1
tp1438
a(g1342
g1417
(lp1439
NaNaNaNaNaNag143
aNaNaNaNaNaNaNaNaNag144
aNaNaI6
tp1440
a(g1342
g1417
(lp1441
NaNaNaNaNaNaNag143
aNaNaNaNaNaNaNaNag144
aNaNaI6
tp1442
a(g1342
g1417
(lp1443
NaNaNaNaNaNaNaNaNaNaNaNag143
aNaNaNag144
aNaNaI6
tp1444
a((lp1445
g3
(g4
g5
NtRp1446
(dp1447
g8
V GEORGE V THEN ATTENDED SANDROYD SCHOOL IN WILTSHIRE , ENGLAND .
p1448
sg10
VROOT
p1449
sg12
Nsg13
Nsbag3
(g4
g5
NtRp1450
(dp1451
g8
V GEORGE V THEN ATTENDED SANDROYD SCHOOL IN WILTSHIRE , ENGLAND .
p1452
sg10
VS
sg12
I0
sg13
Nsbag3
(g4
g5
NtRp1453
(dp1454
g8
VGEORGE
p1455
sg10
VNP
p1456
sg12
I1
sg13
Nsbag3
(g4
g5
NtRp1457
(dp1458
g8
g1455
sg10
VNNP
p1459
sg12
I2
sg13
Nsbag3
(g4
g5
NtRp1460
(dp1461
g8
S'V'
sg10
VNNP
p1462
sg12
I2
sg13
VV
sbag3
(g4
g5
NtRp1463
(dp1464
g8
S'THEN'
p1465
sg10
VADVP
p1466
sg12
I1
sg13
VTHEN
p1467
sbag3
(g4
g5
NtRp1468
(dp1469
g8
g1465
sg10
VRB
p1470
sg12
I5
sg13
VTHEN
p1471
sbag3
(g4
g5
NtRp1472
(dp1473
g8
S'ATTEND'
p1474
sg10
VVP
p1475
sg12
I1
sg13
Nsbag3
(g4
g5
NtRp1476
(dp1477
g8
g1474
sg10
VVBD
p1478
sg12
I7
sg13
VATTENDED
p1479
sbag3
(g4
g5
NtRp1480
(dp1481
g8
S'SANDROYD'
p1482
sg10
VNP
p1483
sg12
I7
sg13
Nsbag3
(g4
g5
NtRp1484
(dp1485
g8
g1482
sg10
VNP
p1486
sg12
I9
sg13
Nsbag3
(g4
g5
NtRp1487
(dp1488
g8
g1482
sg10
VNNP
p1489
sg12
I10
sg13
VSANDROYD
p1490
sbag3
(g4
g5
NtRp1491
(dp1492
g8
S'SCHOOL'
p1493
sg10
VNNP
p1494
sg12
I10
sg13
VSCHOOL
p1495
sbag3
(g4
g5
NtRp1496
(dp1497
g8
S'IN'
p1498
sg10
VPP
p1499
sg12
I9
sg13
Nsbag3
(g4
g5
NtRp1500
(dp1501
g8
g1498
sg10
VIN
p1502
sg12
I13
sg13
VIN
p1503
sbag3
(g4
g5
NtRp1504
(dp1505
g8
S'WILTSHIRE'
p1506
sg10
VNP
p1507
sg12
I13
sg13
Nsbag3
(g4
g5
NtRp1508
(dp1509
g8
g1506
sg10
VNNP
p1510
sg12
I15
sg13
VWILTSHIRE
p1511
sbag3
(g4
g5
NtRp1512
(dp1513
g8
S','
sg10
V,
sg12
I15
sg13
V,
sbag3
(g4
g5
NtRp1514
(dp1515
g8
S'ENGLAND'
p1516
sg10
VNNP
p1517
sg12
I15
sg13
VENGLAND
p1518
sbag3
(g4
g5
NtRp1519
(dp1520
g8
S'.'
sg10
V.
sg12
I1
sg13
V.
sba(lp1521
(lp1522
I1
aa(lp1523
I2
aI5
aI7
aI19
aa(lp1524
I3
aI4
aa(lp1525
a(lp1526
a(lp1527
I6
aa(lp1528
a(lp1529
I8
aI9
aa(lp1530
a(lp1531
I10
aI13
aa(lp1532
I11
aI12
aa(lp1533
a(lp1534
a(lp1535
I14
aI15
aa(lp1536
a(lp1537
I16
aI17
aI18
aa(lp1538
a(lp1539
a(lp1540
a(lp1541
a(lp1542
NaNag143
aNaNaNaNaNaNaNaNag144
aNaNaNaNaNaNaNaNaI1
tp1543
a(g1445
g1521
(lp1544
NaNaNaNaNaNaNaNaNag143
aNag144
aNaNaNaNaNaNaNaNaI9
tp1545
a(g1445
g1521
(lp1546
NaNaNaNaNaNaNaNaNaNaNag144
aNaNaNag143
aNaNaNaNaI9
tp1547
a((lp1548
g3
(g4
g5
NtRp1549
(dp1550
g8
V DONALD SINDEN WAS EDUCATED AT EDGEBOROUGH AND LANCING COLLEGE .
p1551
sg10
VROOT
p1552
sg12
Nsg13
Nsbag3
(g4
g5
NtRp1553
(dp1554
g8
V DONALD SINDEN WAS EDUCATED AT EDGEBOROUGH AND LANCING COLLEGE .
p1555
sg10
VS
sg12
I0
sg13
Nsbag3
(g4
g5
NtRp1556
(dp1557
g8
VDONALD
p1558
sg10
VNP
p1559
sg12
I1
sg13
Nsbag3
(g4
g5
NtRp1560
(dp1561
g8
g1558
sg10
VNNP
p1562
sg12
I2
sg13
Nsbag3
(g4
g5
NtRp1563
(dp1564
g8
S'SINDEN'
p1565
sg10
VNNP
p1566
sg12
I2
sg13
VSINDEN
p1567
sbag3
(g4
g5
NtRp1568
(dp1569
g8
S'BE'
p1570
sg10
VVP
p1571
sg12
I1
sg13
Nsbag3
(g4
g5
NtRp1572
(dp1573
g8
g1570
sg10
VVBD
p1574
sg12
I5
sg13
VWAS
p1575
sbag3
(g4
g5
NtRp1576
(dp1577
g8
S'EDUCATE'
p1578
sg10
VVP
p1579
sg12
I5
sg13
Nsbag3
(g4
g5
NtRp1580
(dp1581
g8
g1578
sg10
VVBN
p1582
sg12
I7
sg13
VEDUCATED
p1583
sbag3
(g4
g5
NtRp1584
(dp1585
g8
S'AT'
p1586
sg10
VPP
p1587
sg12
I7
sg13
Nsbag3
(g4
g5
NtRp1588
(dp1589
g8
g1586
sg10
VIN
p1590
sg12
I9
sg13
VAT
p1591
sbag3
(g4
g5
NtRp1592
(dp1593
g8
S'EDGEBOROUGH'
p1594
sg10
VNP
p1595
sg12
I9
sg13
Nsbag3
(g4
g5
NtRp1596
(dp1597
g8
g1594
sg10
VNNP
p1598
sg12
I11
sg13
VEDGEBOROUGH
p1599
sbag3
(g4
g5
NtRp1600
(dp1601
g8
S'AND'
p1602
sg10
VCC
p1603
sg12
I11
sg13
VAND
p1604
sbag3
(g4
g5
NtRp1605
(dp1606
g8
S'LANCING'
p1607
sg10
VNNP
p1608
sg12
I11
sg13
VLANCING
p1609
sbag3
(g4
g5
NtRp1610
(dp1611
g8
S'COLLEGE'
p1612
sg10
VNNP
p1613
sg12
I11
sg13
VCOLLEGE
p1614
sbag3
(g4
g5
NtRp1615
(dp1616
g8
S'.'
sg10
V.
sg12
I1
sg13
V.
sba(lp1617
(lp1618
I1
aa(lp1619
I2
aI5
aI16
aa(lp1620
I3
aI4
aa(lp1621
a(lp1622
a(lp1623
I6
aI7
aa(lp1624
a(lp1625
I8
aI9
aa(lp1626
a(lp1627
I10
aI11
aa(lp1628
a(lp1629
I12
aI13
aI14
aI15
aa(lp1630
a(lp1631
a(lp1632
a(lp1633
a(lp1634
a(lp1635
NaNag143
aNaNaNaNaNaNaNaNaNag144
aNaNaNaNaI1
tp1636
a(g1548
g1617
(lp1637
NaNag143
aNaNaNaNaNaNaNaNaNaNaNag144
aNaNaI1
tp1638
a((lp1639
g3
(g4
g5
NtRp1640
(dp1641
g8
V SIBLING LATER ATTENDED FLORIDA COLLEGE .
p1642
sg10
VROOT
p1643
sg12
Nsg13
Nsbag3
(g4
g5
NtRp1644
(dp1645
g8
V SIBLING LATER ATTENDED FLORIDA COLLEGE .
p1646
sg10
VS
sg12
I0
sg13
Nsbag3
(g4
g5
NtRp1647
(dp1648
g8
VSIBLING
p1649
sg10
VNP
p1650
sg12
I1
sg13
Nsbag3
(g4
g5
NtRp1651
(dp1652
g8
g1649
sg10
VNN
p1653
sg12
I2
sg13
Nsbag3
(g4
g5
NtRp1654
(dp1655
g8
S'LATER'
p1656
sg10
VADVP
p1657
sg12
I1
sg13
VLATER
p1658
sbag3
(g4
g5
NtRp1659
(dp1660
g8
g1656
sg10
VRB
p1661
sg12
I4
sg13
VLATER
p1662
sbag3
(g4
g5
NtRp1663
(dp1664
g8
S'ATTEND'
p1665
sg10
VVP
p1666
sg12
I1
sg13
Nsbag3
(g4
g5
NtRp1667
(dp1668
g8
g1665
sg10
VVBD
p1669
sg12
I6
sg13
VATTENDED
p1670
sbag3
(g4
g5
NtRp1671
(dp1672
g8
S'FLORIDA'
p1673
sg10
VNP
p1674
sg12
I6
sg13
Nsbag3
(g4
g5
NtRp1675
(dp1676
g8
g1673
sg10
VNNP
p1677
sg12
I8
sg13
VFLORIDA
p1678
sbag3
(g4
g5
NtRp1679
(dp1680
g8
S'COLLEGE'
p1681
sg10
VNNP
p1682
sg12
I8
sg13
VCOLLEGE
p1683
sbag3
(g4
g5
NtRp1684
(dp1685
g8
S'.'
sg10
V.
sg12
I1
sg13
V.
sba(lp1686
(lp1687
I1
aa(lp1688
I2
aI4
aI6
aI11
aa(lp1689
I3
aa(lp1690
a(lp1691
I5
aa(lp1692
a(lp1693
I7
aI8
aa(lp1694
a(lp1695
I9
aI10
aa(lp1696
a(lp1697
a(lp1698
a(lp1699
NaNag143
aNaNaNaNaNaNag144
aNaNaI1
tp1700
a(g1639
g1686
(lp1701
NaNaNag143
aNaNaNaNaNag144
aNaNaI1
tp1702
a((lp1703
g3
(g4
g5
NtRp1704
(dp1705
g8
V CHRISTOPHER DANIELS PLAYED COLLEGE BASKETBALL AT THE UNIVERSITY OF KENTUCKY .
p1706
sg10
VROOT
p1707
sg12
Nsg13
Nsbag3
(g4
g5
NtRp1708
(dp1709
g8
V CHRISTOPHER DANIELS PLAYED COLLEGE BASKETBALL AT THE UNIVERSITY OF KENTUCKY .
p1710
sg10
VS
sg12
I0
sg13
Nsbag3
(g4
g5
NtRp1711
(dp1712
g8
VCHRISTOPHER
p1713
sg10
VNP
p1714
sg12
I1
sg13
Nsbag3
(g4
g5
NtRp1715
(dp1716
g8
g1713
sg10
VNNP
p1717
sg12
I2
sg13
Nsbag3
(g4
g5
NtRp1718
(dp1719
g8
S'DANIELS'
p1720
sg10
VNNP
p1721
sg12
I2
sg13
VDANIELS
p1722
sbag3
(g4
g5
NtRp1723
(dp1724
g8
S'PLAY'
p1725
sg10
VVP
p1726
sg12
I1
sg13
Nsbag3
(g4
g5
NtRp1727
(dp1728
g8
g1725
sg10
VVBD
p1729
sg12
I5
sg13
VPLAYED
p1730
sbag3
(g4
g5
NtRp1731
(dp1732
g8
S'COLLEGE'
p1733
sg10
VNP
p1734
sg12
I5
sg13
Nsbag3
(g4
g5
NtRp1735
(dp1736
g8
g1733
sg10
VNN
p1737
sg12
I7
sg13
VCOLLEGE
p1738
sbag3
(g4
g5
NtRp1739
(dp1740
g8
S'BASKETBALL'
p1741
sg10
VNN
p1742
sg12
I7
sg13
VBASKETBALL
p1743
sbag3
(g4
g5
NtRp1744
(dp1745
g8
S'AT'
p1746
sg10
VPP
p1747
sg12
I5
sg13
Nsbag3
(g4
g5
NtRp1748
(dp1749
g8
g1746
sg10
VIN
p1750
sg12
I10
sg13
VAT
p1751
sbag3
(g4
g5
NtRp1752
(dp1753
g8
S'UNIVERSITY'
p1754
sg10
VNP
p1755
sg12
I10
sg13
Nsbag3
(g4
g5
NtRp1756
(dp1757
g8
g1754
sg10
VNP
p1758
sg12
I12
sg13
Nsbag3
(g4
g5
NtRp1759
(dp1760
g8
S'THE'
p1761
sg10
VDT
p1762
sg12
I13
sg13
VTHE
p1763
sbag3
(g4
g5
NtRp1764
(dp1765
g8
g1754
sg10
VNNP
p1766
sg12
I13
sg13
VUNIVERSITY
p1767
sbag3
(g4
g5
NtRp1768
(dp1769
g8
S'OF'
p1770
sg10
VPP
p1771
sg12
I12
sg13
Nsbag3
(g4
g5
NtRp1772
(dp1773
g8
g1770
sg10
VIN
p1774
sg12
I16
sg13
VOF
p1775
sbag3
(g4
g5
NtRp1776
(dp1777
g8
S'KENTUCKY'
p1778
sg10
VNP
p1779
sg12
I16
sg13
VKENTUCKY
p1780
sbag3
(g4
g5
NtRp1781
(dp1782
g8
g1778
sg10
VNNP
p1783
sg12
I18
sg13
VKENTUCKY
p1784
sbag3
(g4
g5
NtRp1785
(dp1786
g8
S'.'
sg10
V.
sg12
I1
sg13
V.
sba(lp1787
(lp1788
I1
aa(lp1789
I2
aI5
aI20
aa(lp1790
I3
aI4
aa(lp1791
a(lp1792
a(lp1793
I6
aI7
aI10
aa(lp1794
a(lp1795
I8
aI9
aa(lp1796
a(lp1797
a(lp1798
I11
aI12
aa(lp1799
a(lp1800
I13
aI16
aa(lp1801
I14
aI15
aa(lp1802
a(lp1803
a(lp1804
I17
aI18
aa(lp1805
a(lp1806
I19
aa(lp1807
a(lp1808
a(lp1809
NaNag143
aNaNaNaNaNaNaNaNaNaNaNaNag144
aNaNaNaNaNaI1
tp1810
a(g1703
g1787
(lp1811
NaNaNaNaNaNaNag143
aNaNaNaNaNaNaNag144
aNaNaNaNaNaI5
tp1812
a(g1703
g1787
(lp1813
NaNaNaNaNaNaNaNag143
aNaNaNaNaNaNag144
aNaNaNaNaNaI5
tp1814
a(g1703
g1787
(lp1815
NaNaNaNaNaNaNaNaNag143
aNaNaNaNaNag144
aNaNaNaNaNaI5
tp1816
a(g1703
g1787
(lp1817
NaNaNaNaNaNaNaNaNaNaNaNag143
aNaNag144
aNaNaNaNaNaI12
tp1818
a((lp1819
g3
(g4
g5
NtRp1820
(dp1821
g8
V PETER LAMPL STUDIED AT CORPUS CHRISTI COLLEGE , OXFORD AND THE LONDON BUSINESS SCHOOL .
p1822
sg10
VROOT
p1823
sg12
Nsg13
Nsbag3
(g4
g5
NtRp1824
(dp1825
g8
V PETER LAMPL STUDIED AT CORPUS CHRISTI COLLEGE , OXFORD AND THE LONDON BUSINESS SCHOOL .
p1826
sg10
VS
sg12
I0
sg13
Nsbag3
(g4
g5
NtRp1827
(dp1828
g8
VPETER
p1829
sg10
VNP
p1830
sg12
I1
sg13
Nsbag3
(g4
g5
NtRp1831
(dp1832
g8
g1829
sg10
VNNP
p1833
sg12
I2
sg13
Nsbag3
(g4
g5
NtRp1834
(dp1835
g8
S'LAMPL'
p1836
sg10
VNNP
p1837
sg12
I2
sg13
VLAMPL
p1838
sbag3
(g4
g5
NtRp1839
(dp1840
g8
S'STUDY'
p1841
sg10
VVP
p1842
sg12
I1
sg13
Nsbag3
(g4
g5
NtRp1843
(dp1844
g8
g1841
sg10
VVBN
p1845
sg12
I5
sg13
VSTUDIED
p1846
sbag3
(g4
g5
NtRp1847
(dp1848
g8
S'AT'
p1849
sg10
VPP
p1850
sg12
I5
sg13
Nsbag3
(g4
g5
NtRp1851
(dp1852
g8
g1849
sg10
VIN
p1853
sg12
I7
sg13
VAT
p1854
sbag3
(g4
g5
NtRp1855
(dp1856
g8
S'CORPUS'
p1857
sg10
VNP
p1858
sg12
I7
sg13
Nsbag3
(g4
g5
NtRp1859
(dp1860
g8
g1857
sg10
VNP
p1861
sg12
I9
sg13
Nsbag3
(g4
g5
NtRp1862
(dp1863
g8
g1857
sg10
VNNP
p1864
sg12
I10
sg13
VCORPUS
p1865
sbag3
(g4
g5
NtRp1866
(dp1867
g8
S'CHRISTI'
p1868
sg10
VNNP
p1869
sg12
I10
sg13
VCHRISTI
p1870
sbag3
(g4
g5
NtRp1871
(dp1872
g8
S'COLLEGE'
p1873
sg10
VNNP
p1874
sg12
I10
sg13
VCOLLEGE
p1875
sbag3
(g4
g5
NtRp1876
(dp1877
g8
S','
sg10
V,
sg12
I9
sg13
V,
sbag3
(g4
g5
NtRp1878
(dp1879
g8
S'OXFORD'
p1880
sg10
VNP
p1881
sg12
I9
sg13
VOXFORD
p1882
sbag3
(g4
g5
NtRp1883
(dp1884
g8
g1880
sg10
VNNP
p1885
sg12
I15
sg13
VOXFORD
p1886
sbag3
(g4
g5
NtRp1887
(dp1888
g8
S'AND'
p1889
sg10
VCC
p1890
sg12
I9
sg13
VAND
p1891
sbag3
(g4
g5
NtRp1892
(dp1893
g8
S'LONDON'
p1894
sg10
VNP
p1895
sg12
I9
sg13
Nsbag3
(g4
g5
NtRp1896
(dp1897
g8
S'THE'
p1898
sg10
VDT
p1899
sg12
I18
sg13
VTHE
p1900
sbag3
(g4
g5
NtRp1901
(dp1902
g8
g1894
sg10
VNNP
p1903
sg12
I18
sg13
VLONDON
p1904
sbag3
(g4
g5
NtRp1905
(dp1906
g8
S'BUSINESS'
p1907
sg10
VNNP
p1908
sg12
I18
sg13
VBUSINESS
p1909
sbag3
(g4
g5
NtRp1910
(dp1911
g8
S'SCHOOL'
p1912
sg10
VNNP
p1913
sg12
I18
sg13
VSCHOOL
p1914
sbag3
(g4
g5
NtRp1915
(dp1916
g8
S'.'
sg10
V.
sg12
I1
sg13
V.
sba(lp1917
(lp1918
I1
aa(lp1919
I2
aI5
aI23
aa(lp1920
I3
aI4
aa(lp1921
a(lp1922
a(lp1923
I6
aI7
aa(lp1924
a(lp1925
I8
aI9
aa(lp1926
a(lp1927
I10
aI14
aI15
aI17
aI18
aa(lp1928
I11
aI12
aI13
aa(lp1929
a(lp1930
a(lp1931
a(lp1932
a(lp1933
I16
aa(lp1934
a(lp1935
a(lp1936
I19
aI20
aI21
aI22
aa(lp1937
a(lp1938
a(lp1939
a(lp1940
a(lp1941
a(lp1942
NaNag143
aNaNaNaNaNaNaNaNag144
aNaNaNaNaNaNaNaNaNaNaNaNaI1
tp1943
a(g1819
g1917
(lp1944
NaNaNaNaNaNaNaNaNag143
aNag144
aNaNaNaNaNaNaNaNaNaNaNaNaI9
tp1945
a(g1819
g1917
(lp1946
NaNaNaNaNaNaNaNaNaNaNag144
aNaNaNag143
aNaNaNaNaNaNaNaNaI9
tp1947
a(g1819
g1917
(lp1948
NaNag143
aNaNaNaNaNaNaNaNaNaNaNaNaNaNaNaNaNag144
aNaNaNaI1
tp1949
a(g1819
g1917
(lp1950
NaNaNaNaNaNaNaNaNag143
aNaNaNaNaNaNaNaNaNaNag144
aNaNaNaI9
tp1951
a(g1819
g1917
(lp1952
NaNaNaNaNaNaNaNaNaNaNaNaNaNaNag143
aNaNaNaNag144
aNaNaNaI9
tp1953
a((lp1954
g3
(g4
g5
NtRp1955
(dp1956
g8
V GEORGE HOSE WAS EDUCATED AT ST JOHN 'S COLLEGE , CAMBRIDGE AND ORDAINED IN 1861 .
p1957
sg10
VROOT
p1958
sg12
Nsg13
Nsbag3
(g4
g5
NtRp1959
(dp1960
g8
V GEORGE HOSE WAS EDUCATED AT ST JOHN 'S COLLEGE , CAMBRIDGE AND ORDAINED IN 1861 .
p1961
sg10
VS
sg12
I0
sg13
Nsbag3
(g4
g5
NtRp1962
(dp1963
g8
VGEORGE
p1964
sg10
VNP
p1965
sg12
I1
sg13
Nsbag3
(g4
g5
NtRp1966
(dp1967
g8
g1964
sg10
VNNP
p1968
sg12
I2
sg13
Nsbag3
(g4
g5
NtRp1969
(dp1970
g8
S'HOSE'
p1971
sg10
VNNP
p1972
sg12
I2
sg13
VHOSE
p1973
sbag3
(g4
g5
NtRp1974
(dp1975
g8
S'BE'
p1976
sg10
VVP
p1977
sg12
I1
sg13
Nsbag3
(g4
g5
NtRp1978
(dp1979
g8
g1976
sg10
VVBD
p1980
sg12
I5
sg13
VWAS
p1981
sbag3
(g4
g5
NtRp1982
(dp1983
g8
S'EDUCATE'
p1984
sg10
VVP
p1985
sg12
I5
sg13
Nsbag3
(g4
g5
NtRp1986
(dp1987
g8
g1984
sg10
VVP
p1988
sg12
I7
sg13
Nsbag3
(g4
g5
NtRp1989
(dp1990
g8
g1984
sg10
VVBN
p1991
sg12
I8
sg13
VEDUCATED
p1992
sbag3
(g4
g5
NtRp1993
(dp1994
g8
S'AT'
p1995
sg10
VPP
p1996
sg12
I8
sg13
Nsbag3
(g4
g5
NtRp1997
(dp1998
g8
g1995
sg10
VIN
p1999
sg12
I10
sg13
VAT
p2000
sbag3
(g4
g5
NtRp2001
(dp2002
g8
S'ST'
p2003
sg10
VNP
p2004
sg12
I10
sg13
Nsbag3
(g4
g5
NtRp2005
(dp2006
g8
g2003
sg10
VNP
p2007
sg12
I12
sg13
Nsbag3
(g4
g5
NtRp2008
(dp2009
g8
g2003
sg10
VNP
p2010
sg12
I13
sg13
Nsbag3
(g4
g5
NtRp2011
(dp2012
g8
g2003
sg10
VNNP
p2013
sg12
I14
sg13
VST
p2014
sbag3
(g4
g5
NtRp2015
(dp2016
g8
S'JOHN'
p2017
sg10
VNNP
p2018
sg12
I14
sg13
VJOHN
p2019
sbag3
(g4
g5
NtRp2020
(dp2021
g8
S"'S"
p2022
sg10
VPOS
p2023
sg12
I14
sg13
V'S
p2024
sbag3
(g4
g5
NtRp2025
(dp2026
g8
S'COLLEGE'
p2027
sg10
VNNP
p2028
sg12
I13
sg13
VCOLLEGE
p2029
sbag3
(g4
g5
NtRp2030
(dp2031
g8
S','
sg10
V,
sg12
I12
sg13
V,
sbag3
(g4
g5
NtRp2032
(dp2033
g8
S'CAMBRIDGE'
p2034
sg10
VNP
p2035
sg12
I12
sg13
VCAMBRIDGE
p2036
sbag3
(g4
g5
NtRp2037
(dp2038
g8
g2034
sg10
VNNP
p2039
sg12
I20
sg13
VCAMBRIDGE
p2040
sbag3
(g4
g5
NtRp2041
(dp2042
g8
S'AND'
p2043
sg10
VCC
p2044
sg12
I7
sg13
VAND
p2045
sbag3
(g4
g5
NtRp2046
(dp2047
g8
S'ORDAIN'
p2048
sg10
VVP
p2049
sg12
I7
sg13
Nsbag3
(g4
g5
NtRp2050
(dp2051
g8
g2048
sg10
VVBN
p2052
sg12
I23
sg13
VORDAINED
p2053
sbag3
(g4
g5
NtRp2054
(dp2055
g8
S'IN'
p2056
sg10
VPP
p2057
sg12
I23
sg13
Nsbag3
(g4
g5
NtRp2058
(dp2059
g8
g2056
sg10
VIN
p2060
sg12
I25
sg13
VIN
p2061
sbag3
(g4
g5
NtRp2062
(dp2063
g8
S'1861'
p2064
sg10
VNP
p2065
sg12
I25
sg13
V1861
p2066
sbag3
(g4
g5
NtRp2067
(dp2068
g8
g2064
sg10
VCD
p2069
sg12
I27
sg13
V1861
p2070
sbag3
(g4
g5
NtRp2071
(dp2072
g8
S'.'
sg10
V.
sg12
I1
sg13
V.
sba(lp2073
(lp2074
I1
aa(lp2075
I2
aI5
aI29
aa(lp2076
I3
aI4
aa(lp2077
a(lp2078
a(lp2079
I6
aI7
aa(lp2080
a(lp2081
I8
aI22
aI23
aa(lp2082
I9
aI10
aa(lp2083
a(lp2084
I11
aI12
aa(lp2085
a(lp2086
I13
aI19
aI20
aa(lp2087
I14
aI18
aa(lp2088
I15
aI16
aI17
aa(lp2089
a(lp2090
a(lp2091
a(lp2092
a(lp2093
a(lp2094
I21
aa(lp2095
a(lp2096
a(lp2097
I24
aI25
aa(lp2098
a(lp2099
I26
aI27
aa(lp2100
a(lp2101
I28
aa(lp2102
a(lp2103
a(lp2104
NaNag143
aNaNaNaNaNaNaNaNaNaNaNaNag144
aNaNaNaNaNaNaNaNaNaNaNaNaNaNaI1
tp2105
a(g1954
g2073
(lp2106
NaNaNaNaNaNaNaNaNaNaNaNag143
aNaNag144
aNaNaNaNaNaNaNaNaNaNaNaNaNaNaI12
tp2107
a(g1954
g2073
(lp2108
NaNaNaNaNaNaNaNaNaNaNaNaNaNaNag144
aNaNaNaNag143
aNaNaNaNaNaNaNaNaNaI12
tp2109
a(g1954
g2073
(lp2110
NaNaNaNaNaNaNaNaNaNaNaNaNaNaNag144
aNaNaNaNaNaNaNaNaNaNaNag143
aNaNaI7
tp2111
a((lp2112
g3
(g4
g5
NtRp2113
(dp2114
g8
V THIS NETWORK WAS CALLED THE `` STANFORD UNIVERSITY NETWORK '' OR SUN .
p2115
sg10
VROOT
p2116
sg12
Nsg13
Nsbag3
(g4
g5
NtRp2117
(dp2118
g8
V THIS NETWORK WAS CALLED THE `` STANFORD UNIVERSITY NETWORK '' OR SUN .
p2119
sg10
VS
sg12
I0
sg13
Nsbag3
(g4
g5
NtRp2120
(dp2121
g8
S'NETWORK'
p2122
sg10
VNP
p2123
sg12
I1
sg13
Nsbag3
(g4
g5
NtRp2124
(dp2125
g8
VTHIS
p2126
sg10
VDT
p2127
sg12
I2
sg13
Nsbag3
(g4
g5
NtRp2128
(dp2129
g8
g2122
sg10
VNN
p2130
sg12
I2
sg13
VNETWORK
p2131
sbag3
(g4
g5
NtRp2132
(dp2133
g8
S'BE'
p2134
sg10
VVP
p2135
sg12
I1
sg13
Nsbag3
(g4
g5
NtRp2136
(dp2137
g8
g2134
sg10
VVBD
p2138
sg12
I5
sg13
VWAS
p2139
sbag3
(g4
g5
NtRp2140
(dp2141
g8
S'CALL'
p2142
sg10
VVP
p2143
sg12
I5
sg13
Nsbag3
(g4
g5
NtRp2144
(dp2145
g8
g2142
sg10
VVBN
p2146
sg12
I7
sg13
VCALLED
p2147
sbag3
(g4
g5
NtRp2148
(dp2149
g8
S'STANFORD'
p2150
sg10
VNP
p2151
sg12
I7
sg13
Nsbag3
(g4
g5
NtRp2152
(dp2153
g8
S'THE'
p2154
sg10
VDT
p2155
sg12
I9
sg13
VTHE
p2156
sbag3
(g4
g5
NtRp2157
(dp2158
g8
S'``'
p2159
sg10
V``
p2160
sg12
I9
sg13
V``
p2161
sbag3
(g4
g5
NtRp2162
(dp2163
g8
g2150
sg10
VNNP
p2164
sg12
I9
sg13
VSTANFORD
p2165
sbag3
(g4
g5
NtRp2166
(dp2167
g8
S'UNIVERSITY'
p2168
sg10
VNNP
p2169
sg12
I9
sg13
VUNIVERSITY
p2170
sbag3
(g4
g5
NtRp2171
(dp2172
g8
g2122
sg10
VNP-TMP
p2173
sg12
I7
sg13
Nsbag3
(g4
g5
NtRp2174
(dp2175
g8
g2122
sg10
VNP
p2176
sg12
I14
sg13
VNETWORK
p2177
sbag3
(g4
g5
NtRp2178
(dp2179
g8
g2122
sg10
VNNP
p2180
sg12
I15
sg13
VNETWORK
p2181
sbag3
(g4
g5
NtRp2182
(dp2183
g8
S"''"
p2184
sg10
V''
p2185
sg12
I14
sg13
V''
p2186
sbag3
(g4
g5
NtRp2187
(dp2188
g8
S'OR'
p2189
sg10
VCC
p2190
sg12
I14
sg13
VOR
p2191
sbag3
(g4
g5
NtRp2192
(dp2193
g8
S'SUN'
p2194
sg10
VNP
p2195
sg12
I14
sg13
VSUN
p2196
sbag3
(g4
g5
NtRp2197
(dp2198
g8
g2194
sg10
VNNP
p2199
sg12
I19
sg13
VSUN
p2200
sbag3
(g4
g5
NtRp2201
(dp2202
g8
S'.'
sg10
V.
sg12
I1
sg13
V.
sba(lp2203
(lp2204
I1
aa(lp2205
I2
aI5
aI21
aa(lp2206
I3
aI4
aa(lp2207
a(lp2208
a(lp2209
I6
aI7
aa(lp2210
a(lp2211
I8
aI9
aI14
aa(lp2212
a(lp2213
I10
aI11
aI12
aI13
aa(lp2214
a(lp2215
a(lp2216
a(lp2217
a(lp2218
I15
aI17
aI18
aI19
aa(lp2219
I16
aa(lp2220
a(lp2221
a(lp2222
a(lp2223
I20
aa(lp2224
a(lp2225
a(lp2226
NaNaNaNag144
aNaNaNaNaNaNaNaNaNaNaNaNaNaNag143
aNaNaI1
tp2227
a(g2112
g2203
(lp2228
NaNaNaNaNaNaNaNaNaNaNaNag144
aNaNaNaNaNaNag143
aNaNaI7
tp2229
a(g2112
g2203
(lp2230
NaNaNaNaNaNaNaNaNaNaNaNaNaNaNag144
aNaNaNag143
aNaNaI14
tp2231
a((lp2232
g3
(g4
g5
NtRp2233
(dp2234
g8
V FROM AGE 14 , ALEXANDER SVERJENSKY STUDIED AT THE PETROGRAD CONSERVATORY UNDER ALEXANDER GLAZUNOV .
p2235
sg10
VROOT
p2236
sg12
Nsg13
Nsbag3
(g4
g5
NtRp2237
(dp2238
g8
V FROM AGE 14 , ALEXANDER SVERJENSKY STUDIED AT THE PETROGRAD CONSERVATORY UNDER ALEXANDER GLAZUNOV .
p2239
sg10
VS
sg12
I0
sg13
Nsbag3
(g4
g5
NtRp2240
(dp2241
g8
VFROM
p2242
sg10
VPP
p2243
sg12
I1
sg13
Nsbag3
(g4
g5
NtRp2244
(dp2245
g8
g2242
sg10
VIN
p2246
sg12
I2
sg13
Nsbag3
(g4
g5
NtRp2247
(dp2248
g8
S'AGE'
p2249
sg10
VNP
p2250
sg12
I2
sg13
Nsbag3
(g4
g5
NtRp2251
(dp2252
g8
g2249
sg10
VNN
p2253
sg12
I4
sg13
VAGE
p2254
sbag3
(g4
g5
NtRp2255
(dp2256
g8
S'14'
p2257
sg10
VCD
p2258
sg12
I4
sg13
V14
p2259
sbag3
(g4
g5
NtRp2260
(dp2261
g8
S','
sg10
V,
sg12
I1
sg13
V,
sbag3
(g4
g5
NtRp2262
(dp2263
g8
S'ALEXANDER'
p2264
sg10
VNP
p2265
sg12
I1
sg13
Nsbag3
(g4
g5
NtRp2266
(dp2267
g8
g2264
sg10
VNNP
p2268
sg12
I8
sg13
VALEXANDER
p2269
sbag3
(g4
g5
NtRp2270
(dp2271
g8
S'SVERJENSKY'
p2272
sg10
VNNP
p2273
sg12
I8
sg13
VSVERJENSKY
p2274
sbag3
(g4
g5
NtRp2275
(dp2276
g8
S'STUDY'
p2277
sg10
VVP
p2278
sg12
I1
sg13
Nsbag3
(g4
g5
NtRp2279
(dp2280
g8
g2277
sg10
VVBN
p2281
sg12
I11
sg13
VSTUDIED
p2282
sbag3
(g4
g5
NtRp2283
(dp2284
g8
S'AT'
p2285
sg10
VPP
p2286
sg12
I11
sg13
Nsbag3
(g4
g5
NtRp2287
(dp2288
g8
g2285
sg10
VIN
p2289
sg12
I13
sg13
VAT
p2290
sbag3
(g4
g5
NtRp2291
(dp2292
g8
S'PETROGRAD'
p2293
sg10
VNP
p2294
sg12
I13
sg13
Nsbag3
(g4
g5
NtRp2295
(dp2296
g8
S'THE'
p2297
sg10
VDT
p2298
sg12
I15
sg13
VTHE
p2299
sbag3
(g4
g5
NtRp2300
(dp2301
g8
g2293
sg10
VNNP
p2302
sg12
I15
sg13
VPETROGRAD
p2303
sbag3
(g4
g5
NtRp2304
(dp2305
g8
S'CONSERVATORY'
p2306
sg10
VNNP
p2307
sg12
I15
sg13
VCONSERVATORY
p2308
sbag3
(g4
g5
NtRp2309
(dp2310
g8
S'UNDER'
p2311
sg10
VPP
p2312
sg12
I11
sg13
Nsbag3
(g4
g5
NtRp2313
(dp2314
g8
g2311
sg10
VIN
p2315
sg12
I19
sg13
VUNDER
p2316
sbag3
(g4
g5
NtRp2317
(dp2318
g8
g2264
sg10
VNP
p2319
sg12
I19
sg13
Nsbag3
(g4
g5
NtRp2320
(dp2321
g8
g2264
sg10
VNNP
p2322
sg12
I21
sg13
VALEXANDER
p2323
sbag3
(g4
g5
NtRp2324
(dp2325
g8
S'GLAZUNOV'
p2326
sg10
VNNP
p2327
sg12
I21
sg13
VGLAZUNOV
p2328
sbag3
(g4
g5
NtRp2329
(dp2330
g8
S'.'
sg10
V.
sg12
I1
sg13
V.
sba(lp2331
(lp2332
I1
aa(lp2333
I2
aI7
aI8
aI11
aI24
aa(lp2334
I3
aI4
aa(lp2335
a(lp2336
I5
aI6
aa(lp2337
a(lp2338
a(lp2339
a(lp2340
I9
aI10
aa(lp2341
a(lp2342
a(lp2343
I12
aI13
aI19
aa(lp2344
a(lp2345
I14
aI15
aa(lp2346
a(lp2347
I16
aI17
aI18
aa(lp2348
a(lp2349
a(lp2350
a(lp2351
I20
aI21
aa(lp2352
a(lp2353
I22
aI23
aa(lp2354
a(lp2355
a(lp2356
a(lp2357
NaNaNaNag143
aNaNaNaNaNaNaNaNaNaNaNaNag144
aNaNaNaNaNaNaNaI1
tp2358
a(g2232
g2331
(lp2359
NaNaNaNaNag143
aNaNaNaNaNaNaNaNaNaNaNag144
aNaNaNaNaNaNaNaI1
tp2360
a(g2232
g2331
(lp2361
NaNaNaNaNaNaNaNag143
aNaNaNaNaNaNaNaNag144
aNaNaNaNaNaNaNaI1
tp2362
a(g2232
g2331
(lp2363
NaNaNaNaNaNaNaNaNaNaNaNaNaNaNaNaNag144
aNaNaNag143
aNaNaNaI11
tp2364
a((lp2365
g3
(g4
g5
NtRp2366
(dp2367
g8
V ERIC MCCUTCHAN WAS EDUCATED AT WESLEY COLLEGE , MELBOURNE .
p2368
sg10
VROOT
p2369
sg12
Nsg13
Nsbag3
(g4
g5
NtRp2370
(dp2371
g8
V ERIC MCCUTCHAN WAS EDUCATED AT WESLEY COLLEGE , MELBOURNE .
p2372
sg10
VS
sg12
I0
sg13
Nsbag3
(g4
g5
NtRp2373
(dp2374
g8
VERIC
p2375
sg10
VNP
p2376
sg12
I1
sg13
Nsbag3
(g4
g5
NtRp2377
(dp2378
g8
g2375
sg10
VNNP
p2379
sg12
I2
sg13
Nsbag3
(g4
g5
NtRp2380
(dp2381
g8
S'MCCUTCHAN'
p2382
sg10
VNNP
p2383
sg12
I2
sg13
VMCCUTCHAN
p2384
sbag3
(g4
g5
NtRp2385
(dp2386
g8
S'BE'
p2387
sg10
VVP
p2388
sg12
I1
sg13
Nsbag3
(g4
g5
NtRp2389
(dp2390
g8
g2387
sg10
VVBD
p2391
sg12
I5
sg13
VWAS
p2392
sbag3
(g4
g5
NtRp2393
(dp2394
g8
S'EDUCATE'
p2395
sg10
VVP
p2396
sg12
I5
sg13
Nsbag3
(g4
g5
NtRp2397
(dp2398
g8
g2395
sg10
VVBN
p2399
sg12
I7
sg13
VEDUCATED
p2400
sbag3
(g4
g5
NtRp2401
(dp2402
g8
S'AT'
p2403
sg10
VPP
p2404
sg12
I7
sg13
Nsbag3
(g4
g5
NtRp2405
(dp2406
g8
g2403
sg10
VIN
p2407
sg12
I9
sg13
VAT
p2408
sbag3
(g4
g5
NtRp2409
(dp2410
g8
S'WESLEY'
p2411
sg10
VNP
p2412
sg12
I9
sg13
Nsbag3
(g4
g5
NtRp2413
(dp2414
g8
g2411
sg10
VNP
p2415
sg12
I11
sg13
Nsbag3
(g4
g5
NtRp2416
(dp2417
g8
g2411
sg10
VNNP
p2418
sg12
I12
sg13
VWESLEY
p2419
sbag3
(g4
g5
NtRp2420
(dp2421
g8
S'COLLEGE'
p2422
sg10
VNNP
p2423
sg12
I12
sg13
VCOLLEGE
p2424
sbag3
(g4
g5
NtRp2425
(dp2426
g8
S','
sg10
V,
sg12
I11
sg13
V,
sbag3
(g4
g5
NtRp2427
(dp2428
g8
S'MELBOURNE'
p2429
sg10
VNP
p2430
sg12
I11
sg13
VMELBOURNE
p2431
sbag3
(g4
g5
NtRp2432
(dp2433
g8
g2429
sg10
VNNP
p2434
sg12
I16
sg13
VMELBOURNE
p2435
sbag3
(g4
g5
NtRp2436
(dp2437
g8
S'.'
sg10
V.
sg12
I1
sg13
V.
sba(lp2438
(lp2439
I1
aa(lp2440
I2
aI5
aI18
aa(lp2441
I3
aI4
aa(lp2442
a(lp2443
a(lp2444
I6
aI7
aa(lp2445
a(lp2446
I8
aI9
aa(lp2447
a(lp2448
I10
aI11
aa(lp2449
a(lp2450
I12
aI15
aI16
aa(lp2451
I13
aI14
aa(lp2452
a(lp2453
a(lp2454
a(lp2455
I17
aa(lp2456
a(lp2457
a(lp2458
NaNag143
aNaNaNaNaNaNaNaNaNaNag144
aNaNaNaNaNaI1
tp2459
a(g2365
g2438
(lp2460
NaNaNaNaNaNaNaNaNaNaNag143
aNag144
aNaNaNaNaNaI11
tp2461
a(g2365
g2438
(lp2462
NaNaNaNaNaNaNaNaNaNaNaNaNag144
aNaNag143
aNaNaI11
tp2463
a((lp2464
g3
(g4
g5
NtRp2465
(dp2466
g8
V JOHN WARNOCK ALSO HAS AN HONORARY DEGREE FROM THE AMERICAN FILM INSTITUTE .
p2467
sg10
VROOT
p2468
sg12
Nsg13
Nsbag3
(g4
g5
NtRp2469
(dp2470
g8
V JOHN WARNOCK ALSO HAS AN HONORARY DEGREE FROM THE AMERICAN FILM INSTITUTE .
p2471
sg10
VS
sg12
I0
sg13
Nsbag3
(g4
g5
NtRp2472
(dp2473
g8
VJOHN
p2474
sg10
VNP
p2475
sg12
I1
sg13
Nsbag3
(g4
g5
NtRp2476
(dp2477
g8
g2474
sg10
VNNP
p2478
sg12
I2
sg13
Nsbag3
(g4
g5
NtRp2479
(dp2480
g8
S'WARNOCK'
p2481
sg10
VNNP
p2482
sg12
I2
sg13
VWARNOCK
p2483
sbag3
(g4
g5
NtRp2484
(dp2485
g8
S'ALSO'
p2486
sg10
VADVP
p2487
sg12
I1
sg13
VALSO
p2488
sbag3
(g4
g5
NtRp2489
(dp2490
g8
g2486
sg10
VRB
p2491
sg12
I5
sg13
VALSO
p2492
sbag3
(g4
g5
NtRp2493
(dp2494
g8
S'HAVE'
p2495
sg10
VVP
p2496
sg12
I1
sg13
Nsbag3
(g4
g5
NtRp2497
(dp2498
g8
g2495
sg10
VVBZ
p2499
sg12
I7
sg13
VHAS
p2500
sbag3
(g4
g5
NtRp2501
(dp2502
g8
S'DEGREE'
p2503
sg10
VNP
p2504
sg12
I7
sg13
Nsbag3
(g4
g5
NtRp2505
(dp2506
g8
g2503
sg10
VNP
p2507
sg12
I9
sg13
Nsbag3
(g4
g5
NtRp2508
(dp2509
g8
S'A'
sg10
VDT
p2510
sg12
I10
sg13
VAN
p2511
sbag3
(g4
g5
NtRp2512
(dp2513
g8
S'HONORARY'
p2514
sg10
VJJ
p2515
sg12
I10
sg13
VHONORARY
p2516
sbag3
(g4
g5
NtRp2517
(dp2518
g8
g2503
sg10
VNN
p2519
sg12
I10
sg13
VDEGREE
p2520
sbag3
(g4
g5
NtRp2521
(dp2522
g8
S'FROM'
p2523
sg10
VPP
p2524
sg12
I9
sg13
Nsbag3
(g4
g5
NtRp2525
(dp2526
g8
g2523
sg10
VIN
p2527
sg12
I14
sg13
VFROM
p2528
sbag3
(g4
g5
NtRp2529
(dp2530
g8
S'FILM'
p2531
sg10
VNP
p2532
sg12
I14
sg13
Nsbag3
(g4
g5
NtRp2533
(dp2534
g8
S'THE'
p2535
sg10
VDT
p2536
sg12
I16
sg13
VTHE
p2537
sbag3
(g4
g5
NtRp2538
(dp2539
g8
S'AMERICAN'
p2540
sg10
VJJ
p2541
sg12
I16
sg13
VAMERICAN
p2542
sbag3
(g4
g5
NtRp2543
(dp2544
g8
g2531
sg10
VNNP
p2545
sg12
I16
sg13
VFILM
p2546
sbag3
(g4
g5
NtRp2547
(dp2548
g8
S'INSTITUTE'
p2549
sg10
VNNP
p2550
sg12
I16
sg13
VINSTITUTE
p2551
sbag3
(g4
g5
NtRp2552
(dp2553
g8
S'.'
sg10
V.
sg12
I1
sg13
V.
sba(lp2554
(lp2555
I1
aa(lp2556
I2
aI5
aI7
aI21
aa(lp2557
I3
aI4
aa(lp2558
a(lp2559
a(lp2560
I6
aa(lp2561
a(lp2562
I8
aI9
aa(lp2563
a(lp2564
I10
aI14
aa(lp2565
I11
aI12
aI13
aa(lp2566
a(lp2567
a(lp2568
a(lp2569
I15
aI16
aa(lp2570
a(lp2571
I17
aI18
aI19
aI20
aa(lp2572
a(lp2573
a(lp2574
a(lp2575
a(lp2576
a(lp2577
NaNag143
aNaNaNaNaNaNaNaNaNaNaNaNaNaNaNaNag144
aNaNaI1
tp2578
a(g2464
g2554
(lp2579
NaNaNaNaNaNaNaNaNag143
aNaNaNaNaNaNaNaNaNag144
aNaNaI9
tp2580
a(g2464
g2554
(lp2581
NaNaNaNaNaNaNaNaNaNag143
aNaNaNaNaNaNaNaNag144
aNaNaI9
tp2582
a(g2464
g2554
(lp2583
NaNaNaNaNaNaNaNaNaNaNaNaNag143
aNaNaNaNaNag144
aNaNaI9
tp2584
a((lp2585
g3
(g4
g5
NtRp2586
(dp2587
g8
V KING YAO GRADUATED FROM STUYVESANT HIGH SCHOOL IN NEW YORK , NY IN 1989 .
p2588
sg10
VROOT
p2589
sg12
Nsg13
Nsbag3
(g4
g5
NtRp2590
(dp2591
g8
V KING YAO GRADUATED FROM STUYVESANT HIGH SCHOOL IN NEW YORK , NY IN 1989 .
p2592
sg10
VS
sg12
I0
sg13
Nsbag3
(g4
g5
NtRp2593
(dp2594
g8
VKING
p2595
sg10
VNP
p2596
sg12
I1
sg13
Nsbag3
(g4
g5
NtRp2597
(dp2598
g8
g2595
sg10
VNNP
p2599
sg12
I2
sg13
Nsbag3
(g4
g5
NtRp2600
(dp2601
g8
S'YAO'
p2602
sg10
VNNP
p2603
sg12
I2
sg13
VYAO
p2604
sbag3
(g4
g5
NtRp2605
(dp2606
g8
S'GRADUATE'
p2607
sg10
VVP
p2608
sg12
I1
sg13
Nsbag3
(g4
g5
NtRp2609
(dp2610
g8
g2607
sg10
VVBD
p2611
sg12
I5
sg13
VGRADUATED
p2612
sbag3
(g4
g5
NtRp2613
(dp2614
g8
S'FROM'
p2615
sg10
VPP
p2616
sg12
I5
sg13
Nsbag3
(g4
g5
NtRp2617
(dp2618
g8
g2615
sg10
VIN
p2619
sg12
I7
sg13
VFROM
p2620
sbag3
(g4
g5
NtRp2621
(dp2622
g8
S'STUYVESANT'
p2623
sg10
VNP
p2624
sg12
I7
sg13
Nsbag3
(g4
g5
NtRp2625
(dp2626
g8
g2623
sg10
VNP
p2627
sg12
I9
sg13
Nsbag3
(g4
g5
NtRp2628
(dp2629
g8
g2623
sg10
VNNP
p2630
sg12
I10
sg13
VSTUYVESANT
p2631
sbag3
(g4
g5
NtRp2632
(dp2633
g8
S'HIGH'
p2634
sg10
VNNP
p2635
sg12
I10
sg13
VHIGH
p2636
sbag3
(g4
g5
NtRp2637
(dp2638
g8
S'SCHOOL'
p2639
sg10
VNNP
p2640
sg12
I10
sg13
VSCHOOL
p2641
sbag3
(g4
g5
NtRp2642
(dp2643
g8
S'IN'
p2644
sg10
VPP
p2645
sg12
I9
sg13
Nsbag3
(g4
g5
NtRp2646
(dp2647
g8
g2644
sg10
VIN
p2648
sg12
I14
sg13
VIN
p2649
sbag3
(g4
g5
NtRp2650
(dp2651
g8
S'NEW'
p2652
sg10
VNP
p2653
sg12
I14
sg13
Nsbag3
(g4
g5
NtRp2654
(dp2655
g8
g2652
sg10
VNP
p2656
sg12
I16
sg13
Nsbag3
(g4
g5
NtRp2657
(dp2658
g8
g2652
sg10
VNNP
p2659
sg12
I17
sg13
VNEW
p2660
sbag3
(g4
g5
NtRp2661
(dp2662
g8
S'YORK'
p2663
sg10
VNNP
p2664
sg12
I17
sg13
VYORK
p2665
sbag3
(g4
g5
NtRp2666
(dp2667
g8
S','
sg10
V,
sg12
I16
sg13
V,
sbag3
(g4
g5
NtRp2668
(dp2669
g8
S'NY'
p2670
sg10
VNP
p2671
sg12
I16
sg13
VNY
p2672
sbag3
(g4
g5
NtRp2673
(dp2674
g8
g2670
sg10
VNNP
p2675
sg12
I21
sg13
VNY
p2676
sbag3
(g4
g5
NtRp2677
(dp2678
g8
g2644
sg10
VPP
p2679
sg12
I5
sg13
Nsbag3
(g4
g5
NtRp2680
(dp2681
g8
g2644
sg10
VIN
p2682
sg12
I23
sg13
VIN
p2683
sbag3
(g4
g5
NtRp2684
(dp2685
g8
S'1989'
p2686
sg10
VNP
p2687
sg12
I23
sg13
V1989
p2688
sbag3
(g4
g5
NtRp2689
(dp2690
g8
g2686
sg10
VCD
p2691
sg12
I25
sg13
V1989
p2692
sbag3
(g4
g5
NtRp2693
(dp2694
g8
S'.'
sg10
V.
sg12
I1
sg13
V.
sba(lp2695
(lp2696
I1
aa(lp2697
I2
aI5
aI27
aa(lp2698
I3
aI4
aa(lp2699
a(lp2700
a(lp2701
I6
aI7
aI23
aa(lp2702
a(lp2703
I8
aI9
aa(lp2704
a(lp2705
I10
aI14
aa(lp2706
I11
aI12
aI13
aa(lp2707
a(lp2708
a(lp2709
a(lp2710
I15
aI16
aa(lp2711
a(lp2712
I17
aI20
aI21
aa(lp2713
I18
aI19
aa(lp2714
a(lp2715
a(lp2716
a(lp2717
I22
aa(lp2718
a(lp2719
I24
aI25
aa(lp2720
a(lp2721
I26
aa(lp2722
a(lp2723
a(lp2724
NaNag143
aNaNaNaNaNaNaNaNag144
aNaNaNaNaNaNaNaNaNaNaNaNaNaNaNaNaI1
tp2725
a(g2585
g2695
(lp2726
NaNaNaNaNaNaNaNaNag143
aNag144
aNaNaNaNaNaNaNaNaNaNaNaNaNaNaNaNaI9
tp2727
a(g2585
g2695
(lp2728
NaNaNaNaNaNaNaNaNaNaNag144
aNaNaNaNag143
aNaNaNaNaNaNaNaNaNaNaNaI9
tp2729
a(g2585
g2695
(lp2730
NaNaNaNaNaNaNaNaNaNaNag144
aNaNaNaNaNag143
aNaNaNaNaNaNaNaNaNaNaI9
tp2731
a(g2585
g2695
(lp2732
NaNaNaNaNaNaNaNaNaNaNag144
aNaNaNaNaNaNaNaNaNag143
aNaNaNaNaNaNaI9
tp2733
a(g2585
g2695
(lp2734
NaNaNaNaNaNaNaNaNaNaNag144
aNaNaNaNaNaNaNaNaNaNaNaNaNag143
aNaNaI5
tp2735
a((lp2736
g3
(g4
g5
NtRp2737
(dp2738
g8
V BEN CAYENNE GRADUATED FROM THE UNIVERSITY OF CAMBRIDGE IN ENGLAND .
p2739
sg10
VROOT
p2740
sg12
Nsg13
Nsbag3
(g4
g5
NtRp2741
(dp2742
g8
V BEN CAYENNE GRADUATED FROM THE UNIVERSITY OF CAMBRIDGE IN ENGLAND .
p2743
sg10
VS
sg12
I0
sg13
Nsbag3
(g4
g5
NtRp2744
(dp2745
g8
VBEN
p2746
sg10
VNP
p2747
sg12
I1
sg13
Nsbag3
(g4
g5
NtRp2748
(dp2749
g8
g2746
sg10
VNNP
p2750
sg12
I2
sg13
Nsbag3
(g4
g5
NtRp2751
(dp2752
g8
S'CAYENNE'
p2753
sg10
VNNP
p2754
sg12
I2
sg13
VCAYENNE
p2755
sbag3
(g4
g5
NtRp2756
(dp2757
g8
S'GRADUATE'
p2758
sg10
VVP
p2759
sg12
I1
sg13
Nsbag3
(g4
g5
NtRp2760
(dp2761
g8
g2758
sg10
VVBD
p2762
sg12
I5
sg13
VGRADUATED
p2763
sbag3
(g4
g5
NtRp2764
(dp2765
g8
S'FROM'
p2766
sg10
VPP
p2767
sg12
I5
sg13
Nsbag3
(g4
g5
NtRp2768
(dp2769
g8
g2766
sg10
VIN
p2770
sg12
I7
sg13
VFROM
p2771
sbag3
(g4
g5
NtRp2772
(dp2773
g8
S'UNIVERSITY'
p2774
sg10
VNP
p2775
sg12
I7
sg13
Nsbag3
(g4
g5
NtRp2776
(dp2777
g8
g2774
sg10
VNP
p2778
sg12
I9
sg13
Nsbag3
(g4
g5
NtRp2779
(dp2780
g8
S'THE'
p2781
sg10
VDT
p2782
sg12
I10
sg13
VTHE
p2783
sbag3
(g4
g5
NtRp2784
(dp2785
g8
g2774
sg10
VNNP
p2786
sg12
I10
sg13
VUNIVERSITY
p2787
sbag3
(g4
g5
NtRp2788
(dp2789
g8
S'OF'
p2790
sg10
VPP
p2791
sg12
I9
sg13
Nsbag3
(g4
g5
NtRp2792
(dp2793
g8
g2790
sg10
VIN
p2794
sg12
I13
sg13
VOF
p2795
sbag3
(g4
g5
NtRp2796
(dp2797
g8
S'CAMBRIDGE'
p2798
sg10
VNP
p2799
sg12
I13
sg13
VCAMBRIDGE
p2800
sbag3
(g4
g5
NtRp2801
(dp2802
g8
g2798
sg10
VNNP
p2803
sg12
I15
sg13
VCAMBRIDGE
p2804
sbag3
(g4
g5
NtRp2805
(dp2806
g8
S'IN'
p2807
sg10
VPP
p2808
sg12
I5
sg13
Nsbag3
(g4
g5
NtRp2809
(dp2810
g8
g2807
sg10
VIN
p2811
sg12
I17
sg13
VIN
p2812
sbag3
(g4
g5
NtRp2813
(dp2814
g8
S'ENGLAND'
p2815
sg10
VNP
p2816
sg12
I17
sg13
VENGLAND
p2817
sbag3
(g4
g5
NtRp2818
(dp2819
g8
g2815
sg10
VNNP
p2820
sg12
I19
sg13
VENGLAND
p2821
sbag3
(g4
g5
NtRp2822
(dp2823
g8
S'.'
sg10
V.
sg12
I1
sg13
V.
sba(lp2824
(lp2825
I1
aa(lp2826
I2
aI5
aI21
aa(lp2827
I3
aI4
aa(lp2828
a(lp2829
a(lp2830
I6
aI7
aI17
aa(lp2831
a(lp2832
I8
aI9
aa(lp2833
a(lp2834
I10
aI13
aa(lp2835
I11
aI12
aa(lp2836
a(lp2837
a(lp2838
I14
aI15
aa(lp2839
a(lp2840
I16
aa(lp2841
a(lp2842
I18
aI19
aa(lp2843
a(lp2844
I20
aa(lp2845
a(lp2846
a(lp2847
NaNag143
aNaNaNaNaNaNaNaNaNag144
aNaNaNaNaNaNaNaNaNaI1
tp2848
a(g2736
g2824
(lp2849
NaNaNaNaNaNaNaNaNag143
aNaNag144
aNaNaNaNaNaNaNaNaNaI9
tp2850
a(g2736
g2824
(lp2851
NaNaNaNaNaNaNaNaNaNaNaNag144
aNaNaNaNaNaNag143
aNaNaI5
tp2852
a((lp2853
g3
(g4
g5
NtRp2854
(dp2855
g8
V BILL THOM ATTENDED MARIAN CATHOLIC HIGH SCHOOL IN SAN DIEGO , CALIFORNIA .
p2856
sg10
VROOT
p2857
sg12
Nsg13
Nsbag3
(g4
g5
NtRp2858
(dp2859
g8
V BILL THOM ATTENDED MARIAN CATHOLIC HIGH SCHOOL IN SAN DIEGO , CALIFORNIA .
p2860
sg10
VS
sg12
I0
sg13
Nsbag3
(g4
g5
NtRp2861
(dp2862
g8
VBILL
p2863
sg10
VNP
p2864
sg12
I1
sg13
Nsbag3
(g4
g5
NtRp2865
(dp2866
g8
g2863
sg10
VNNP
p2867
sg12
I2
sg13
Nsbag3
(g4
g5
NtRp2868
(dp2869
g8
S'THOM'
p2870
sg10
VNNP
p2871
sg12
I2
sg13
VTHOM
p2872
sbag3
(g4
g5
NtRp2873
(dp2874
g8
S'ATTEND'
p2875
sg10
VVP
p2876
sg12
I1
sg13
Nsbag3
(g4
g5
NtRp2877
(dp2878
g8
g2875
sg10
VVBD
p2879
sg12
I5
sg13
VATTENDED
p2880
sbag3
(g4
g5
NtRp2881
(dp2882
g8
S'MARIAN'
p2883
sg10
VNP
p2884
sg12
I5
sg13
Nsbag3
(g4
g5
NtRp2885
(dp2886
g8
g2883
sg10
VNP
p2887
sg12
I7
sg13
Nsbag3
(g4
g5
NtRp2888
(dp2889
g8
g2883
sg10
VNNP
p2890
sg12
I8
sg13
VMARIAN
p2891
sbag3
(g4
g5
NtRp2892
(dp2893
g8
S'CATHOLIC'
p2894
sg10
VNNP
p2895
sg12
I8
sg13
VCATHOLIC
p2896
sbag3
(g4
g5
NtRp2897
(dp2898
g8
S'HIGH'
p2899
sg10
VNNP
p2900
sg12
I8
sg13
VHIGH
p2901
sbag3
(g4
g5
NtRp2902
(dp2903
g8
S'SCHOOL'
p2904
sg10
VNNP
p2905
sg12
I8
sg13
VSCHOOL
p2906
sbag3
(g4
g5
NtRp2907
(dp2908
g8
S'IN'
p2909
sg10
VPP
p2910
sg12
I7
sg13
Nsbag3
(g4
g5
NtRp2911
(dp2912
g8
g2909
sg10
VIN
p2913
sg12
I13
sg13
VIN
p2914
sbag3
(g4
g5
NtRp2915
(dp2916
g8
S'SAN'
p2917
sg10
VNP
p2918
sg12
I13
sg13
Nsbag3
(g4
g5
NtRp2919
(dp2920
g8
g2917
sg10
VNP
p2921
sg12
I15
sg13
Nsbag3
(g4
g5
NtRp2922
(dp2923
g8
g2917
sg10
VNNP
p2924
sg12
I16
sg13
VSAN
p2925
sbag3
(g4
g5
NtRp2926
(dp2927
g8
S'DIEGO'
p2928
sg10
VNNP
p2929
sg12
I16
sg13
VDIEGO
p2930
sbag3
(g4
g5
NtRp2931
(dp2932
g8
S','
sg10
V,
sg12
I15
sg13
V,
sbag3
(g4
g5
NtRp2933
(dp2934
g8
S'CALIFORNIA'
p2935
sg10
VNP
p2936
sg12
I15
sg13
VCALIFORNIA
p2937
sbag3
(g4
g5
NtRp2938
(dp2939
g8
g2935
sg10
VNNP
p2940
sg12
I20
sg13
VCALIFORNIA
p2941
sbag3
(g4
g5
NtRp2942
(dp2943
g8
S'.'
sg10
V.
sg12
I1
sg13
V.
sba(lp2944
(lp2945
I1
aa(lp2946
I2
aI5
aI22
aa(lp2947
I3
aI4
aa(lp2948
a(lp2949
a(lp2950
I6
aI7
aa(lp2951
a(lp2952
I8
aI13
aa(lp2953
I9
aI10
aI11
aI12
aa(lp2954
a(lp2955
a(lp2956
a(lp2957
a(lp2958
I14
aI15
aa(lp2959
a(lp2960
I16
aI19
aI20
aa(lp2961
I17
aI18
aa(lp2962
a(lp2963
a(lp2964
a(lp2965
I21
aa(lp2966
a(lp2967
a(lp2968
NaNag143
aNaNaNaNaNaNag144
aNaNaNaNaNaNaNaNaNaNaNaNaNaI1
tp2969
a(g2853
g2944
(lp2970
NaNaNaNaNaNaNag143
aNag144
aNaNaNaNaNaNaNaNaNaNaNaNaNaI7
tp2971
a(g2853
g2944
(lp2972
NaNaNaNaNaNaNaNaNag144
aNaNaNaNaNag143
aNaNaNaNaNaNaNaI7
tp2973
a(g2853
g2944
(lp2974
NaNaNaNaNaNaNaNaNag144
aNaNaNaNaNaNag143
aNaNaNaNaNaNaI7
tp2975
a(g2853
g2944
(lp2976
NaNaNaNaNaNaNaNaNag144
aNaNaNaNaNaNaNaNaNaNag143
aNaNaI7
tp2977
a((lp2978
g3
(g4
g5
NtRp2979
(dp2980
g8
V IN 1872 JOHANN DZIERZON RECEIVED AN HONORARY DOCTORATE FROM THE UNIVERSITY OF MUNICH .
p2981
sg10
VROOT
p2982
sg12
Nsg13
Nsbag3
(g4
g5
NtRp2983
(dp2984
g8
V IN 1872 JOHANN DZIERZON RECEIVED AN HONORARY DOCTORATE FROM THE UNIVERSITY OF MUNICH .
p2985
sg10
VS
sg12
I0
sg13
Nsbag3
(g4
g5
NtRp2986
(dp2987
g8
VIN
p2988
sg10
VPP
p2989
sg12
I1
sg13
Nsbag3
(g4
g5
NtRp2990
(dp2991
g8
g2988
sg10
VIN
p2992
sg12
I2
sg13
Nsbag3
(g4
g5
NtRp2993
(dp2994
g8
S'1872'
p2995
sg10
VNP
p2996
sg12
I2
sg13
V1872
p2997
sbag3
(g4
g5
NtRp2998
(dp2999
g8
g2995
sg10
VCD
p3000
sg12
I4
sg13
V1872
p3001
sbag3
(g4
g5
NtRp3002
(dp3003
g8
S'JOHANN'
p3004
sg10
VNP
p3005
sg12
I1
sg13
Nsbag3
(g4
g5
NtRp3006
(dp3007
g8
g3004
sg10
VNNP
p3008
sg12
I6
sg13
VJOHANN
p3009
sbag3
(g4
g5
NtRp3010
(dp3011
g8
S'DZIERZON'
p3012
sg10
VNNP
p3013
sg12
I6
sg13
VDZIERZON
p3014
sbag3
(g4
g5
NtRp3015
(dp3016
g8
S'RECEIVE'
p3017
sg10
VVP
p3018
sg12
I1
sg13
Nsbag3
(g4
g5
NtRp3019
(dp3020
g8
g3017
sg10
VVBD
p3021
sg12
I9
sg13
VRECEIVED
p3022
sbag3
(g4
g5
NtRp3023
(dp3024
g8
S'DOCTORATE'
p3025
sg10
VNP
p3026
sg12
I9
sg13
Nsbag3
(g4
g5
NtRp3027
(dp3028
g8
S'A'
sg10
VDT
p3029
sg12
I11
sg13
VAN
p3030
sbag3
(g4
g5
NtRp3031
(dp3032
g8
S'HONORARY'
p3033
sg10
VJJ
p3034
sg12
I11
sg13
VHONORARY
p3035
sbag3
(g4
g5
NtRp3036
(dp3037
g8
g3025
sg10
VNN
p3038
sg12
I11
sg13
VDOCTORATE
p3039
sbag3
(g4
g5
NtRp3040
(dp3041
g8
S'FROM'
p3042
sg10
VPP
p3043
sg12
I9
sg13
Nsbag3
(g4
g5
NtRp3044
(dp3045
g8
g3042
sg10
VIN
p3046
sg12
I15
sg13
VFROM
p3047
sbag3
(g4
g5
NtRp3048
(dp3049
g8
S'UNIVERSITY'
p3050
sg10
VNP
p3051
sg12
I15
sg13
Nsbag3
(g4
g5
NtRp3052
(dp3053
g8
g3050
sg10
VNP
p3054
sg12
I17
sg13
Nsbag3
(g4
g5
NtRp3055
(dp3056
g8
S'THE'
p3057
sg10
VDT
p3058
sg12
I18
sg13
VTHE
p3059
sbag3
(g4
g5
NtRp3060
(dp3061
g8
g3050
sg10
VNNP
p3062
sg12
I18
sg13
VUNIVERSITY
p3063
sbag3
(g4
g5
NtRp3064
(dp3065
g8
S'OF'
p3066
sg10
VPP
p3067
sg12
I17
sg13
Nsbag3
(g4
g5
NtRp3068
(dp3069
g8
g3066
sg10
VIN
p3070
sg12
I21
sg13
VOF
p3071
sbag3
(g4
g5
NtRp3072
(dp3073
g8
S'MUNICH'
p3074
sg10
VNP
p3075
sg12
I21
sg13
VMUNICH
p3076
sbag3
(g4
g5
NtRp3077
(dp3078
g8
g3074
sg10
VNNP
p3079
sg12
I23
sg13
VMUNICH
p3080
sbag3
(g4
g5
NtRp3081
(dp3082
g8
S'.'
sg10
V.
sg12
I1
sg13
V.
sba(lp3083
(lp3084
I1
aa(lp3085
I2
aI6
aI9
aI25
aa(lp3086
I3
aI4
aa(lp3087
a(lp3088
I5
aa(lp3089
a(lp3090
I7
aI8
aa(lp3091
a(lp3092
a(lp3093
I10
aI11
aI15
aa(lp3094
a(lp3095
I12
aI13
aI14
aa(lp3096
a(lp3097
a(lp3098
a(lp3099
I16
aI17
aa(lp3100
a(lp3101
I18
aI21
aa(lp3102
I19
aI20
aa(lp3103
a(lp3104
a(lp3105
I22
aI23
aa(lp3106
a(lp3107
I24
aa(lp3108
a(lp3109
a(lp3110
NaNaNaNag143
aNaNaNaNaNaNaNaNaNaNaNaNaNaNaNag144
aNaNaNaNaNaI1
tp3111
a(g2978
g3083
(lp3112
NaNaNaNaNaNag143
aNaNaNaNaNaNaNaNaNaNaNaNaNag144
aNaNaNaNaNaI1
tp3113
a(g2978
g3083
(lp3114
NaNaNaNaNaNaNaNaNaNaNag143
aNaNaNaNaNaNaNaNag144
aNaNaNaNaNaI9
tp3115
a(g2978
g3083
(lp3116
NaNaNaNaNaNaNaNaNaNaNaNaNaNag143
aNaNaNaNaNag144
aNaNaNaNaNaI9
tp3117
a(g2978
g3083
(lp3118
NaNaNaNaNaNaNaNaNaNaNaNaNaNaNaNaNag143
aNaNag144
aNaNaNaNaNaI17
tp3119
a((lp3120
g3
(g4
g5
NtRp3121
(dp3122
g8
V PLUNKET WAS EDUCATED AT ETON COLLEGE AND SERVED IN THE ARMY .
p3123
sg10
VROOT
p3124
sg12
Nsg13
Nsbag3
(g4
g5
NtRp3125
(dp3126
g8
V PLUNKET WAS EDUCATED AT ETON COLLEGE AND SERVED IN THE ARMY .
p3127
sg10
VS
sg12
I0
sg13
Nsbag3
(g4
g5
NtRp3128
(dp3129
g8
VPLUNKET
p3130
sg10
VNP
p3131
sg12
I1
sg13
Nsbag3
(g4
g5
NtRp3132
(dp3133
g8
g3130
sg10
VNNP
p3134
sg12
I2
sg13
Nsbag3
(g4
g5
NtRp3135
(dp3136
g8
S'BE'
p3137
sg10
VVP
p3138
sg12
I1
sg13
Nsbag3
(g4
g5
NtRp3139
(dp3140
g8
g3137
sg10
VVP
p3141
sg12
I4
sg13
Nsbag3
(g4
g5
NtRp3142
(dp3143
g8
g3137
sg10
VVBD
p3144
sg12
I5
sg13
VWAS
p3145
sbag3
(g4
g5
NtRp3146
(dp3147
g8
S'EDUCATE'
p3148
sg10
VVP
p3149
sg12
I5
sg13
Nsbag3
(g4
g5
NtRp3150
(dp3151
g8
g3148
sg10
VVBN
p3152
sg12
I7
sg13
VEDUCATED
p3153
sbag3
(g4
g5
NtRp3154
(dp3155
g8
S'AT'
p3156
sg10
VPP
p3157
sg12
I7
sg13
Nsbag3
(g4
g5
NtRp3158
(dp3159
g8
g3156
sg10
VIN
p3160
sg12
I9
sg13
VAT
p3161
sbag3
(g4
g5
NtRp3162
(dp3163
g8
S'ETON'
p3164
sg10
VNP
p3165
sg12
I9
sg13
Nsbag3
(g4
g5
NtRp3166
(dp3167
g8
g3164
sg10
VNNP
p3168
sg12
I11
sg13
VETON
p3169
sbag3
(g4
g5
NtRp3170
(dp3171
g8
S'COLLEGE'
p3172
sg10
VNNP
p3173
sg12
I11
sg13
VCOLLEGE
p3174
sbag3
(g4
g5
NtRp3175
(dp3176
g8
S'AND'
p3177
sg10
VCC
p3178
sg12
I4
sg13
VAND
p3179
sbag3
(g4
g5
NtRp3180
(dp3181
g8
S'SERVE'
p3182
sg10
VVP
p3183
sg12
I4
sg13
Nsbag3
(g4
g5
NtRp3184
(dp3185
g8
g3182
sg10
VVBD
p3186
sg12
I15
sg13
VSERVED
p3187
sbag3
(g4
g5
NtRp3188
(dp3189
g8
S'IN'
p3190
sg10
VPP
p3191
sg12
I15
sg13
Nsbag3
(g4
g5
NtRp3192
(dp3193
g8
g3190
sg10
VIN
p3194
sg12
I17
sg13
VIN
p3195
sbag3
(g4
g5
NtRp3196
(dp3197
g8
S'ARMY'
p3198
sg10
VNP
p3199
sg12
I17
sg13
Nsbag3
(g4
g5
NtRp3200
(dp3201
g8
S'THE'
p3202
sg10
VDT
p3203
sg12
I19
sg13
VTHE
p3204
sbag3
(g4
g5
NtRp3205
(dp3206
g8
g3198
sg10
VNNP
p3207
sg12
I19
sg13
VARMY
p3208
sbag3
(g4
g5
NtRp3209
(dp3210
g8
S'.'
sg10
V.
sg12
I1
sg13
V.
sba(lp3211
(lp3212
I1
aa(lp3213
I2
aI4
aI22
aa(lp3214
I3
aa(lp3215
a(lp3216
I5
aI14
aI15
aa(lp3217
I6
aI7
aa(lp3218
a(lp3219
I8
aI9
aa(lp3220
a(lp3221
I10
aI11
aa(lp3222
a(lp3223
I12
aI13
aa(lp3224
a(lp3225
a(lp3226
a(lp3227
I16
aI17
aa(lp3228
a(lp3229
I18
aI19
aa(lp3230
a(lp3231
I20
aI21
aa(lp3232
a(lp3233
a(lp3234
a(lp3235
NaNag143
aNaNaNaNaNaNaNaNaNag144
aNaNaNaNaNaNaNaNaNaNaI1
tp3236
a(g3120
g3211
(lp3237
NaNag143
aNaNaNaNaNaNaNaNaNaNaNaNaNaNaNaNaNaNag144
aNaI1
tp3238
a((lp3239
g3
(g4
g5
NtRp3240
(dp3241
g8
V GAIL GALLOWAY ADAMS TAUGHT AT WEST VIRGINIA UNIVERSITY , RETIRING IN 2008 .
p3242
sg10
VROOT
p3243
sg12
Nsg13
Nsbag3
(g4
g5
NtRp3244
(dp3245
g8
V GAIL GALLOWAY ADAMS TAUGHT AT WEST VIRGINIA UNIVERSITY , RETIRING IN 2008 .
p3246
sg10
VS
sg12
I0
sg13
Nsbag3
(g4
g5
NtRp3247
(dp3248
g8
VGAIL
p3249
sg10
VNP
p3250
sg12
I1
sg13
Nsbag3
(g4
g5
NtRp3251
(dp3252
g8
g3249
sg10
VNN
p3253
sg12
I2
sg13
Nsbag3
(g4
g5
NtRp3254
(dp3255
g8
S'GALLOWAY'
p3256
sg10
VNNP
p3257
sg12
I2
sg13
VGALLOWAY
p3258
sbag3
(g4
g5
NtRp3259
(dp3260
g8
S'ADAMS'
p3261
sg10
VNNP
p3262
sg12
I2
sg13
VADAMS
p3263
sbag3
(g4
g5
NtRp3264
(dp3265
g8
S'TEACH'
p3266
sg10
VVP
p3267
sg12
I1
sg13
Nsbag3
(g4
g5
NtRp3268
(dp3269
g8
g3266
sg10
VVBD
p3270
sg12
I6
sg13
VTAUGHT
p3271
sbag3
(g4
g5
NtRp3272
(dp3273
g8
S'AT'
p3274
sg10
VPP
p3275
sg12
I6
sg13
Nsbag3
(g4
g5
NtRp3276
(dp3277
g8
g3274
sg10
VIN
p3278
sg12
I8
sg13
VAT
p3279
sbag3
(g4
g5
NtRp3280
(dp3281
g8
S'WEST'
p3282
sg10
VNP
p3283
sg12
I8
sg13
Nsbag3
(g4
g5
NtRp3284
(dp3285
g8
g3282
sg10
VNNP
p3286
sg12
I10
sg13
VWEST
p3287
sbag3
(g4
g5
NtRp3288
(dp3289
g8
S'VIRGINIA'
p3290
sg10
VNNP
p3291
sg12
I10
sg13
VVIRGINIA
p3292
sbag3
(g4
g5
NtRp3293
(dp3294
g8
S'UNIVERSITY'
p3295
sg10
VNNP
p3296
sg12
I10
sg13
VUNIVERSITY
p3297
sbag3
(g4
g5
NtRp3298
(dp3299
g8
S','
sg10
V,
sg12
I6
sg13
V,
sbag3
(g4
g5
NtRp3300
(dp3301
g8
S'RETIRE'
p3302
sg10
VS
sg12
I6
sg13
Nsbag3
(g4
g5
NtRp3303
(dp3304
g8
g3302
sg10
VVP
p3305
sg12
I15
sg13
Nsbag3
(g4
g5
NtRp3306
(dp3307
g8
g3302
sg10
VVBG
p3308
sg12
I16
sg13
VRETIRING
p3309
sbag3
(g4
g5
NtRp3310
(dp3311
g8
S'IN'
p3312
sg10
VPP
p3313
sg12
I16
sg13
Nsbag3
(g4
g5
NtRp3314
(dp3315
g8
g3312
sg10
VIN
p3316
sg12
I18
sg13
VIN
p3317
sbag3
(g4
g5
NtRp3318
(dp3319
g8
S'2008'
p3320
sg10
VNP
p3321
sg12
I18
sg13
V2008
p3322
sbag3
(g4
g5
NtRp3323
(dp3324
g8
g3320
sg10
VCD
p3325
sg12
I20
sg13
V2008
p3326
sbag3
(g4
g5
NtRp3327
(dp3328
g8
S'.'
sg10
V.
sg12
I1
sg13
V.
sba(lp3329
(lp3330
I1
aa(lp3331
I2
aI6
aI22
aa(lp3332
I3
aI4
aI5
aa(lp3333
a(lp3334
a(lp3335
a(lp3336
I7
aI8
aI14
aI15
aa(lp3337
a(lp3338
I9
aI10
aa(lp3339
a(lp3340
I11
aI12
aI13
aa(lp3341
a(lp3342
a(lp3343
a(lp3344
a(lp3345
I16
aa(lp3346
I17
aI18
aa(lp3347
a(lp3348
I19
aI20
aa(lp3349
a(lp3350
I21
aa(lp3351
a(lp3352
a(lp3353
NaNag143
aNaNaNaNaNaNaNaNag144
aNaNaNaNaNaNaNaNaNaNaNaI1
tp3354
a(g3239
g3329
(lp3355
NaNaNag143
aNaNaNaNaNaNaNag144
aNaNaNaNaNaNaNaNaNaNaNaI1
tp3356
a(g3239
g3329
(lp3357
NaNaNaNaNaNaNaNaNaNaNag144
aNaNaNaNaNaNaNaNag143
aNaNaI6
tp3358
a((lp3359
g3
(g4
g5
NtRp3360
(dp3361
g8
V IN 1986 , GARY A. ROBBINS BEGAN HIS CAREER AT THE UNIVERSITY OF CONNECTICUT .
p3362
sg10
VROOT
p3363
sg12
Nsg13
Nsbag3
(g4
g5
NtRp3364
(dp3365
g8
V IN 1986 , GARY A. ROBBINS BEGAN HIS CAREER AT THE UNIVERSITY OF CONNECTICUT .
p3366
sg10
VS
sg12
I0
sg13
Nsbag3
(g4
g5
NtRp3367
(dp3368
g8
VIN
p3369
sg10
VPP
p3370
sg12
I1
sg13
Nsbag3
(g4
g5
NtRp3371
(dp3372
g8
g3369
sg10
VIN
p3373
sg12
I2
sg13
Nsbag3
(g4
g5
NtRp3374
(dp3375
g8
S'1986'
p3376
sg10
VNP
p3377
sg12
I2
sg13
V1986
p3378
sbag3
(g4
g5
NtRp3379
(dp3380
g8
g3376
sg10
VCD
p3381
sg12
I4
sg13
V1986
p3382
sbag3
(g4
g5
NtRp3383
(dp3384
g8
S','
sg10
V,
sg12
I1
sg13
V,
sbag3
(g4
g5
NtRp3385
(dp3386
g8
S'GARY'
p3387
sg10
VNP
p3388
sg12
I1
sg13
Nsbag3
(g4
g5
NtRp3389
(dp3390
g8
g3387
sg10
VNNP
p3391
sg12
I7
sg13
VGARY
p3392
sbag3
(g4
g5
NtRp3393
(dp3394
g8
S'A.'
p3395
sg10
VNNP
p3396
sg12
I7
sg13
VA.
p3397
sbag3
(g4
g5
NtRp3398
(dp3399
g8
S'ROBBINS'
p3400
sg10
VNNP
p3401
sg12
I7
sg13
VROBBINS
p3402
sbag3
(g4
g5
NtRp3403
(dp3404
g8
S'BEGIN'
p3405
sg10
VVP
p3406
sg12
I1
sg13
Nsbag3
(g4
g5
NtRp3407
(dp3408
g8
g3405
sg10
VVBD
p3409
sg12
I11
sg13
VBEGAN
p3410
sbag3
(g4
g5
NtRp3411
(dp3412
g8
S'CAREER'
p3413
sg10
VNP
p3414
sg12
I11
sg13
Nsbag3
(g4
g5
NtRp3415
(dp3416
g8
S'HE'
p3417
sg10
VPRP$
p3418
sg12
I13
sg13
VHIS
p3419
sbag3
(g4
g5
NtRp3420
(dp3421
g8
g3413
sg10
VNN
p3422
sg12
I13
sg13
VCAREER
p3423
sbag3
(g4
g5
NtRp3424
(dp3425
g8
S'AT'
p3426
sg10
VPP
p3427
sg12
I11
sg13
Nsbag3
(g4
g5
NtRp3428
(dp3429
g8
g3426
sg10
VIN
p3430
sg12
I16
sg13
VAT
p3431
sbag3
(g4
g5
NtRp3432
(dp3433
g8
S'UNIVERSITY'
p3434
sg10
VNP
p3435
sg12
I16
sg13
Nsbag3
(g4
g5
NtRp3436
(dp3437
g8
g3434
sg10
VNP
p3438
sg12
I18
sg13
Nsbag3
(g4
g5
NtRp3439
(dp3440
g8
S'THE'
p3441
sg10
VDT
p3442
sg12
I19
sg13
VTHE
p3443
sbag3
(g4
g5
NtRp3444
(dp3445
g8
g3434
sg10
VNNP
p3446
sg12
I19
sg13
VUNIVERSITY
p3447
sbag3
(g4
g5
NtRp3448
(dp3449
g8
S'OF'
p3450
sg10
VPP
p3451
sg12
I18
sg13
Nsbag3
(g4
g5
NtRp3452
(dp3453
g8
g3450
sg10
VIN
p3454
sg12
I22
sg13
VOF
p3455
sbag3
(g4
g5
NtRp3456
(dp3457
g8
S'CONNECTICUT'
p3458
sg10
VNP
p3459
sg12
I22
sg13
VCONNECTICUT
p3460
sbag3
(g4
g5
NtRp3461
(dp3462
g8
g3458
sg10
VNNP
p3463
sg12
I24
sg13
VCONNECTICUT
p3464
sbag3
(g4
g5
NtRp3465
(dp3466
g8
S'.'
sg10
V.
sg12
I1
sg13
V.
sba(lp3467
(lp3468
I1
aa(lp3469
I2
aI6
aI7
aI11
aI26
aa(lp3470
I3
aI4
aa(lp3471
a(lp3472
I5
aa(lp3473
a(lp3474
a(lp3475
I8
aI9
aI10
aa(lp3476
a(lp3477
a(lp3478
a(lp3479
I12
aI13
aI16
aa(lp3480
a(lp3481
I14
aI15
aa(lp3482
a(lp3483
a(lp3484
I17
aI18
aa(lp3485
a(lp3486
I19
aI22
aa(lp3487
I20
aI21
aa(lp3488
a(lp3489
a(lp3490
I23
aI24
aa(lp3491
a(lp3492
I25
aa(lp3493
a(lp3494
a(lp3495
NaNaNaNag143
aNaNaNaNaNaNaNaNaNaNaNaNaNaNaNaNag144
aNaNaNaNaNaI1
tp3496
a(g3359
g3467
(lp3497
NaNaNaNaNaNaNag143
aNaNaNaNaNaNaNaNaNaNaNaNaNag144
aNaNaNaNaNaI1
tp3498
a(g3359
g3467
(lp3499
NaNaNaNaNaNaNaNaNaNaNaNaNag143
aNaNaNaNaNaNaNag144
aNaNaNaNaNaI11
tp3500
a(g3359
g3467
(lp3501
NaNaNaNaNaNaNaNaNaNaNaNaNaNaNag143
aNaNaNaNaNag144
aNaNaNaNaNaI11
tp3502
a(g3359
g3467
(lp3503
NaNaNaNaNaNaNaNaNaNaNaNaNaNaNaNaNaNag143
aNaNag144
aNaNaNaNaNaI18
tp3504
a((lp3505
g3
(g4
g5
NtRp3506
(dp3507
g8
V MARTIN MIDDLEBROOK ENTERED NATIONAL SERVICE IN 1950 .
p3508
sg10
VROOT
p3509
sg12
Nsg13
Nsbag3
(g4
g5
NtRp3510
(dp3511
g8
V MARTIN MIDDLEBROOK ENTERED NATIONAL SERVICE IN 1950 .
p3512
sg10
VS
sg12
I0
sg13
Nsbag3
(g4
g5
NtRp3513
(dp3514
g8
VMARTIN
p3515
sg10
VNP
p3516
sg12
I1
sg13
Nsbag3
(g4
g5
NtRp3517
(dp3518
g8
g3515
sg10
VNNP
p3519
sg12
I2
sg13
Nsbag3
(g4
g5
NtRp3520
(dp3521
g8
S'MIDDLEBROOK'
p3522
sg10
VNNP
p3523
sg12
I2
sg13
VMIDDLEBROOK
p3524
sbag3
(g4
g5
NtRp3525
(dp3526
g8
S'ENTER'
p3527
sg10
VVP
p3528
sg12
I1
sg13
Nsbag3
(g4
g5
NtRp3529
(dp3530
g8
g3527
sg10
VVBD
p3531
sg12
I5
sg13
VENTERED
p3532
sbag3
(g4
g5
NtRp3533
(dp3534
g8
S'NATIONAL'
p3535
sg10
VNP
p3536
sg12
I5
sg13
Nsbag3
(g4
g5
NtRp3537
(dp3538
g8
g3535
sg10
VNP
p3539
sg12
I7
sg13
Nsbag3
(g4
g5
NtRp3540
(dp3541
g8
g3535
sg10
VNNP
p3542
sg12
I8
sg13
VNATIONAL
p3543
sbag3
(g4
g5
NtRp3544
(dp3545
g8
S'SERVICE'
p3546
sg10
VNNP
p3547
sg12
I8
sg13
VSERVICE
p3548
sbag3
(g4
g5
NtRp3549
(dp3550
g8
S'IN'
p3551
sg10
VPP
p3552
sg12
I7
sg13
Nsbag3
(g4
g5
NtRp3553
(dp3554
g8
g3551
sg10
VIN
p3555
sg12
I11
sg13
VIN
p3556
sbag3
(g4
g5
NtRp3557
(dp3558
g8
S'1950'
p3559
sg10
VNP
p3560
sg12
I11
sg13
V1950
p3561
sbag3
(g4
g5
NtRp3562
(dp3563
g8
g3559
sg10
VCD
p3564
sg12
I13
sg13
V1950
p3565
sbag3
(g4
g5
NtRp3566
(dp3567
g8
S'.'
sg10
V.
sg12
I1
sg13
V.
sba(lp3568
(lp3569
I1
aa(lp3570
I2
aI5
aI15
aa(lp3571
I3
aI4
aa(lp3572
a(lp3573
a(lp3574
I6
aI7
aa(lp3575
a(lp3576
I8
aI11
aa(lp3577
I9
aI10
aa(lp3578
a(lp3579
a(lp3580
I12
aI13
aa(lp3581
a(lp3582
I14
aa(lp3583
a(lp3584
a(lp3585
NaNag143
aNaNaNaNaNaNag144
aNaNaNaNaNaNaI1
tp3586
a(g3505
g3568
(lp3587
NaNaNaNaNaNaNag143
aNag144
aNaNaNaNaNaNaI7
tp3588
a(g3505
g3568
(lp3589
NaNaNaNaNaNaNaNaNag144
aNaNaNag143
aNaNaI7
tp3590
a((lp3591
g3
(g4
g5
NtRp3592
(dp3593
g8
V SYDNEY B. MITCHELL RECEIVED AN HONORARY DOCTOR OF LITERATURE DEGREE FROM OCCIDENTAL COLLEGE .
p3594
sg10
VROOT
p3595
sg12
Nsg13
Nsbag3
(g4
g5
NtRp3596
(dp3597
g8
V SYDNEY B. MITCHELL RECEIVED AN HONORARY DOCTOR OF LITERATURE DEGREE FROM OCCIDENTAL COLLEGE .
p3598
sg10
VS
sg12
I0
sg13
Nsbag3
(g4
g5
NtRp3599
(dp3600
g8
VSYDNEY
p3601
sg10
VNP
p3602
sg12
I1
sg13
Nsbag3
(g4
g5
NtRp3603
(dp3604
g8
g3601
sg10
VNNP
p3605
sg12
I2
sg13
Nsbag3
(g4
g5
NtRp3606
(dp3607
g8
S'B.'
p3608
sg10
VNNP
p3609
sg12
I2
sg13
VB.
p3610
sbag3
(g4
g5
NtRp3611
(dp3612
g8
S'MITCHELL'
p3613
sg10
VNNP
p3614
sg12
I2
sg13
VMITCHELL
p3615
sbag3
(g4
g5
NtRp3616
(dp3617
g8
S'RECEIVE'
p3618
sg10
VVP
p3619
sg12
I1
sg13
Nsbag3
(g4
g5
NtRp3620
(dp3621
g8
g3618
sg10
VVBD
p3622
sg12
I6
sg13
VRECEIVED
p3623
sbag3
(g4
g5
NtRp3624
(dp3625
g8
S'DOCTOR'
p3626
sg10
VNP
p3627
sg12
I6
sg13
Nsbag3
(g4
g5
NtRp3628
(dp3629
g8
g3626
sg10
VNP
p3630
sg12
I8
sg13
Nsbag3
(g4
g5
NtRp3631
(dp3632
g8
S'A'
sg10
VDT
p3633
sg12
I9
sg13
VAN
p3634
sbag3
(g4
g5
NtRp3635
(dp3636
g8
S'HONORARY'
p3637
sg10
VJJ
p3638
sg12
I9
sg13
VHONORARY
p3639
sbag3
(g4
g5
NtRp3640
(dp3641
g8
g3626
sg10
VNN
p3642
sg12
I9
sg13
VDOCTOR
p3643
sbag3
(g4
g5
NtRp3644
(dp3645
g8
S'OF'
p3646
sg10
VPP
p3647
sg12
I8
sg13
Nsbag3
(g4
g5
NtRp3648
(dp3649
g8
g3646
sg10
VIN
p3650
sg12
I13
sg13
VOF
p3651
sbag3
(g4
g5
NtRp3652
(dp3653
g8
S'LITERATURE'
p3654
sg10
VNP
p3655
sg12
I13
sg13
Nsbag3
(g4
g5
NtRp3656
(dp3657
g8
g3654
sg10
VNNP
p3658
sg12
I15
sg13
VLITERATURE
p3659
sbag3
(g4
g5
NtRp3660
(dp3661
g8
S'DEGREE'
p3662
sg10
VNN
p3663
sg12
I15
sg13
VDEGREE
p3664
sbag3
(g4
g5
NtRp3665
(dp3666
g8
S'FROM'
p3667
sg10
VPP
p3668
sg12
I6
sg13
Nsbag3
(g4
g5
NtRp3669
(dp3670
g8
g3667
sg10
VIN
p3671
sg12
I18
sg13
VFROM
p3672
sbag3
(g4
g5
NtRp3673
(dp3674
g8
S'OCCIDENTAL'
p3675
sg10
VNP
p3676
sg12
I18
sg13
Nsbag3
(g4
g5
NtRp3677
(dp3678
g8
g3675
sg10
VNNP
p3679
sg12
I20
sg13
VOCCIDENTAL
p3680
sbag3
(g4
g5
NtRp3681
(dp3682
g8
S'COLLEGE'
p3683
sg10
VNNP
p3684
sg12
I20
sg13
VCOLLEGE
p3685
sbag3
(g4
g5
NtRp3686
(dp3687
g8
S'.'
sg10
V.
sg12
I1
sg13
V.
sba(lp3688
(lp3689
I1
aa(lp3690
I2
aI6
aI23
aa(lp3691
I3
aI4
aI5
aa(lp3692
a(lp3693
a(lp3694
a(lp3695
I7
aI8
aI18
aa(lp3696
a(lp3697
I9
aI13
aa(lp3698
I10
aI11
aI12
aa(lp3699
a(lp3700
a(lp3701
a(lp3702
I14
aI15
aa(lp3703
a(lp3704
I16
aI17
aa(lp3705
a(lp3706
a(lp3707
I19
aI20
aa(lp3708
a(lp3709
I21
aI22
aa(lp3710
a(lp3711
a(lp3712
a(lp3713
NaNag143
aNaNaNaNaNaNaNaNaNaNaNaNaNaNaNaNaNaNag144
aNaNaI1
tp3714
a(g3591
g3688
(lp3715
NaNaNaNaNaNaNaNag143
aNaNaNaNaNaNaNaNaNaNaNaNag144
aNaNaI6
tp3716
a(g3591
g3688
(lp3717
NaNaNaNaNaNaNaNaNag143
aNaNaNaNaNaNaNaNaNaNaNag144
aNaNaI6
tp3718
a(g3591
g3688
(lp3719
NaNaNaNaNaNaNaNaNaNaNaNag143
aNaNaNaNaNaNaNaNag144
aNaNaI6
tp3720
a(g3591
g3688
(lp3721
NaNaNaNaNaNaNaNaNaNaNaNaNaNaNag143
aNaNaNaNaNag144
aNaNaI6
tp3722
a(g3591
g3688
(lp3723
NaNaNaNaNaNaNaNaNaNaNaNaNaNaNaNaNag143
aNaNaNag144
aNaNaI6
tp3724
a((lp3725
g3
(g4
g5
NtRp3726
(dp3727
g8
V RUSSELL HOWLAND STUDIED AT THE UNIVERSITY OF ILLINOIS .
p3728
sg10
VROOT
p3729
sg12
Nsg13
Nsbag3
(g4
g5
NtRp3730
(dp3731
g8
V RUSSELL HOWLAND STUDIED AT THE UNIVERSITY OF ILLINOIS .
p3732
sg10
VS
sg12
I0
sg13
Nsbag3
(g4
g5
NtRp3733
(dp3734
g8
VRUSSELL
p3735
sg10
VNP
p3736
sg12
I1
sg13
Nsbag3
(g4
g5
NtRp3737
(dp3738
g8
g3735
sg10
VNNP
p3739
sg12
I2
sg13
Nsbag3
(g4
g5
NtRp3740
(dp3741
g8
S'HOWLAND'
p3742
sg10
VNNP
p3743
sg12
I2
sg13
VHOWLAND
p3744
sbag3
(g4
g5
NtRp3745
(dp3746
g8
S'STUDY'
p3747
sg10
VVP
p3748
sg12
I1
sg13
Nsbag3
(g4
g5
NtRp3749
(dp3750
g8
g3747
sg10
VVBN
p3751
sg12
I5
sg13
VSTUDIED
p3752
sbag3
(g4
g5
NtRp3753
(dp3754
g8
S'AT'
p3755
sg10
VPP
p3756
sg12
I5
sg13
Nsbag3
(g4
g5
NtRp3757
(dp3758
g8
g3755
sg10
VIN
p3759
sg12
I7
sg13
VAT
p3760
sbag3
(g4
g5
NtRp3761
(dp3762
g8
S'UNIVERSITY'
p3763
sg10
VNP
p3764
sg12
I7
sg13
Nsbag3
(g4
g5
NtRp3765
(dp3766
g8
g3763
sg10
VNP
p3767
sg12
I9
sg13
Nsbag3
(g4
g5
NtRp3768
(dp3769
g8
S'THE'
p3770
sg10
VDT
p3771
sg12
I10
sg13
VTHE
p3772
sbag3
(g4
g5
NtRp3773
(dp3774
g8
g3763
sg10
VNNP
p3775
sg12
I10
sg13
VUNIVERSITY
p3776
sbag3
(g4
g5
NtRp3777
(dp3778
g8
S'OF'
p3779
sg10
VPP
p3780
sg12
I9
sg13
Nsbag3
(g4
g5
NtRp3781
(dp3782
g8
g3779
sg10
VIN
p3783
sg12
I13
sg13
VOF
p3784
sbag3
(g4
g5
NtRp3785
(dp3786
g8
S'ILLINOIS'
p3787
sg10
VNP
p3788
sg12
I13
sg13
VILLINOIS
p3789
sbag3
(g4
g5
NtRp3790
(dp3791
g8
g3787
sg10
VNNP
p3792
sg12
I15
sg13
VILLINOIS
p3793
sbag3
(g4
g5
NtRp3794
(dp3795
g8
S'.'
sg10
V.
sg12
I1
sg13
V.
sba(lp3796
(lp3797
I1
aa(lp3798
I2
aI5
aI17
aa(lp3799
I3
aI4
aa(lp3800
a(lp3801
a(lp3802
I6
aI7
aa(lp3803
a(lp3804
I8
aI9
aa(lp3805
a(lp3806
I10
aI13
aa(lp3807
I11
aI12
aa(lp3808
a(lp3809
a(lp3810
I14
aI15
aa(lp3811
a(lp3812
I16
aa(lp3813
a(lp3814
a(lp3815
NaNag143
aNaNaNaNaNaNaNaNaNag144
aNaNaNaNaNaI1
tp3816
a(g3725
g3796
(lp3817
NaNaNaNaNaNaNaNaNag143
aNaNag144
aNaNaNaNaNaI9
tp3818
a((lp3819
g3
(g4
g5
NtRp3820
(dp3821
g8
V KELLY MORGAN ATTENDED LITTLEOVER COMMUNITY SCHOOL IN DERBY .
p3822
sg10
VROOT
p3823
sg12
Nsg13
Nsbag3
(g4
g5
NtRp3824
(dp3825
g8
V KELLY MORGAN ATTENDED LITTLEOVER COMMUNITY SCHOOL IN DERBY .
p3826
sg10
VS
sg12
I0
sg13
Nsbag3
(g4
g5
NtRp3827
(dp3828
g8
VKELLY
p3829
sg10
VNP
p3830
sg12
I1
sg13
Nsbag3
(g4
g5
NtRp3831
(dp3832
g8
g3829
sg10
VNNP
p3833
sg12
I2
sg13
Nsbag3
(g4
g5
NtRp3834
(dp3835
g8
S'MORGAN'
p3836
sg10
VNNP
p3837
sg12
I2
sg13
VMORGAN
p3838
sbag3
(g4
g5
NtRp3839
(dp3840
g8
S'ATTEND'
p3841
sg10
VVP
p3842
sg12
I1
sg13
Nsbag3
(g4
g5
NtRp3843
(dp3844
g8
g3841
sg10
VVBD
p3845
sg12
I5
sg13
VATTENDED
p3846
sbag3
(g4
g5
NtRp3847
(dp3848
g8
S'LITTLEOVER'
p3849
sg10
VNP
p3850
sg12
I5
sg13
Nsbag3
(g4
g5
NtRp3851
(dp3852
g8
g3849
sg10
VNP
p3853
sg12
I7
sg13
Nsbag3
(g4
g5
NtRp3854
(dp3855
g8
g3849
sg10
VNNP
p3856
sg12
I8
sg13
VLITTLEOVER
p3857
sbag3
(g4
g5
NtRp3858
(dp3859
g8
S'COMMUNITY'
p3860
sg10
VNNP
p3861
sg12
I8
sg13
VCOMMUNITY
p3862
sbag3
(g4
g5
NtRp3863
(dp3864
g8
S'SCHOOL'
p3865
sg10
VNNP
p3866
sg12
I8
sg13
VSCHOOL
p3867
sbag3
(g4
g5
NtRp3868
(dp3869
g8
S'IN'
p3870
sg10
VPP
p3871
sg12
I7
sg13
Nsbag3
(g4
g5
NtRp3872
(dp3873
g8
g3870
sg10
VIN
p3874
sg12
I12
sg13
VIN
p3875
sbag3
(g4
g5
NtRp3876
(dp3877
g8
S'DERBY'
p3878
sg10
VNP
p3879
sg12
I12
sg13
VDERBY
p3880
sbag3
(g4
g5
NtRp3881
(dp3882
g8
g3878
sg10
VNNP
p3883
sg12
I14
sg13
VDERBY
p3884
sbag3
(g4
g5
NtRp3885
(dp3886
g8
S'.'
sg10
V.
sg12
I1
sg13
V.
sba(lp3887
(lp3888
I1
aa(lp3889
I2
aI5
aI16
aa(lp3890
I3
aI4
aa(lp3891
a(lp3892
a(lp3893
I6
aI7
aa(lp3894
a(lp3895
I8
aI12
aa(lp3896
I9
aI10
aI11
aa(lp3897
a(lp3898
a(lp3899
a(lp3900
I13
aI14
aa(lp3901
a(lp3902
I15
aa(lp3903
a(lp3904
a(lp3905
NaNag143
aNaNaNaNaNaNag144
aNaNaNaNaNaNaNaI1
tp3906
a(g3819
g3887
(lp3907
NaNaNaNaNaNaNag143
aNag144
aNaNaNaNaNaNaNaI7
tp3908
a(g3819
g3887
(lp3909
NaNaNaNaNaNaNaNaNag144
aNaNaNaNag143
aNaNaI7
tp3910
a((lp3911
g3
(g4
g5
NtRp3912
(dp3913
g8
V LOEL GUINNESS WAS EDUCATED AT ROYAL MILITARY COLLEGE , SANDHURST .
p3914
sg10
VROOT
p3915
sg12
Nsg13
Nsbag3
(g4
g5
NtRp3916
(dp3917
g8
V LOEL GUINNESS WAS EDUCATED AT ROYAL MILITARY COLLEGE , SANDHURST .
p3918
sg10
VS
sg12
I0
sg13
Nsbag3
(g4
g5
NtRp3919
(dp3920
g8
VLOEL
p3921
sg10
VNP
p3922
sg12
I1
sg13
Nsbag3
(g4
g5
NtRp3923
(dp3924
g8
g3921
sg10
VNNP
p3925
sg12
I2
sg13
Nsbag3
(g4
g5
NtRp3926
(dp3927
g8
S'GUINNESS'
p3928
sg10
VNNP
p3929
sg12
I2
sg13
VGUINNESS
p3930
sbag3
(g4
g5
NtRp3931
(dp3932
g8
S'BE'
p3933
sg10
VVP
p3934
sg12
I1
sg13
Nsbag3
(g4
g5
NtRp3935
(dp3936
g8
g3933
sg10
VVBD
p3937
sg12
I5
sg13
VWAS
p3938
sbag3
(g4
g5
NtRp3939
(dp3940
g8
S'EDUCATE'
p3941
sg10
VVP
p3942
sg12
I5
sg13
Nsbag3
(g4
g5
NtRp3943
(dp3944
g8
g3941
sg10
VVBN
p3945
sg12
I7
sg13
VEDUCATED
p3946
sbag3
(g4
g5
NtRp3947
(dp3948
g8
S'AT'
p3949
sg10
VPP
p3950
sg12
I7
sg13
Nsbag3
(g4
g5
NtRp3951
(dp3952
g8
g3949
sg10
VIN
p3953
sg12
I9
sg13
VAT
p3954
sbag3
(g4
g5
NtRp3955
(dp3956
g8
S'ROYAL'
p3957
sg10
VNP
p3958
sg12
I9
sg13
Nsbag3
(g4
g5
NtRp3959
(dp3960
g8
g3957
sg10
VNP
p3961
sg12
I11
sg13
Nsbag3
(g4
g5
NtRp3962
(dp3963
g8
g3957
sg10
VNNP
p3964
sg12
I12
sg13
VROYAL
p3965
sbag3
(g4
g5
NtRp3966
(dp3967
g8
S'MILITARY'
p3968
sg10
VNNP
p3969
sg12
I12
sg13
VMILITARY
p3970
sbag3
(g4
g5
NtRp3971
(dp3972
g8
S'COLLEGE'
p3973
sg10
VNNP
p3974
sg12
I12
sg13
VCOLLEGE
p3975
sbag3
(g4
g5
NtRp3976
(dp3977
g8
S','
sg10
V,
sg12
I11
sg13
V,
sbag3
(g4
g5
NtRp3978
(dp3979
g8
S'SANDHURST'
p3980
sg10
VNP
p3981
sg12
I11
sg13
VSANDHURST
p3982
sbag3
(g4
g5
NtRp3983
(dp3984
g8
g3980
sg10
VNNP
p3985
sg12
I17
sg13
VSANDHURST
p3986
sbag3
(g4
g5
NtRp3987
(dp3988
g8
S'.'
sg10
V.
sg12
I1
sg13
V.
sba(lp3989
(lp3990
I1
aa(lp3991
I2
aI5
aI19
aa(lp3992
I3
aI4
aa(lp3993
a(lp3994
a(lp3995
I6
aI7
aa(lp3996
a(lp3997
I8
aI9
aa(lp3998
a(lp3999
I10
aI11
aa(lp4000
a(lp4001
I12
aI16
aI17
aa(lp4002
I13
aI14
aI15
aa(lp4003
a(lp4004
a(lp4005
a(lp4006
a(lp4007
I18
aa(lp4008
a(lp4009
a(lp4010
NaNag143
aNaNaNaNaNaNaNaNaNaNag144
aNaNaNaNaNaNaI1
tp4011
a(g3911
g3989
(lp4012
NaNaNaNaNaNaNaNaNaNaNag143
aNag144
aNaNaNaNaNaNaI11
tp4013
a(g3911
g3989
(lp4014
NaNaNaNaNaNaNaNaNaNaNaNaNag144
aNaNaNag143
aNaNaI11
tp4015
a((lp4016
g3
(g4
g5
NtRp4017
(dp4018
g8
V LOUIS BERGER STUDIED ARCHITECTURE AT THE PRATT INSTITUTE .
p4019
sg10
VROOT
p4020
sg12
Nsg13
Nsbag3
(g4
g5
NtRp4021
(dp4022
g8
V LOUIS BERGER STUDIED ARCHITECTURE AT THE PRATT INSTITUTE .
p4023
sg10
VS
sg12
I0
sg13
Nsbag3
(g4
g5
NtRp4024
(dp4025
g8
VLOUIS
p4026
sg10
VNP
p4027
sg12
I1
sg13
Nsbag3
(g4
g5
NtRp4028
(dp4029
g8
g4026
sg10
VNNP
p4030
sg12
I2
sg13
Nsbag3
(g4
g5
NtRp4031
(dp4032
g8
S'BERGER'
p4033
sg10
VNNP
p4034
sg12
I2
sg13
VBERGER
p4035
sbag3
(g4
g5
NtRp4036
(dp4037
g8
S'STUDY'
p4038
sg10
VVP
p4039
sg12
I1
sg13
Nsbag3
(g4
g5
NtRp4040
(dp4041
g8
g4038
sg10
VVBD
p4042
sg12
I5
sg13
VSTUDIED
p4043
sbag3
(g4
g5
NtRp4044
(dp4045
g8
S'ARCHITECTURE'
p4046
sg10
VNP
p4047
sg12
I5
sg13
VARCHITECTURE
p4048
sbag3
(g4
g5
NtRp4049
(dp4050
g8
g4046
sg10
VNN
p4051
sg12
I7
sg13
VARCHITECTURE
p4052
sbag3
(g4
g5
NtRp4053
(dp4054
g8
S'AT'
p4055
sg10
VPP
p4056
sg12
I5
sg13
Nsbag3
(g4
g5
NtRp4057
(dp4058
g8
g4055
sg10
VIN
p4059
sg12
I9
sg13
VAT
p4060
sbag3
(g4
g5
NtRp4061
(dp4062
g8
S'PRATT'
p4063
sg10
VNP
p4064
sg12
I9
sg13
Nsbag3
(g4
g5
NtRp4065
(dp4066
g8
S'THE'
p4067
sg10
VDT
p4068
sg12
I11
sg13
VTHE
p4069
sbag3
(g4
g5
NtRp4070
(dp4071
g8
g4063
sg10
VNNP
p4072
sg12
I11
sg13
VPRATT
p4073
sbag3
(g4
g5
NtRp4074
(dp4075
g8
S'INSTITUTE'
p4076
sg10
VNNP
p4077
sg12
I11
sg13
VINSTITUTE
p4078
sbag3
(g4
g5
NtRp4079
(dp4080
g8
S'.'
sg10
V.
sg12
I1
sg13
V.
sba(lp4081
(lp4082
I1
aa(lp4083
I2
aI5
aI15
aa(lp4084
I3
aI4
aa(lp4085
a(lp4086
a(lp4087
I6
aI7
aI9
aa(lp4088
a(lp4089
I8
aa(lp4090
a(lp4091
I10
aI11
aa(lp4092
a(lp4093
I12
aI13
aI14
aa(lp4094
a(lp4095
a(lp4096
a(lp4097
a(lp4098
NaNag143
aNaNaNaNaNaNaNaNaNaNag144
aNaNaI1
tp4099
a(g4016
g4081
(lp4100
NaNaNaNaNaNaNag143
aNaNaNaNaNag144
aNaNaI5
tp4101
a(g4016
g4081
(lp4102
NaNaNaNaNaNaNaNag143
aNaNaNaNag144
aNaNaI5
tp4103
a((lp4104
g3
(g4
g5
NtRp4105
(dp4106
g8
V AFTER THAT EXPERIENCE , PFISTER ENROLLED AT THE AMERICAN FILM INSTITUTE .
p4107
sg10
VROOT
p4108
sg12
Nsg13
Nsbag3
(g4
g5
NtRp4109
(dp4110
g8
V AFTER THAT EXPERIENCE , PFISTER ENROLLED AT THE AMERICAN FILM INSTITUTE .
p4111
sg10
VS
sg12
I0
sg13
Nsbag3
(g4
g5
NtRp4112
(dp4113
g8
VAFTER
p4114
sg10
VPP
p4115
sg12
I1
sg13
Nsbag3
(g4
g5
NtRp4116
(dp4117
g8
g4114
sg10
VIN
p4118
sg12
I2
sg13
Nsbag3
(g4
g5
NtRp4119
(dp4120
g8
S'EXPERIENCE'
p4121
sg10
VNP
p4122
sg12
I2
sg13
Nsbag3
(g4
g5
NtRp4123
(dp4124
g8
S'THAT'
p4125
sg10
VDT
p4126
sg12
I4
sg13
VTHAT
p4127
sbag3
(g4
g5
NtRp4128
(dp4129
g8
g4121
sg10
VNN
p4130
sg12
I4
sg13
VEXPERIENCE
p4131
sbag3
(g4
g5
NtRp4132
(dp4133
g8
S','
sg10
V,
sg12
I1
sg13
V,
sbag3
(g4
g5
NtRp4134
(dp4135
g8
S'PFISTER'
p4136
sg10
VNP
p4137
sg12
I1
sg13
VPFISTER
p4138
sbag3
(g4
g5
NtRp4139
(dp4140
g8
g4136
sg10
VNNP
p4141
sg12
I8
sg13
VPFISTER
p4142
sbag3
(g4
g5
NtRp4143
(dp4144
g8
S'ENROL'
p4145
sg10
VVP
p4146
sg12
I1
sg13
Nsbag3
(g4
g5
NtRp4147
(dp4148
g8
g4145
sg10
VVBD
p4149
sg12
I10
sg13
VENROLLED
p4150
sbag3
(g4
g5
NtRp4151
(dp4152
g8
S'AT'
p4153
sg10
VPP
p4154
sg12
I10
sg13
Nsbag3
(g4
g5
NtRp4155
(dp4156
g8
g4153
sg10
VIN
p4157
sg12
I12
sg13
VAT
p4158
sbag3
(g4
g5
NtRp4159
(dp4160
g8
S'FILM'
p4161
sg10
VNP
p4162
sg12
I12
sg13
Nsbag3
(g4
g5
NtRp4163
(dp4164
g8
S'THE'
p4165
sg10
VDT
p4166
sg12
I14
sg13
VTHE
p4167
sbag3
(g4
g5
NtRp4168
(dp4169
g8
S'AMERICAN'
p4170
sg10
VJJ
p4171
sg12
I14
sg13
VAMERICAN
p4172
sbag3
(g4
g5
NtRp4173
(dp4174
g8
g4161
sg10
VNNP
p4175
sg12
I14
sg13
VFILM
p4176
sbag3
(g4
g5
NtRp4177
(dp4178
g8
S'INSTITUTE'
p4179
sg10
VNNP
p4180
sg12
I14
sg13
VINSTITUTE
p4181
sbag3
(g4
g5
NtRp4182
(dp4183
g8
S'.'
sg10
V.
sg12
I1
sg13
V.
sba(lp4184
(lp4185
I1
aa(lp4186
I2
aI7
aI8
aI10
aI19
aa(lp4187
I3
aI4
aa(lp4188
a(lp4189
I5
aI6
aa(lp4190
a(lp4191
a(lp4192
a(lp4193
I9
aa(lp4194
a(lp4195
I11
aI12
aa(lp4196
a(lp4197
I13
aI14
aa(lp4198
a(lp4199
I15
aI16
aI17
aI18
aa(lp4200
a(lp4201
a(lp4202
a(lp4203
a(lp4204
a(lp4205
NaNaNaNag143
aNaNaNaNaNaNaNaNaNaNaNaNag144
aNaNaI1
tp4206
a(g4104
g4184
(lp4207
NaNaNaNaNaNag143
aNaNaNaNaNaNaNaNaNaNag144
aNaNaI1
tp4208
a(g4104
g4184
(lp4209
NaNaNaNaNaNaNaNag143
aNaNaNaNaNaNaNaNag144
aNaNaI1
tp4210
a((lp4211
g3
(g4
g5
NtRp4212
(dp4213
g8
V BARKER IS A JUILLIARD DRAMA SCHOOL GRADUATE FROM ST. LOUIS , MISSOURI .
p4214
sg10
VROOT
p4215
sg12
Nsg13
Nsbag3
(g4
g5
NtRp4216
(dp4217
g8
V BARKER IS A JUILLIARD DRAMA SCHOOL GRADUATE FROM ST. LOUIS , MISSOURI .
p4218
sg10
VS
sg12
I0
sg13
Nsbag3
(g4
g5
NtRp4219
(dp4220
g8
VBARKER
p4221
sg10
VNP
p4222
sg12
I1
sg13
Nsbag3
(g4
g5
NtRp4223
(dp4224
g8
g4221
sg10
VNNP
p4225
sg12
I2
sg13
Nsbag3
(g4
g5
NtRp4226
(dp4227
g8
S'BE'
p4228
sg10
VVP
p4229
sg12
I1
sg13
Nsbag3
(g4
g5
NtRp4230
(dp4231
g8
g4228
sg10
VVBZ
p4232
sg12
I4
sg13
VIS
p4233
sbag3
(g4
g5
NtRp4234
(dp4235
g8
S'JUILLIARD'
p4236
sg10
VNP
p4237
sg12
I4
sg13
Nsbag3
(g4
g5
NtRp4238
(dp4239
g8
g4236
sg10
VNP
p4240
sg12
I6
sg13
Nsbag3
(g4
g5
NtRp4241
(dp4242
g8
S'A'
sg10
VDT
p4243
sg12
I7
sg13
VA
sbag3
(g4
g5
NtRp4244
(dp4245
g8
g4236
sg10
VNNP
p4246
sg12
I7
sg13
VJUILLIARD
p4247
sbag3
(g4
g5
NtRp4248
(dp4249
g8
S'DRAMA'
p4250
sg10
VNNP
p4251
sg12
I7
sg13
VDRAMA
p4252
sbag3
(g4
g5
NtRp4253
(dp4254
g8
S'SCHOOL'
p4255
sg10
VNNP
p4256
sg12
I7
sg13
VSCHOOL
p4257
sbag3
(g4
g5
NtRp4258
(dp4259
g8
S'GRADUATE'
p4260
sg10
VNN
p4261
sg12
I7
sg13
VGRADUATE
p4262
sbag3
(g4
g5
NtRp4263
(dp4264
g8
S'FROM'
p4265
sg10
VPP
p4266
sg12
I6
sg13
Nsbag3
(g4
g5
NtRp4267
(dp4268
g8
g4265
sg10
VIN
p4269
sg12
I13
sg13
VFROM
p4270
sbag3
(g4
g5
NtRp4271
(dp4272
g8
S'ST.'
p4273
sg10
VNP
p4274
sg12
I13
sg13
Nsbag3
(g4
g5
NtRp4275
(dp4276
g8
g4273
sg10
VNP
p4277
sg12
I15
sg13
Nsbag3
(g4
g5
NtRp4278
(dp4279
g8
g4273
sg10
VNNP
p4280
sg12
I16
sg13
VST.
p4281
sbag3
(g4
g5
NtRp4282
(dp4283
g8
S'LOUIS'
p4284
sg10
VNNP
p4285
sg12
I16
sg13
VLOUIS
p4286
sbag3
(g4
g5
NtRp4287
(dp4288
g8
S','
sg10
V,
sg12
I15
sg13
V,
sbag3
(g4
g5
NtRp4289
(dp4290
g8
S'MISSOURI'
p4291
sg10
VNP
p4292
sg12
I15
sg13
VMISSOURI
p4293
sbag3
(g4
g5
NtRp4294
(dp4295
g8
g4291
sg10
VNNP
p4296
sg12
I20
sg13
VMISSOURI
p4297
sbag3
(g4
g5
NtRp4298
(dp4299
g8
S'.'
sg10
V.
sg12
I1
sg13
V.
sba(lp4300
(lp4301
I1
aa(lp4302
I2
aI4
aI22
aa(lp4303
I3
aa(lp4304
a(lp4305
I5
aI6
aa(lp4306
a(lp4307
I7
aI13
aa(lp4308
I8
aI9
aI10
aI11
aI12
aa(lp4309
a(lp4310
a(lp4311
a(lp4312
a(lp4313
a(lp4314
I14
aI15
aa(lp4315
a(lp4316
I16
aI19
aI20
aa(lp4317
I17
aI18
aa(lp4318
a(lp4319
a(lp4320
a(lp4321
I21
aa(lp4322
a(lp4323
a(lp4324
NaNag143
aNaNaNaNaNaNag144
aNaNaNaNaNaNaNaNaNaNaNaNaNaI1
tp4325
a(g4211
g4300
(lp4326
NaNaNaNaNaNag143
aNaNag144
aNaNaNaNaNaNaNaNaNaNaNaNaNaI6
tp4327
a(g4211
g4300
(lp4328
NaNaNaNaNaNaNaNaNag144
aNaNag143
aNaNaNaNaNaNaNaNaNaNaI7
tp4329
a(g4211
g4300
(lp4330
NaNaNaNaNaNaNaNaNag144
aNaNaNaNaNag143
aNaNaNaNaNaNaNaI6
tp4331
a(g4211
g4300
(lp4332
NaNaNaNaNaNaNaNaNag144
aNaNaNaNaNaNag143
aNaNaNaNaNaNaI6
tp4333
a(g4211
g4300
(lp4334
NaNaNaNaNaNaNaNaNag144
aNaNaNaNaNaNaNaNaNaNag143
aNaNaI6
tp4335
a((lp4336
g3
(g4
g5
NtRp4337
(dp4338
g8
V AUGUSTIN PYRAMUS DE CANDOLLE PLAYED COLLEGE FOOTBALL AT HOWARD UNIVERSITY IN WASHINGTON , DC .
p4339
sg10
VROOT
p4340
sg12
Nsg13
Nsbag3
(g4
g5
NtRp4341
(dp4342
g8
V AUGUSTIN PYRAMUS DE CANDOLLE PLAYED COLLEGE FOOTBALL AT HOWARD UNIVERSITY IN WASHINGTON , DC .
p4343
sg10
VS
sg12
I0
sg13
Nsbag3
(g4
g5
NtRp4344
(dp4345
g8
VAUGUSTIN
p4346
sg10
VNP
p4347
sg12
I1
sg13
Nsbag3
(g4
g5
NtRp4348
(dp4349
g8
g4346
sg10
VNNP
p4350
sg12
I2
sg13
Nsbag3
(g4
g5
NtRp4351
(dp4352
g8
S'PYRAMUS'
p4353
sg10
VNNP
p4354
sg12
I2
sg13
VPYRAMUS
p4355
sbag3
(g4
g5
NtRp4356
(dp4357
g8
S'DE'
p4358
sg10
VIN
p4359
sg12
I2
sg13
VDE
p4360
sbag3
(g4
g5
NtRp4361
(dp4362
g8
S'CANDOLLE'
p4363
sg10
VNNP
p4364
sg12
I2
sg13
VCANDOLLE
p4365
sbag3
(g4
g5
NtRp4366
(dp4367
g8
S'PLAY'
p4368
sg10
VVP
p4369
sg12
I1
sg13
Nsbag3
(g4
g5
NtRp4370
(dp4371
g8
g4368
sg10
VVBD
p4372
sg12
I7
sg13
VPLAYED
p4373
sbag3
(g4
g5
NtRp4374
(dp4375
g8
S'COLLEGE'
p4376
sg10
VNP
p4377
sg12
I7
sg13
Nsbag3
(g4
g5
NtRp4378
(dp4379
g8
g4376
sg10
VNN
p4380
sg12
I9
sg13
VCOLLEGE
p4381
sbag3
(g4
g5
NtRp4382
(dp4383
g8
S'FOOTBALL'
p4384
sg10
VNN
p4385
sg12
I9
sg13
VFOOTBALL
p4386
sbag3
(g4
g5
NtRp4387
(dp4388
g8
S'AT'
p4389
sg10
VPP
p4390
sg12
I7
sg13
Nsbag3
(g4
g5
NtRp4391
(dp4392
g8
g4389
sg10
VIN
p4393
sg12
I12
sg13
VAT
p4394
sbag3
(g4
g5
NtRp4395
(dp4396
g8
S'HOWARD'
p4397
sg10
VNP
p4398
sg12
I12
sg13
Nsbag3
(g4
g5
NtRp4399
(dp4400
g8
g4397
sg10
VNNP
p4401
sg12
I14
sg13
VHOWARD
p4402
sbag3
(g4
g5
NtRp4403
(dp4404
g8
S'UNIVERSITY'
p4405
sg10
VNNP
p4406
sg12
I14
sg13
VUNIVERSITY
p4407
sbag3
(g4
g5
NtRp4408
(dp4409
g8
S'IN'
p4410
sg10
VPP
p4411
sg12
I7
sg13
Nsbag3
(g4
g5
NtRp4412
(dp4413
g8
g4410
sg10
VIN
p4414
sg12
I17
sg13
VIN
p4415
sbag3
(g4
g5
NtRp4416
(dp4417
g8
S'WASHINGTON'
p4418
sg10
VNP
p4419
sg12
I17
sg13
Nsbag3
(g4
g5
NtRp4420
(dp4421
g8
g4418
sg10
VNNP
p4422
sg12
I19
sg13
VWASHINGTON
p4423
sbag3
(g4
g5
NtRp4424
(dp4425
g8
S','
sg10
V,
sg12
I19
sg13
V,
sbag3
(g4
g5
NtRp4426
(dp4427
g8
S'DC'
p4428
sg10
VNNP
p4429
sg12
I19
sg13
VDC
p4430
sbag3
(g4
g5
NtRp4431
(dp4432
g8
S'.'
sg10
V.
sg12
I1
sg13
V.
sba(lp4433
(lp4434
I1
aa(lp4435
I2
aI7
aI23
aa(lp4436
I3
aI4
aI5
aI6
aa(lp4437
a(lp4438
a(lp4439
a(lp4440
a(lp4441
I8
aI9
aI12
aI17
aa(lp4442
a(lp4443
I10
aI11
aa(lp4444
a(lp4445
a(lp4446
I13
aI14
aa(lp4447
a(lp4448
I15
aI16
aa(lp4449
a(lp4450
a(lp4451
I18
aI19
aa(lp4452
a(lp4453
I20
aI21
aI22
aa(lp4454
a(lp4455
a(lp4456
a(lp4457
a(lp4458
NaNag143
aNaNaNaNaNaNaNaNaNaNaNaNag144
aNaNaNaNaNaNaNaNaI1
tp4459
a(g4336
g4433
(lp4460
NaNaNaNaNaNaNaNaNag143
aNaNaNaNaNag144
aNaNaNaNaNaNaNaNaI7
tp4461
a(g4336
g4433
(lp4462
NaNaNaNaNaNaNaNaNaNag143
aNaNaNaNag144
aNaNaNaNaNaNaNaNaI7
tp4463
a(g4336
g4433
(lp4464
NaNaNaNaNaNaNaNaNaNaNag143
aNaNaNag144
aNaNaNaNaNaNaNaNaI7
tp4465
a(g4336
g4433
(lp4466
NaNaNaNaNaNaNaNaNaNaNaNaNaNaNag144
aNaNaNag143
aNaNaNaNaI7
tp4467
a((lp4468
g3
(g4
g5
NtRp4469
(dp4470
g8
V ARSENY SOKOLOV GRADUATED FROM TOMSK STATE UNIVERSITY -LRB- TSU -RRB- IN 1931 .
p4471
sg10
VROOT
p4472
sg12
Nsg13
Nsbag3
(g4
g5
NtRp4473
(dp4474
g8
V ARSENY SOKOLOV GRADUATED FROM TOMSK STATE UNIVERSITY -LRB- TSU -RRB- IN 1931 .
p4475
sg10
VS
sg12
I0
sg13
Nsbag3
(g4
g5
NtRp4476
(dp4477
g8
VARSENY
p4478
sg10
VNP
p4479
sg12
I1
sg13
Nsbag3
(g4
g5
NtRp4480
(dp4481
g8
g4478
sg10
VNNP
p4482
sg12
I2
sg13
Nsbag3
(g4
g5
NtRp4483
(dp4484
g8
S'SOKOLOV'
p4485
sg10
VNNP
p4486
sg12
I2
sg13
VSOKOLOV
p4487
sbag3
(g4
g5
NtRp4488
(dp4489
g8
S'GRADUATE'
p4490
sg10
VVP
p4491
sg12
I1
sg13
Nsbag3
(g4
g5
NtRp4492
(dp4493
g8
g4490
sg10
VVBD
p4494
sg12
I5
sg13
VGRADUATED
p4495
sbag3
(g4
g5
NtRp4496
(dp4497
g8
S'FROM'
p4498
sg10
VPP
p4499
sg12
I5
sg13
Nsbag3
(g4
g5
NtRp4500
(dp4501
g8
g4498
sg10
VIN
p4502
sg12
I7
sg13
VFROM
p4503
sbag3
(g4
g5
NtRp4504
(dp4505
g8
S'TOMSK'
p4506
sg10
VNP
p4507
sg12
I7
sg13
Nsbag3
(g4
g5
NtRp4508
(dp4509
g8
g4506
sg10
VNP
p4510
sg12
I9
sg13
Nsbag3
(g4
g5
NtRp4511
(dp4512
g8
g4506
sg10
VNNP
p4513
sg12
I10
sg13
VTOMSK
p4514
sbag3
(g4
g5
NtRp4515
(dp4516
g8
S'STATE'
p4517
sg10
VNNP
p4518
sg12
I10
sg13
VSTATE
p4519
sbag3
(g4
g5
NtRp4520
(dp4521
g8
S'UNIVERSITY'
p4522
sg10
VNNP
p4523
sg12
I10
sg13
VUNIVERSITY
p4524
sbag3
(g4
g5
NtRp4525
(dp4526
g8
S'-LRB-'
p4527
sg10
VPRN
p4528
sg12
I9
sg13
Nsbag3
(g4
g5
NtRp4529
(dp4530
g8
g4527
sg10
V-LRB-
p4531
sg12
I14
sg13
V-LRB-
p4532
sbag3
(g4
g5
NtRp4533
(dp4534
g8
S'TSU'
p4535
sg10
VNP
p4536
sg12
I14
sg13
VTSU
p4537
sbag3
(g4
g5
NtRp4538
(dp4539
g8
g4535
sg10
VNNP
p4540
sg12
I16
sg13
VTSU
p4541
sbag3
(g4
g5
NtRp4542
(dp4543
g8
S'-RRB-'
p4544
sg10
V-RRB-
p4545
sg12
I14
sg13
V-RRB-
p4546
sbag3
(g4
g5
NtRp4547
(dp4548
g8
S'IN'
p4549
sg10
VPP
p4550
sg12
I5
sg13
Nsbag3
(g4
g5
NtRp4551
(dp4552
g8
g4549
sg10
VIN
p4553
sg12
I19
sg13
VIN
p4554
sbag3
(g4
g5
NtRp4555
(dp4556
g8
S'1931'
p4557
sg10
VNP
p4558
sg12
I19
sg13
V1931
p4559
sbag3
(g4
g5
NtRp4560
(dp4561
g8
g4557
sg10
VCD
p4562
sg12
I21
sg13
V1931
p4563
sbag3
(g4
g5
NtRp4564
(dp4565
g8
S'.'
sg10
V.
sg12
I1
sg13
V.
sba(lp4566
(lp4567
I1
aa(lp4568
I2
aI5
aI23
aa(lp4569
I3
aI4
aa(lp4570
a(lp4571
a(lp4572
I6
aI7
aI19
aa(lp4573
a(lp4574
I8
aI9
aa(lp4575
a(lp4576
I10
aI14
aa(lp4577
I11
aI12
aI13
aa(lp4578
a(lp4579
a(lp4580
a(lp4581
I15
aI16
aI18
aa(lp4582
a(lp4583
I17
aa(lp4584
a(lp4585
a(lp4586
I20
aI21
aa(lp4587
a(lp4588
I22
aa(lp4589
a(lp4590
a(lp4591
NaNag143
aNaNaNaNaNaNaNaNag144
aNaNaNaNaNaNaNaNaNaNaNaNaI1
tp4592
a(g4468
g4566
(lp4593
NaNaNaNaNaNaNaNaNag143
aNag144
aNaNaNaNaNaNaNaNaNaNaNaNaI9
tp4594
a(g4468
g4566
(lp4595
NaNaNaNaNaNaNaNaNaNaNag144
aNaNaNaNag143
aNaNaNaNaNaNaNaI9
tp4596
a(g4468
g4566
(lp4597
NaNaNaNaNaNaNaNaNaNaNag144
aNaNaNaNaNaNaNaNaNag143
aNaNaI5
tp4598
a((lp4599
g3
(g4
g5
NtRp4600
(dp4601
g8
V SUNA MURRAY GRADUATED FROM THE WESTON HIGH SCHOOL , WESTON , MASSACHUSETTS , IN 2007 .
p4602
sg10
VROOT
p4603
sg12
Nsg13
Nsbag3
(g4
g5
NtRp4604
(dp4605
g8
V SUNA MURRAY GRADUATED FROM THE WESTON HIGH SCHOOL , WESTON , MASSACHUSETTS , IN 2007 .
p4606
sg10
VS
sg12
I0
sg13
Nsbag3
(g4
g5
NtRp4607
(dp4608
g8
VSUNA
p4609
sg10
VNP
p4610
sg12
I1
sg13
Nsbag3
(g4
g5
NtRp4611
(dp4612
g8
g4609
sg10
VNNP
p4613
sg12
I2
sg13
Nsbag3
(g4
g5
NtRp4614
(dp4615
g8
S'MURRAY'
p4616
sg10
VNNP
p4617
sg12
I2
sg13
VMURRAY
p4618
sbag3
(g4
g5
NtRp4619
(dp4620
g8
S'GRADUATE'
p4621
sg10
VVP
p4622
sg12
I1
sg13
Nsbag3
(g4
g5
NtRp4623
(dp4624
g8
g4621
sg10
VVBD
p4625
sg12
I5
sg13
VGRADUATED
p4626
sbag3
(g4
g5
NtRp4627
(dp4628
g8
S'FROM'
p4629
sg10
VPP
p4630
sg12
I5
sg13
Nsbag3
(g4
g5
NtRp4631
(dp4632
g8
g4629
sg10
VIN
p4633
sg12
I7
sg13
VFROM
p4634
sbag3
(g4
g5
NtRp4635
(dp4636
g8
S'WESTON'
p4637
sg10
VNP
p4638
sg12
I7
sg13
Nsbag3
(g4
g5
NtRp4639
(dp4640
g8
S'THE'
p4641
sg10
VDT
p4642
sg12
I9
sg13
VTHE
p4643
sbag3
(g4
g5
NtRp4644
(dp4645
g8
g4637
sg10
VNNP
p4646
sg12
I9
sg13
VWESTON
p4647
sbag3
(g4
g5
NtRp4648
(dp4649
g8
S'HIGH'
p4650
sg10
VNNP
p4651
sg12
I9
sg13
VHIGH
p4652
sbag3
(g4
g5
NtRp4653
(dp4654
g8
S'SCHOOL'
p4655
sg10
VNNP
p4656
sg12
I9
sg13
VSCHOOL
p4657
sbag3
(g4
g5
NtRp4658
(dp4659
g8
S','
sg10
V,
sg12
I9
sg13
V,
sbag3
(g4
g5
NtRp4660
(dp4661
g8
g4637
sg10
VNNP
p4662
sg12
I9
sg13
VWESTON
p4663
sbag3
(g4
g5
NtRp4664
(dp4665
g8
S','
sg10
V,
sg12
I9
sg13
V,
sbag3
(g4
g5
NtRp4666
(dp4667
g8
S'MASSACHUSETTS'
p4668
sg10
VNNP
p4669
sg12
I9
sg13
VMASSACHUSETTS
p4670
sbag3
(g4
g5
NtRp4671
(dp4672
g8
S','
sg10
V,
sg12
I9
sg13
V,
sbag3
(g4
g5
NtRp4673
(dp4674
g8
S'IN'
p4675
sg10
VPP
p4676
sg12
I5
sg13
Nsbag3
(g4
g5
NtRp4677
(dp4678
g8
g4675
sg10
VIN
p4679
sg12
I19
sg13
VIN
p4680
sbag3
(g4
g5
NtRp4681
(dp4682
g8
S'2007'
p4683
sg10
VNP
p4684
sg12
I19
sg13
V2007
p4685
sbag3
(g4
g5
NtRp4686
(dp4687
g8
g4683
sg10
VCD
p4688
sg12
I21
sg13
V2007
p4689
sbag3
(g4
g5
NtRp4690
(dp4691
g8
S'.'
sg10
V.
sg12
I1
sg13
V.
sba(lp4692
(lp4693
I1
aa(lp4694
I2
aI5
aI23
aa(lp4695
I3
aI4
aa(lp4696
a(lp4697
a(lp4698
I6
aI7
aI19
aa(lp4699
a(lp4700
I8
aI9
aa(lp4701
a(lp4702
I10
aI11
aI12
aI13
aI14
aI15
aI16
aI17
aI18
aa(lp4703
a(lp4704
a(lp4705
a(lp4706
a(lp4707
a(lp4708
a(lp4709
a(lp4710
a(lp4711
a(lp4712
I20
aI21
aa(lp4713
a(lp4714
I22
aa(lp4715
a(lp4716
a(lp4717
NaNag143
aNaNaNaNaNaNaNaNaNag144
aNaNaNaNaNaNaNaNaNaNaNaI1
tp4718
a(g4599
g4692
(lp4719
NaNaNaNaNaNaNaNaNaNaNaNag144
aNaNaNaNaNaNaNaNag143
aNaNaI5
tp4720
a((lp4721
g3
(g4
g5
NtRp4722
(dp4723
g8
V WILLIAM ALFRED BROWNE RECEIVED HIS UNIVERSITY EDUCATION AT QUEENS COLLEGE GALWAY .
p4724
sg10
VROOT
p4725
sg12
Nsg13
Nsbag3
(g4
g5
NtRp4726
(dp4727
g8
V WILLIAM ALFRED BROWNE RECEIVED HIS UNIVERSITY EDUCATION AT QUEENS COLLEGE GALWAY .
p4728
sg10
VS
sg12
I0
sg13
Nsbag3
(g4
g5
NtRp4729
(dp4730
g8
VWILLIAM
p4731
sg10
VNP
p4732
sg12
I1
sg13
Nsbag3
(g4
g5
NtRp4733
(dp4734
g8
g4731
sg10
VNNP
p4735
sg12
I2
sg13
Nsbag3
(g4
g5
NtRp4736
(dp4737
g8
S'ALFRED'
p4738
sg10
VNNP
p4739
sg12
I2
sg13
VALFRED
p4740
sbag3
(g4
g5
NtRp4741
(dp4742
g8
S'BROWNE'
p4743
sg10
VNNP
p4744
sg12
I2
sg13
VBROWNE
p4745
sbag3
(g4
g5
NtRp4746
(dp4747
g8
S'RECEIVE'
p4748
sg10
VVP
p4749
sg12
I1
sg13
Nsbag3
(g4
g5
NtRp4750
(dp4751
g8
g4748
sg10
VVBD
p4752
sg12
I6
sg13
VRECEIVED
p4753
sbag3
(g4
g5
NtRp4754
(dp4755
g8
S'UNIVERSITY'
p4756
sg10
VNP
p4757
sg12
I6
sg13
Nsbag3
(g4
g5
NtRp4758
(dp4759
g8
S'HE'
p4760
sg10
VPRP$
p4761
sg12
I8
sg13
VHIS
p4762
sbag3
(g4
g5
NtRp4763
(dp4764
g8
g4756
sg10
VNN
p4765
sg12
I8
sg13
VUNIVERSITY
p4766
sbag3
(g4
g5
NtRp4767
(dp4768
g8
S'EDUCATION'
p4769
sg10
VNN
p4770
sg12
I8
sg13
VEDUCATION
p4771
sbag3
(g4
g5
NtRp4772
(dp4773
g8
S'AT'
p4774
sg10
VPP
p4775
sg12
I6
sg13
Nsbag3
(g4
g5
NtRp4776
(dp4777
g8
g4774
sg10
VIN
p4778
sg12
I12
sg13
VAT
p4779
sbag3
(g4
g5
NtRp4780
(dp4781
g8
S'QUEENS'
p4782
sg10
VNP
p4783
sg12
I12
sg13
Nsbag3
(g4
g5
NtRp4784
(dp4785
g8
g4782
sg10
VNNP
p4786
sg12
I14
sg13
VQUEENS
p4787
sbag3
(g4
g5
NtRp4788
(dp4789
g8
S'COLLEGE'
p4790
sg10
VNNP
p4791
sg12
I14
sg13
VCOLLEGE
p4792
sbag3
(g4
g5
NtRp4793
(dp4794
g8
S'GALWAY'
p4795
sg10
VNNP
p4796
sg12
I14
sg13
VGALWAY
p4797
sbag3
(g4
g5
NtRp4798
(dp4799
g8
S'.'
sg10
V.
sg12
I1
sg13
V.
sba(lp4800
(lp4801
I1
aa(lp4802
I2
aI6
aI18
aa(lp4803
I3
aI4
aI5
aa(lp4804
a(lp4805
a(lp4806
a(lp4807
I7
aI8
aI12
aa(lp4808
a(lp4809
I9
aI10
aI11
aa(lp4810
a(lp4811
a(lp4812
a(lp4813
I13
aI14
aa(lp4814
a(lp4815
I15
aI16
aI17
aa(lp4816
a(lp4817
a(lp4818
a(lp4819
a(lp4820
NaNag143
aNaNaNaNaNaNaNaNaNaNaNaNag144
aNaNaNaI1
tp4821
a(g4721
g4800
(lp4822
NaNaNaNaNaNaNaNag143
aNaNaNaNaNaNag144
aNaNaNaI6
tp4823
a(g4721
g4800
(lp4824
NaNaNaNaNaNaNaNaNaNag143
aNaNaNaNag144
aNaNaNaI6
tp4825
a(g4721
g4800
(lp4826
NaNaNaNaNaNaNaNaNaNaNag143
aNaNaNag144
aNaNaNaI6
tp4827
a((lp4828
g3
(g4
g5
NtRp4829
(dp4830
g8
V BRENDA PAIK SUNOO GRADUATED FROM UNIVERSITY OF CALIFORNIA , LOS ANGELES WITH A B.A.
p4831
sg10
VROOT
p4832
sg12
Nsg13
Nsbag3
(g4
g5
NtRp4833
(dp4834
g8
V BRENDA PAIK SUNOO GRADUATED FROM UNIVERSITY OF CALIFORNIA , LOS ANGELES WITH A B.A.
p4835
sg10
VS
sg12
I0
sg13
Nsbag3
(g4
g5
NtRp4836
(dp4837
g8
VBRENDA
p4838
sg10
VNP
p4839
sg12
I1
sg13
Nsbag3
(g4
g5
NtRp4840
(dp4841
g8
g4838
sg10
VNNP
p4842
sg12
I2
sg13
Nsbag3
(g4
g5
NtRp4843
(dp4844
g8
S'PAIK'
p4845
sg10
VNNP
p4846
sg12
I2
sg13
VPAIK
p4847
sbag3
(g4
g5
NtRp4848
(dp4849
g8
S'SUNOO'
p4850
sg10
VNNP
p4851
sg12
I2
sg13
VSUNOO
p4852
sbag3
(g4
g5
NtRp4853
(dp4854
g8
S'GRADUATE'
p4855
sg10
VVP
p4856
sg12
I1
sg13
Nsbag3
(g4
g5
NtRp4857
(dp4858
g8
g4855
sg10
VVBD
p4859
sg12
I6
sg13
VGRADUATED
p4860
sbag3
(g4
g5
NtRp4861
(dp4862
g8
S'FROM'
p4863
sg10
VPP
p4864
sg12
I6
sg13
Nsbag3
(g4
g5
NtRp4865
(dp4866
g8
g4863
sg10
VIN
p4867
sg12
I8
sg13
VFROM
p4868
sbag3
(g4
g5
NtRp4869
(dp4870
g8
S'UNIVERSITY'
p4871
sg10
VNP
p4872
sg12
I8
sg13
Nsbag3
(g4
g5
NtRp4873
(dp4874
g8
g4871
sg10
VNP
p4875
sg12
I10
sg13
VUNIVERSITY
p4876
sbag3
(g4
g5
NtRp4877
(dp4878
g8
g4871
sg10
VNNP
p4879
sg12
I11
sg13
VUNIVERSITY
p4880
sbag3
(g4
g5
NtRp4881
(dp4882
g8
S'OF'
p4883
sg10
VPP
p4884
sg12
I10
sg13
Nsbag3
(g4
g5
NtRp4885
(dp4886
g8
g4883
sg10
VIN
p4887
sg12
I13
sg13
VOF
p4888
sbag3
(g4
g5
NtRp4889
(dp4890
g8
S'CALIFORNIA'
p4891
sg10
VNP
p4892
sg12
I13
sg13
Nsbag3
(g4
g5
NtRp4893
(dp4894
g8
g4891
sg10
VNNP
p4895
sg12
I15
sg13
VCALIFORNIA
p4896
sbag3
(g4
g5
NtRp4897
(dp4898
g8
S','
sg10
V,
sg12
I15
sg13
V,
sbag3
(g4
g5
NtRp4899
(dp4900
g8
S'LOS'
p4901
sg10
VNNP
p4902
sg12
I15
sg13
VLOS
p4903
sbag3
(g4
g5
NtRp4904
(dp4905
g8
S'ANGELES'
p4906
sg10
VNNP
p4907
sg12
I15
sg13
VANGELES
p4908
sbag3
(g4
g5
NtRp4909
(dp4910
g8
S'WITH'
p4911
sg10
VPP
p4912
sg12
I6
sg13
Nsbag3
(g4
g5
NtRp4913
(dp4914
g8
g4911
sg10
VIN
p4915
sg12
I20
sg13
VWITH
p4916
sbag3
(g4
g5
NtRp4917
(dp4918
g8
S'B.A.'
p4919
sg10
VNP
p4920
sg12
I20
sg13
Nsbag3
(g4
g5
NtRp4921
(dp4922
g8
S'A'
sg10
VDT
p4923
sg12
I22
sg13
VA
sbag3
(g4
g5
NtRp4924
(dp4925
g8
g4919
sg10
VNN
p4926
sg12
I22
sg13
VB.A.
p4927
sba(lp4928
(lp4929
I1
aa(lp4930
I2
aI6
aa(lp4931
I3
aI4
aI5
aa(lp4932
a(lp4933
a(lp4934
a(lp4935
I7
aI8
aI20
aa(lp4936
a(lp4937
I9
aI10
aa(lp4938
a(lp4939
I11
aI13
aa(lp4940
I12
aa(lp4941
a(lp4942
I14
aI15
aa(lp4943
a(lp4944
I16
aI17
aI18
aI19
aa(lp4945
a(lp4946
a(lp4947
a(lp4948
a(lp4949
I21
aI22
aa(lp4950
a(lp4951
I23
aI24
aa(lp4952
a(lp4953
a(lp4954
NaNag143
aNaNaNaNaNaNaNaNag144
aNaNaNaNaNaNaNaNaNaNaNaNaNaI1
tp4955
a(g4828
g4928
(lp4956
NaNaNaNaNaNaNaNaNaNaNag144
aNaNaNaNaNaNaNaNaNaNag143
aNaNaI6
tp4957
a(g4828
g4928
(lp4958
NaNaNaNaNaNaNaNaNaNaNag144
aNaNaNaNaNaNaNaNaNaNaNaNag143
aI6
tp4959
a(g4828
g4928
(lp4960
NaNag143
aNaNaNaNaNaNaNaNaNaNaNaNaNag144
aNaNaNaNaNaNaNaNaI1
tp4961
a(g4828
g4928
(lp4962
NaNaNaNaNaNaNaNaNaNaNaNaNaNaNaNag144
aNaNaNaNaNag143
aNaNaI6
tp4963
a(g4828
g4928
(lp4964
NaNaNaNaNaNaNaNaNaNaNaNaNaNaNaNag144
aNaNaNaNaNaNaNag143
aI6
tp4965
a((lp4966
g3
(g4
g5
NtRp4967
(dp4968
g8
V FROM 1950 TO 1963 , JI\u0158 LEV LECTURED AT PALACK UNIVERSITY OF OLOMOUC .
p4969
sg10
VROOT
p4970
sg12
Nsg13
Nsbag3
(g4
g5
NtRp4971
(dp4972
g8
V FROM 1950 TO 1963 , JI\u0158 LEV LECTURED AT PALACK UNIVERSITY OF OLOMOUC .
p4973
sg10
VS
sg12
I0
sg13
Nsbag3
(g4
g5
NtRp4974
(dp4975
g8
VFROM
p4976
sg10
VPP
p4977
sg12
I1
sg13
Nsbag3
(g4
g5
NtRp4978
(dp4979
g8
g4976
sg10
VIN
p4980
sg12
I2
sg13
Nsbag3
(g4
g5
NtRp4981
(dp4982
g8
S'1950'
p4983
sg10
VNP
p4984
sg12
I2
sg13
Nsbag3
(g4
g5
NtRp4985
(dp4986
g8
g4983
sg10
VCD
p4987
sg12
I4
sg13
V1950
p4988
sbag3
(g4
g5
NtRp4989
(dp4990
g8
S'TO'
p4991
sg10
VTO
p4992
sg12
I4
sg13
VTO
p4993
sbag3
(g4
g5
NtRp4994
(dp4995
g8
S'1963'
p4996
sg10
VCD
p4997
sg12
I4
sg13
V1963
p4998
sbag3
(g4
g5
NtRp4999
(dp5000
g8
S','
sg10
V,
sg12
I1
sg13
V,
sbag3
(g4
g5
NtRp5001
(dp5002
g8
VJI\u0158
p5003
sg10
VNP
p5004
sg12
I1
sg13
Nsbag3
(g4
g5
NtRp5005
(dp5006
g8
g5003
sg10
VNNP
p5007
sg12
I9
sg13
Nsbag3
(g4
g5
NtRp5008
(dp5009
g8
VLEV
p5010
sg10
VNNP
p5011
sg12
I9
sg13
Nsbag3
(g4
g5
NtRp5012
(dp5013
g8
S'LECTURE'
p5014
sg10
VVP
p5015
sg12
I1
sg13
Nsbag3
(g4
g5
NtRp5016
(dp5017
g8
g5014
sg10
VVBD
p5018
sg12
I12
sg13
VLECTURED
p5019
sbag3
(g4
g5
NtRp5020
(dp5021
g8
S'AT'
p5022
sg10
VPP
p5023
sg12
I12
sg13
Nsbag3
(g4
g5
NtRp5024
(dp5025
g8
g5022
sg10
VIN
p5026
sg12
I14
sg13
VAT
p5027
sbag3
(g4
g5
NtRp5028
(dp5029
g8
VPALACK
p5030
sg10
VNP
p5031
sg12
I14
sg13
Nsbag3
(g4
g5
NtRp5032
(dp5033
g8
g5030
sg10
VNP
p5034
sg12
I16
sg13
Nsbag3
(g4
g5
NtRp5035
(dp5036
g8
g5030
sg10
VNNP
p5037
sg12
I17
sg13
Nsbag3
(g4
g5
NtRp5038
(dp5039
g8
S'UNIVERSITY'
p5040
sg10
VNNP
p5041
sg12
I17
sg13
VUNIVERSITY
p5042
sbag3
(g4
g5
NtRp5043
(dp5044
g8
S'OF'
p5045
sg10
VPP
p5046
sg12
I16
sg13
Nsbag3
(g4
g5
NtRp5047
(dp5048
g8
g5045
sg10
VIN
p5049
sg12
I20
sg13
VOF
p5050
sbag3
(g4
g5
NtRp5051
(dp5052
g8
S'OLOMOUC'
p5053
sg10
VNP
p5054
sg12
I20
sg13
VOLOMOUC
p5055
sbag3
(g4
g5
NtRp5056
(dp5057
g8
g5053
sg10
VNNP
p5058
sg12
I22
sg13
VOLOMOUC
p5059
sbag3
(g4
g5
NtRp5060
(dp5061
g8
S'.'
sg10
V.
sg12
I1
sg13
V.
sba(lp5062
(lp5063
I1
aa(lp5064
I2
aI8
aI9
aI12
aI24
aa(lp5065
I3
aI4
aa(lp5066
a(lp5067
I5
aI6
aI7
aa(lp5068
a(lp5069
a(lp5070
a(lp5071
a(lp5072
I10
aI11
aa(lp5073
a(lp5074
a(lp5075
I13
aI14
aa(lp5076
a(lp5077
I15
aI16
aa(lp5078
a(lp5079
I17
aI20
aa(lp5080
I18
aI19
aa(lp5081
a(lp5082
a(lp5083
I21
aI22
aa(lp5084
a(lp5085
I23
aa(lp5086
a(lp5087
a(lp5088
NaNaNaNag143
aNaNaNaNaNaNaNaNaNaNaNaNaNaNag144
aNaNaNaNaNaI1
tp5089
a(g4966
g5062
(lp5090
NaNaNaNaNaNaNaNaNag143
aNaNaNaNaNaNaNaNaNag144
aNaNaNaNaNaI1
tp5091
a(g4966
g5062
(lp5092
NaNaNaNaNaNaNaNaNaNaNaNaNaNaNaNag143
aNaNag144
aNaNaNaNaNaI16
tp5093
a((lp5094
g3
(g4
g5
NtRp5095
(dp5096
g8
V WILLIAM WAS EDUCATED AT WESTMINSTER SCHOOL AND AT CHRIST CHURCH , OXFORD .
p5097
sg10
VROOT
p5098
sg12
Nsg13
Nsbag3
(g4
g5
NtRp5099
(dp5100
g8
V WILLIAM WAS EDUCATED AT WESTMINSTER SCHOOL AND AT CHRIST CHURCH , OXFORD .
p5101
sg10
VS
sg12
I0
sg13
Nsbag3
(g4
g5
NtRp5102
(dp5103
g8
VWILLIAM
p5104
sg10
VNP
p5105
sg12
I1
sg13
Nsbag3
(g4
g5
NtRp5106
(dp5107
g8
g5104
sg10
VNNP
p5108
sg12
I2
sg13
Nsbag3
(g4
g5
NtRp5109
(dp5110
g8
S'BE'
p5111
sg10
VVP
p5112
sg12
I1
sg13
Nsbag3
(g4
g5
NtRp5113
(dp5114
g8
g5111
sg10
VVBD
p5115
sg12
I4
sg13
VWAS
p5116
sbag3
(g4
g5
NtRp5117
(dp5118
g8
S'EDUCATE'
p5119
sg10
VVP
p5120
sg12
I4
sg13
Nsbag3
(g4
g5
NtRp5121
(dp5122
g8
g5119
sg10
VVBN
p5123
sg12
I6
sg13
VEDUCATED
p5124
sbag3
(g4
g5
NtRp5125
(dp5126
g8
S'AT'
p5127
sg10
VPP
p5128
sg12
I6
sg13
Nsbag3
(g4
g5
NtRp5129
(dp5130
g8
g5127
sg10
VPP
p5131
sg12
I8
sg13
Nsbag3
(g4
g5
NtRp5132
(dp5133
g8
g5127
sg10
VIN
p5134
sg12
I9
sg13
VAT
p5135
sbag3
(g4
g5
NtRp5136
(dp5137
g8
S'WESTMINSTER'
p5138
sg10
VNP
p5139
sg12
I9
sg13
Nsbag3
(g4
g5
NtRp5140
(dp5141
g8
g5138
sg10
VNNP
p5142
sg12
I11
sg13
VWESTMINSTER
p5143
sbag3
(g4
g5
NtRp5144
(dp5145
g8
S'SCHOOL'
p5146
sg10
VNNP
p5147
sg12
I11
sg13
VSCHOOL
p5148
sbag3
(g4
g5
NtRp5149
(dp5150
g8
S'AND'
p5151
sg10
VCC
p5152
sg12
I8
sg13
VAND
p5153
sbag3
(g4
g5
NtRp5154
(dp5155
g8
g5127
sg10
VPP
p5156
sg12
I8
sg13
Nsbag3
(g4
g5
NtRp5157
(dp5158
g8
g5127
sg10
VIN
p5159
sg12
I15
sg13
VAT
p5160
sbag3
(g4
g5
NtRp5161
(dp5162
g8
S'CHRIST'
p5163
sg10
VNP
p5164
sg12
I15
sg13
Nsbag3
(g4
g5
NtRp5165
(dp5166
g8
g5163
sg10
VNP
p5167
sg12
I17
sg13
Nsbag3
(g4
g5
NtRp5168
(dp5169
g8
g5163
sg10
VNNP
p5170
sg12
I18
sg13
VCHRIST
p5171
sbag3
(g4
g5
NtRp5172
(dp5173
g8
S'CHURCH'
p5174
sg10
VNNP
p5175
sg12
I18
sg13
VCHURCH
p5176
sbag3
(g4
g5
NtRp5177
(dp5178
g8
S','
sg10
V,
sg12
I17
sg13
V,
sbag3
(g4
g5
NtRp5179
(dp5180
g8
S'OXFORD'
p5181
sg10
VNP
p5182
sg12
I17
sg13
VOXFORD
p5183
sbag3
(g4
g5
NtRp5184
(dp5185
g8
g5181
sg10
VNNP
p5186
sg12
I22
sg13
VOXFORD
p5187
sbag3
(g4
g5
NtRp5188
(dp5189
g8
S'.'
sg10
V.
sg12
I1
sg13
V.
sba(lp5190
(lp5191
I1
aa(lp5192
I2
aI4
aI24
aa(lp5193
I3
aa(lp5194
a(lp5195
I5
aI6
aa(lp5196
a(lp5197
I7
aI8
aa(lp5198
a(lp5199
I9
aI14
aI15
aa(lp5200
I10
aI11
aa(lp5201
a(lp5202
I12
aI13
aa(lp5203
a(lp5204
a(lp5205
a(lp5206
I16
aI17
aa(lp5207
a(lp5208
I18
aI21
aI22
aa(lp5209
I19
aI20
aa(lp5210
a(lp5211
a(lp5212
a(lp5213
I23
aa(lp5214
a(lp5215
a(lp5216
NaNag143
aNaNaNaNaNaNaNaNaNag144
aNaNaNaNaNaNaNaNaNaNaNaNaI1
tp5217
a(g5094
g5190
(lp5218
NaNaNaNaNaNaNaNaNaNaNaNag144
aNaNaNaNag143
aNaNaNaNaNaNaNaI8
tp5219
a(g5094
g5190
(lp5220
NaNaNaNaNaNaNaNaNaNaNaNag144
aNaNaNaNaNaNaNaNaNag143
aNaNaI8
tp5221
a(g5094
g5190
(lp5222
NaNag143
aNaNaNaNaNaNaNaNaNaNaNaNaNaNaNaNag144
aNaNaNaNaNaI1
tp5223
a(g5094
g5190
(lp5224
NaNaNaNaNaNaNaNaNaNaNaNaNaNaNaNaNag143
aNag144
aNaNaNaNaNaI17
tp5225
a(g5094
g5190
(lp5226
NaNaNaNaNaNaNaNaNaNaNaNaNaNaNaNaNaNaNag144
aNaNag143
aNaNaI17
tp5227
a((lp5228
g3
(g4
g5
NtRp5229
(dp5230
g8
V TYCHO BRAHE ENTERED TRINITY COLLEGE , CAMBRIDGE IN 1573 , AND GRADUATED B.A.
p5231
sg10
VROOT
p5232
sg12
Nsg13
Nsbag3
(g4
g5
NtRp5233
(dp5234
g8
V TYCHO BRAHE ENTERED TRINITY COLLEGE , CAMBRIDGE IN 1573 , AND GRADUATED B.A.
p5235
sg10
VS
sg12
I0
sg13
Nsbag3
(g4
g5
NtRp5236
(dp5237
g8
VTYCHO
p5238
sg10
VNP
p5239
sg12
I1
sg13
Nsbag3
(g4
g5
NtRp5240
(dp5241
g8
g5238
sg10
VNNP
p5242
sg12
I2
sg13
Nsbag3
(g4
g5
NtRp5243
(dp5244
g8
S'BRAHE'
p5245
sg10
VNNP
p5246
sg12
I2
sg13
VBRAHE
p5247
sbag3
(g4
g5
NtRp5248
(dp5249
g8
S'ENTER'
p5250
sg10
VVP
p5251
sg12
I1
sg13
Nsbag3
(g4
g5
NtRp5252
(dp5253
g8
g5250
sg10
VVP
p5254
sg12
I5
sg13
Nsbag3
(g4
g5
NtRp5255
(dp5256
g8
g5250
sg10
VVBD
p5257
sg12
I6
sg13
VENTERED
p5258
sbag3
(g4
g5
NtRp5259
(dp5260
g8
S'TRINITY'
p5261
sg10
VNP
p5262
sg12
I6
sg13
Nsbag3
(g4
g5
NtRp5263
(dp5264
g8
g5261
sg10
VNP
p5265
sg12
I8
sg13
Nsbag3
(g4
g5
NtRp5266
(dp5267
g8
g5261
sg10
VNNP
p5268
sg12
I9
sg13
VTRINITY
p5269
sbag3
(g4
g5
NtRp5270
(dp5271
g8
S'COLLEGE'
p5272
sg10
VNNP
p5273
sg12
I9
sg13
VCOLLEGE
p5274
sbag3
(g4
g5
NtRp5275
(dp5276
g8
S','
sg10
V,
sg12
I8
sg13
V,
sbag3
(g4
g5
NtRp5277
(dp5278
g8
S'CAMBRIDGE'
p5279
sg10
VNP
p5280
sg12
I8
sg13
Nsbag3
(g4
g5
NtRp5281
(dp5282
g8
g5279
sg10
VNP
p5283
sg12
I13
sg13
VCAMBRIDGE
p5284
sbag3
(g4
g5
NtRp5285
(dp5286
g8
g5279
sg10
VNNP
p5287
sg12
I14
sg13
VCAMBRIDGE
p5288
sbag3
(g4
g5
NtRp5289
(dp5290
g8
S'IN'
p5291
sg10
VPP
p5292
sg12
I13
sg13
Nsbag3
(g4
g5
NtRp5293
(dp5294
g8
g5291
sg10
VIN
p5295
sg12
I16
sg13
VIN
p5296
sbag3
(g4
g5
NtRp5297
(dp5298
g8
S'1573'
p5299
sg10
VNP
p5300
sg12
I16
sg13
V1573
p5301
sbag3
(g4
g5
NtRp5302
(dp5303
g8
g5299
sg10
VCD
p5304
sg12
I18
sg13
V1573
p5305
sbag3
(g4
g5
NtRp5306
(dp5307
g8
S','
sg10
V,
sg12
I8
sg13
V,
sbag3
(g4
g5
NtRp5308
(dp5309
g8
S'AND'
p5310
sg10
VCC
p5311
sg12
I5
sg13
VAND
p5312
sbag3
(g4
g5
NtRp5313
(dp5314
g8
S'GRADUATE'
p5315
sg10
VVP
p5316
sg12
I5
sg13
Nsbag3
(g4
g5
NtRp5317
(dp5318
g8
g5315
sg10
VVBD
p5319
sg12
I22
sg13
VGRADUATED
p5320
sbag3
(g4
g5
NtRp5321
(dp5322
g8
S'B.A.'
p5323
sg10
VNP
p5324
sg12
I22
sg13
VB.A.
p5325
sbag3
(g4
g5
NtRp5326
(dp5327
g8
g5323
sg10
VNNP
p5328
sg12
I24
sg13
VB.A.
p5329
sba(lp5330
(lp5331
I1
aa(lp5332
I2
aI5
aa(lp5333
I3
aI4
aa(lp5334
a(lp5335
a(lp5336
I6
aI21
aI22
aa(lp5337
I7
aI8
aa(lp5338
a(lp5339
I9
aI12
aI13
aI20
aa(lp5340
I10
aI11
aa(lp5341
a(lp5342
a(lp5343
a(lp5344
I14
aI16
aa(lp5345
I15
aa(lp5346
a(lp5347
I17
aI18
aa(lp5348
a(lp5349
I19
aa(lp5350
a(lp5351
a(lp5352
a(lp5353
I23
aI24
aa(lp5354
a(lp5355
I25
aa(lp5356
a(lp5357
NaNag143
aNaNaNaNaNaNaNag144
aNaNaNaNaNaNaNaNaNaNaNaNaNaNaNaI1
tp5358
a(g5228
g5330
(lp5359
NaNaNaNaNaNaNaNag143
aNag144
aNaNaNaNaNaNaNaNaNaNaNaNaNaNaNaI8
tp5360
a(g5228
g5330
(lp5361
NaNaNaNaNaNaNaNaNaNag144
aNaNag143
aNaNaNaNaNaNaNaNaNaNaNaNaI8
tp5362
a(g5228
g5330
(lp5363
NaNaNaNaNaNaNaNaNaNag144
aNaNaNag143
aNaNaNaNaNaNaNaNaNaNaNaI8
tp5364
a(g5228
g5330
(lp5365
NaNaNaNaNaNaNaNaNaNag144
aNaNaNaNaNaNaNag143
aNaNaNaNaNaNaNaI8
tp5366
a(g5228
g5330
(lp5367
NaNaNaNaNaNaNaNaNaNag144
aNaNaNaNaNaNaNaNaNaNaNaNaNag143
aNaI5
tp5368
a((lp5369
g3
(g4
g5
NtRp5370
(dp5371
g8
V THOMAS BEST WAS EDUCATED AT UNIVERSITY COLLEGE , OXFORD .
p5372
sg10
VROOT
p5373
sg12
Nsg13
Nsbag3
(g4
g5
NtRp5374
(dp5375
g8
V THOMAS BEST WAS EDUCATED AT UNIVERSITY COLLEGE , OXFORD .
p5376
sg10
VS
sg12
I0
sg13
Nsbag3
(g4
g5
NtRp5377
(dp5378
g8
VTHOMAS
p5379
sg10
VNP
p5380
sg12
I1
sg13
Nsbag3
(g4
g5
NtRp5381
(dp5382
g8
g5379
sg10
VNNP
p5383
sg12
I2
sg13
Nsbag3
(g4
g5
NtRp5384
(dp5385
g8
S'BEST'
p5386
sg10
VNN
p5387
sg12
I2
sg13
VBEST
p5388
sbag3
(g4
g5
NtRp5389
(dp5390
g8
S'BE'
p5391
sg10
VVP
p5392
sg12
I1
sg13
Nsbag3
(g4
g5
NtRp5393
(dp5394
g8
g5391
sg10
VVBD
p5395
sg12
I5
sg13
VWAS
p5396
sbag3
(g4
g5
NtRp5397
(dp5398
g8
S'EDUCATE'
p5399
sg10
VVP
p5400
sg12
I5
sg13
Nsbag3
(g4
g5
NtRp5401
(dp5402
g8
g5399
sg10
VVBN
p5403
sg12
I7
sg13
VEDUCATED
p5404
sbag3
(g4
g5
NtRp5405
(dp5406
g8
S'AT'
p5407
sg10
VPP
p5408
sg12
I7
sg13
Nsbag3
(g4
g5
NtRp5409
(dp5410
g8
g5407
sg10
VIN
p5411
sg12
I9
sg13
VAT
p5412
sbag3
(g4
g5
NtRp5413
(dp5414
g8
S'UNIVERSITY'
p5415
sg10
VNP
p5416
sg12
I9
sg13
Nsbag3
(g4
g5
NtRp5417
(dp5418
g8
g5415
sg10
VNP
p5419
sg12
I11
sg13
Nsbag3
(g4
g5
NtRp5420
(dp5421
g8
g5415
sg10
VNNP
p5422
sg12
I12
sg13
VUNIVERSITY
p5423
sbag3
(g4
g5
NtRp5424
(dp5425
g8
S'COLLEGE'
p5426
sg10
VNNP
p5427
sg12
I12
sg13
VCOLLEGE
p5428
sbag3
(g4
g5
NtRp5429
(dp5430
g8
S','
sg10
V,
sg12
I11
sg13
V,
sbag3
(g4
g5
NtRp5431
(dp5432
g8
S'OXFORD'
p5433
sg10
VNP
p5434
sg12
I11
sg13
VOXFORD
p5435
sbag3
(g4
g5
NtRp5436
(dp5437
g8
g5433
sg10
VNNP
p5438
sg12
I16
sg13
VOXFORD
p5439
sbag3
(g4
g5
NtRp5440
(dp5441
g8
S'.'
sg10
V.
sg12
I1
sg13
V.
sba(lp5442
(lp5443
I1
aa(lp5444
I2
aI5
aI18
aa(lp5445
I3
aI4
aa(lp5446
a(lp5447
a(lp5448
I6
aI7
aa(lp5449
a(lp5450
I8
aI9
aa(lp5451
a(lp5452
I10
aI11
aa(lp5453
a(lp5454
I12
aI15
aI16
aa(lp5455
I13
aI14
aa(lp5456
a(lp5457
a(lp5458
a(lp5459
I17
aa(lp5460
a(lp5461
a(lp5462
NaNag143
aNaNaNaNaNaNaNaNaNaNag144
aNaNaNaNaNaI1
tp5463
a(g5369
g5442
(lp5464
NaNaNaNag143
aNaNaNaNaNaNaNaNag144
aNaNaNaNaNaI1
tp5465
a(g5369
g5442
(lp5466
NaNaNaNaNaNaNaNaNaNaNag143
aNag144
aNaNaNaNaNaI11
tp5467
a(g5369
g5442
(lp5468
NaNaNaNaNaNaNaNaNaNaNaNaNag144
aNaNag143
aNaNaI11
tp5469
a((lp5470
g3
(g4
g5
NtRp5471
(dp5472
g8
V AFTER THIS , MURTUZA MUKHTAROV CONTINUED HIS EDUCATION AT THE SORBONNE UNIVERSITY IN PARIS .
p5473
sg10
VROOT
p5474
sg12
Nsg13
Nsbag3
(g4
g5
NtRp5475
(dp5476
g8
V AFTER THIS , MURTUZA MUKHTAROV CONTINUED HIS EDUCATION AT THE SORBONNE UNIVERSITY IN PARIS .
p5477
sg10
VS
sg12
I0
sg13
Nsbag3
(g4
g5
NtRp5478
(dp5479
g8
VAFTER
p5480
sg10
VPP
p5481
sg12
I1
sg13
Nsbag3
(g4
g5
NtRp5482
(dp5483
g8
g5480
sg10
VIN
p5484
sg12
I2
sg13
Nsbag3
(g4
g5
NtRp5485
(dp5486
g8
S'THIS'
p5487
sg10
VNP
p5488
sg12
I2
sg13
VTHIS
p5489
sbag3
(g4
g5
NtRp5490
(dp5491
g8
g5487
sg10
VDT
p5492
sg12
I4
sg13
VTHIS
p5493
sbag3
(g4
g5
NtRp5494
(dp5495
g8
S','
sg10
V,
sg12
I1
sg13
V,
sbag3
(g4
g5
NtRp5496
(dp5497
g8
S'MURTUZA'
p5498
sg10
VNP
p5499
sg12
I1
sg13
Nsbag3
(g4
g5
NtRp5500
(dp5501
g8
g5498
sg10
VNNP
p5502
sg12
I7
sg13
VMURTUZA
p5503
sbag3
(g4
g5
NtRp5504
(dp5505
g8
S'MUKHTAROV'
p5506
sg10
VNNP
p5507
sg12
I7
sg13
VMUKHTAROV
p5508
sbag3
(g4
g5
NtRp5509
(dp5510
g8
S'CONTINUE'
p5511
sg10
VVP
p5512
sg12
I1
sg13
Nsbag3
(g4
g5
NtRp5513
(dp5514
g8
g5511
sg10
VVBD
p5515
sg12
I10
sg13
VCONTINUED
p5516
sbag3
(g4
g5
NtRp5517
(dp5518
g8
S'EDUCATION'
p5519
sg10
VNP
p5520
sg12
I10
sg13
Nsbag3
(g4
g5
NtRp5521
(dp5522
g8
S'HE'
p5523
sg10
VPRP$
p5524
sg12
I12
sg13
VHIS
p5525
sbag3
(g4
g5
NtRp5526
(dp5527
g8
g5519
sg10
VNN
p5528
sg12
I12
sg13
VEDUCATION
p5529
sbag3
(g4
g5
NtRp5530
(dp5531
g8
S'AT'
p5532
sg10
VPP
p5533
sg12
I10
sg13
Nsbag3
(g4
g5
NtRp5534
(dp5535
g8
g5532
sg10
VIN
p5536
sg12
I15
sg13
VAT
p5537
sbag3
(g4
g5
NtRp5538
(dp5539
g8
S'SORBONNE'
p5540
sg10
VNP
p5541
sg12
I15
sg13
Nsbag3
(g4
g5
NtRp5542
(dp5543
g8
S'THE'
p5544
sg10
VDT
p5545
sg12
I17
sg13
VTHE
p5546
sbag3
(g4
g5
NtRp5547
(dp5548
g8
g5540
sg10
VNNP
p5549
sg12
I17
sg13
VSORBONNE
p5550
sbag3
(g4
g5
NtRp5551
(dp5552
g8
S'UNIVERSITY'
p5553
sg10
VNNP
p5554
sg12
I17
sg13
VUNIVERSITY
p5555
sbag3
(g4
g5
NtRp5556
(dp5557
g8
S'IN'
p5558
sg10
VPP
p5559
sg12
I10
sg13
Nsbag3
(g4
g5
NtRp5560
(dp5561
g8
g5558
sg10
VIN
p5562
sg12
I21
sg13
VIN
p5563
sbag3
(g4
g5
NtRp5564
(dp5565
g8
S'PARIS'
p5566
sg10
VNP
p5567
sg12
I21
sg13
VPARIS
p5568
sbag3
(g4
g5
NtRp5569
(dp5570
g8
g5566
sg10
VNNP
p5571
sg12
I23
sg13
VPARIS
p5572
sbag3
(g4
g5
NtRp5573
(dp5574
g8
S'.'
sg10
V.
sg12
I1
sg13
V.
sba(lp5575
(lp5576
I1
aa(lp5577
I2
aI6
aI7
aI10
aI25
aa(lp5578
I3
aI4
aa(lp5579
a(lp5580
I5
aa(lp5581
a(lp5582
a(lp5583
I8
aI9
aa(lp5584
a(lp5585
a(lp5586
I11
aI12
aI15
aI21
aa(lp5587
a(lp5588
I13
aI14
aa(lp5589
a(lp5590
a(lp5591
I16
aI17
aa(lp5592
a(lp5593
I18
aI19
aI20
aa(lp5594
a(lp5595
a(lp5596
a(lp5597
I22
aI23
aa(lp5598
a(lp5599
I24
aa(lp5600
a(lp5601
a(lp5602
NaNaNaNag143
aNaNaNaNaNaNaNaNaNaNaNaNaNaNag144
aNaNaNaNaNaNaI1
tp5603
a(g5470
g5575
(lp5604
NaNaNaNaNaNaNag143
aNaNaNaNaNaNaNaNaNaNaNag144
aNaNaNaNaNaNaI1
tp5605
a(g5470
g5575
(lp5606
NaNaNaNaNaNaNaNaNaNaNaNag143
aNaNaNaNaNaNag144
aNaNaNaNaNaNaI10
tp5607
a(g5470
g5575
(lp5608
NaNaNaNaNaNaNaNaNaNaNaNaNaNag143
aNaNaNaNag144
aNaNaNaNaNaNaI10
tp5609
a(g5470
g5575
(lp5610
NaNaNaNaNaNaNaNaNaNaNaNaNaNaNaNaNaNaNag144
aNaNaNag143
aNaNaI10
tp5611
a((lp5612
g3
(g4
g5
NtRp5613
(dp5614
g8
V DUNSANY ALSO RECEIVED AN HONORARY DOCTORATE FROM TRINITY COLLEGE DUBLIN .
p5615
sg10
VROOT
p5616
sg12
Nsg13
Nsbag3
(g4
g5
NtRp5617
(dp5618
g8
V DUNSANY ALSO RECEIVED AN HONORARY DOCTORATE FROM TRINITY COLLEGE DUBLIN .
p5619
sg10
VS
sg12
I0
sg13
Nsbag3
(g4
g5
NtRp5620
(dp5621
g8
VDUNSANY
p5622
sg10
VNP
p5623
sg12
I1
sg13
Nsbag3
(g4
g5
NtRp5624
(dp5625
g8
g5622
sg10
VNNP
p5626
sg12
I2
sg13
Nsbag3
(g4
g5
NtRp5627
(dp5628
g8
S'ALSO'
p5629
sg10
VADVP
p5630
sg12
I1
sg13
VALSO
p5631
sbag3
(g4
g5
NtRp5632
(dp5633
g8
g5629
sg10
VRB
p5634
sg12
I4
sg13
VALSO
p5635
sbag3
(g4
g5
NtRp5636
(dp5637
g8
S'RECEIVE'
p5638
sg10
VVP
p5639
sg12
I1
sg13
Nsbag3
(g4
g5
NtRp5640
(dp5641
g8
g5638
sg10
VVBD
p5642
sg12
I6
sg13
VRECEIVED
p5643
sbag3
(g4
g5
NtRp5644
(dp5645
g8
S'DOCTORATE'
p5646
sg10
VNP
p5647
sg12
I6
sg13
Nsbag3
(g4
g5
NtRp5648
(dp5649
g8
S'A'
sg10
VDT
p5650
sg12
I8
sg13
VAN
p5651
sbag3
(g4
g5
NtRp5652
(dp5653
g8
S'HONORARY'
p5654
sg10
VJJ
p5655
sg12
I8
sg13
VHONORARY
p5656
sbag3
(g4
g5
NtRp5657
(dp5658
g8
g5646
sg10
VNN
p5659
sg12
I8
sg13
VDOCTORATE
p5660
sbag3
(g4
g5
NtRp5661
(dp5662
g8
S'FROM'
p5663
sg10
VPP
p5664
sg12
I6
sg13
Nsbag3
(g4
g5
NtRp5665
(dp5666
g8
g5663
sg10
VIN
p5667
sg12
I12
sg13
VFROM
p5668
sbag3
(g4
g5
NtRp5669
(dp5670
g8
S'TRINITY'
p5671
sg10
VNP
p5672
sg12
I12
sg13
Nsbag3
(g4
g5
NtRp5673
(dp5674
g8
g5671
sg10
VNNP
p5675
sg12
I14
sg13
VTRINITY
p5676
sbag3
(g4
g5
NtRp5677
(dp5678
g8
S'COLLEGE'
p5679
sg10
VNNP
p5680
sg12
I14
sg13
VCOLLEGE
p5681
sbag3
(g4
g5
NtRp5682
(dp5683
g8
S'DUBLIN'
p5684
sg10
VNNP
p5685
sg12
I14
sg13
VDUBLIN
p5686
sbag3
(g4
g5
NtRp5687
(dp5688
g8
S'.'
sg10
V.
sg12
I1
sg13
V.
sba(lp5689
(lp5690
I1
aa(lp5691
I2
aI4
aI6
aI18
aa(lp5692
I3
aa(lp5693
a(lp5694
I5
aa(lp5695
a(lp5696
I7
aI8
aI12
aa(lp5697
a(lp5698
I9
aI10
aI11
aa(lp5699
a(lp5700
a(lp5701
a(lp5702
I13
aI14
aa(lp5703
a(lp5704
I15
aI16
aI17
aa(lp5705
a(lp5706
a(lp5707
a(lp5708
a(lp5709
NaNag143
aNaNaNaNaNaNaNaNaNaNaNaNag144
aNaNaNaI1
tp5710
a(g5612
g5689
(lp5711
NaNaNaNaNaNaNaNag143
aNaNaNaNaNaNag144
aNaNaNaI6
tp5712
a(g5612
g5689
(lp5713
NaNaNaNaNaNaNaNaNaNaNag143
aNaNaNag144
aNaNaNaI6
tp5714
a((lp5715
g3
(g4
g5
NtRp5716
(dp5717
g8
V REDMOND WAS EDUCATED AT CLONGOWES WOOD COLLEGE AND TRINITY COLLEGE DUBLIN .
p5718
sg10
VROOT
p5719
sg12
Nsg13
Nsbag3
(g4
g5
NtRp5720
(dp5721
g8
V REDMOND WAS EDUCATED AT CLONGOWES WOOD COLLEGE AND TRINITY COLLEGE DUBLIN .
p5722
sg10
VS
sg12
I0
sg13
Nsbag3
(g4
g5
NtRp5723
(dp5724
g8
VREDMOND
p5725
sg10
VNP
p5726
sg12
I1
sg13
Nsbag3
(g4
g5
NtRp5727
(dp5728
g8
g5725
sg10
VNNP
p5729
sg12
I2
sg13
Nsbag3
(g4
g5
NtRp5730
(dp5731
g8
S'BE'
p5732
sg10
VVP
p5733
sg12
I1
sg13
Nsbag3
(g4
g5
NtRp5734
(dp5735
g8
g5732
sg10
VVBD
p5736
sg12
I4
sg13
VWAS
p5737
sbag3
(g4
g5
NtRp5738
(dp5739
g8
S'EDUCATE'
p5740
sg10
VVP
p5741
sg12
I4
sg13
Nsbag3
(g4
g5
NtRp5742
(dp5743
g8
g5740
sg10
VVBN
p5744
sg12
I6
sg13
VEDUCATED
p5745
sbag3
(g4
g5
NtRp5746
(dp5747
g8
S'AT'
p5748
sg10
VPP
p5749
sg12
I6
sg13
Nsbag3
(g4
g5
NtRp5750
(dp5751
g8
g5748
sg10
VIN
p5752
sg12
I8
sg13
VAT
p5753
sbag3
(g4
g5
NtRp5754
(dp5755
g8
S'CLONGOWES'
p5756
sg10
VNP
p5757
sg12
I8
sg13
Nsbag3
(g4
g5
NtRp5758
(dp5759
g8
g5756
sg10
VNP
p5760
sg12
I10
sg13
Nsbag3
(g4
g5
NtRp5761
(dp5762
g8
g5756
sg10
VNNP
p5763
sg12
I11
sg13
VCLONGOWES
p5764
sbag3
(g4
g5
NtRp5765
(dp5766
g8
S'WOOD'
p5767
sg10
VNNP
p5768
sg12
I11
sg13
VWOOD
p5769
sbag3
(g4
g5
NtRp5770
(dp5771
g8
S'COLLEGE'
p5772
sg10
VNNP
p5773
sg12
I11
sg13
VCOLLEGE
p5774
sbag3
(g4
g5
NtRp5775
(dp5776
g8
S'AND'
p5777
sg10
VCC
p5778
sg12
I10
sg13
VAND
p5779
sbag3
(g4
g5
NtRp5780
(dp5781
g8
S'TRINITY'
p5782
sg10
VNP
p5783
sg12
I10
sg13
Nsbag3
(g4
g5
NtRp5784
(dp5785
g8
g5782
sg10
VNNP
p5786
sg12
I16
sg13
VTRINITY
p5787
sbag3
(g4
g5
NtRp5788
(dp5789
g8
g5772
sg10
VNNP
p5790
sg12
I16
sg13
VCOLLEGE
p5791
sbag3
(g4
g5
NtRp5792
(dp5793
g8
S'DUBLIN'
p5794
sg10
VNNP
p5795
sg12
I16
sg13
VDUBLIN
p5796
sbag3
(g4
g5
NtRp5797
(dp5798
g8
S'.'
sg10
V.
sg12
I1
sg13
V.
sba(lp5799
(lp5800
I1
aa(lp5801
I2
aI4
aI20
aa(lp5802
I3
aa(lp5803
a(lp5804
I5
aI6
aa(lp5805
a(lp5806
I7
aI8
aa(lp5807
a(lp5808
I9
aI10
aa(lp5809
a(lp5810
I11
aI15
aI16
aa(lp5811
I12
aI13
aI14
aa(lp5812
a(lp5813
a(lp5814
a(lp5815
a(lp5816
I17
aI18
aI19
aa(lp5817
a(lp5818
a(lp5819
a(lp5820
a(lp5821
NaNag143
aNaNaNaNaNaNaNaNaNag144
aNaNaNaNaNaNaNaNaI1
tp5822
a(g5715
g5799
(lp5823
NaNaNaNaNaNaNaNaNaNag143
aNag144
aNaNaNaNaNaNaNaNaI10
tp5824
a(g5715
g5799
(lp5825
NaNag143
aNaNaNaNaNaNaNaNaNaNaNaNaNaNag144
aNaNaNaI1
tp5826
a(g5715
g5799
(lp5827
NaNaNaNaNaNaNaNaNaNag143
aNaNaNaNaNaNag144
aNaNaNaI10
tp5828
a((lp5829
g3
(g4
g5
NtRp5830
(dp5831
g8
V GARLAND GRADUATED FIRST IN HIS CLASS FROM HARVARD COLLEGE WITH AN A.B.
p5832
sg10
VROOT
p5833
sg12
Nsg13
Nsbag3
(g4
g5
NtRp5834
(dp5835
g8
V GARLAND GRADUATED FIRST IN HIS CLASS FROM HARVARD COLLEGE WITH AN A.B.
p5836
sg10
VS
sg12
I0
sg13
Nsbag3
(g4
g5
NtRp5837
(dp5838
g8
VGARLAND
p5839
sg10
VNP
p5840
sg12
I1
sg13
Nsbag3
(g4
g5
NtRp5841
(dp5842
g8
g5839
sg10
VNNP
p5843
sg12
I2
sg13
Nsbag3
(g4
g5
NtRp5844
(dp5845
g8
S'GRADUATE'
p5846
sg10
VVP
p5847
sg12
I1
sg13
Nsbag3
(g4
g5
NtRp5848
(dp5849
g8
g5846
sg10
VVBD
p5850
sg12
I4
sg13
VGRADUATED
p5851
sbag3
(g4
g5
NtRp5852
(dp5853
g8
S'FIRST'
p5854
sg10
VADVP
p5855
sg12
I4
sg13
VFIRST
p5856
sbag3
(g4
g5
NtRp5857
(dp5858
g8
g5854
sg10
VRB
p5859
sg12
I6
sg13
VFIRST
p5860
sbag3
(g4
g5
NtRp5861
(dp5862
g8
S'IN'
p5863
sg10
VPP
p5864
sg12
I4
sg13
Nsbag3
(g4
g5
NtRp5865
(dp5866
g8
g5863
sg10
VIN
p5867
sg12
I8
sg13
VIN
p5868
sbag3
(g4
g5
NtRp5869
(dp5870
g8
S'CLASS'
p5871
sg10
VNP
p5872
sg12
I8
sg13
Nsbag3
(g4
g5
NtRp5873
(dp5874
g8
S'HE'
p5875
sg10
VPRP$
p5876
sg12
I10
sg13
VHIS
p5877
sbag3
(g4
g5
NtRp5878
(dp5879
g8
g5871
sg10
VNN
p5880
sg12
I10
sg13
VCLASS
p5881
sbag3
(g4
g5
NtRp5882
(dp5883
g8
S'FROM'
p5884
sg10
VPP
p5885
sg12
I4
sg13
Nsbag3
(g4
g5
NtRp5886
(dp5887
g8
g5884
sg10
VIN
p5888
sg12
I13
sg13
VFROM
p5889
sbag3
(g4
g5
NtRp5890
(dp5891
g8
S'HARVARD'
p5892
sg10
VNP
p5893
sg12
I13
sg13
Nsbag3
(g4
g5
NtRp5894
(dp5895
g8
g5892
sg10
VNP
p5896
sg12
I15
sg13
Nsbag3
(g4
g5
NtRp5897
(dp5898
g8
g5892
sg10
VNNP
p5899
sg12
I16
sg13
VHARVARD
p5900
sbag3
(g4
g5
NtRp5901
(dp5902
g8
S'COLLEGE'
p5903
sg10
VNNP
p5904
sg12
I16
sg13
VCOLLEGE
p5905
sbag3
(g4
g5
NtRp5906
(dp5907
g8
S'WITH'
p5908
sg10
VPP
p5909
sg12
I15
sg13
Nsbag3
(g4
g5
NtRp5910
(dp5911
g8
g5908
sg10
VIN
p5912
sg12
I19
sg13
VWITH
p5913
sbag3
(g4
g5
NtRp5914
(dp5915
g8
S'A.B.'
p5916
sg10
VNP
p5917
sg12
I19
sg13
Nsbag3
(g4
g5
NtRp5918
(dp5919
g8
S'A'
sg10
VDT
p5920
sg12
I21
sg13
VAN
p5921
sbag3
(g4
g5
NtRp5922
(dp5923
g8
g5916
sg10
VNNP
p5924
sg12
I21
sg13
VA.B.
p5925
sba(lp5926
(lp5927
I1
aa(lp5928
I2
aI4
aa(lp5929
I3
aa(lp5930
a(lp5931
I5
aI6
aI8
aI13
aa(lp5932
a(lp5933
I7
aa(lp5934
a(lp5935
I9
aI10
aa(lp5936
a(lp5937
I11
aI12
aa(lp5938
a(lp5939
a(lp5940
I14
aI15
aa(lp5941
a(lp5942
I16
aI19
aa(lp5943
I17
aI18
aa(lp5944
a(lp5945
a(lp5946
I20
aI21
aa(lp5947
a(lp5948
I22
aI23
aa(lp5949
a(lp5950
a(lp5951
NaNag143
aNaNaNaNaNaNaNaNaNaNaNaNaNaNag144
aNaNaNaNaNaNaI1
tp5952
a(g5829
g5926
(lp5953
NaNaNaNaNaNaNaNaNaNag143
aNaNaNaNaNaNag144
aNaNaNaNaNaNaI4
tp5954
a(g5829
g5926
(lp5955
NaNaNaNaNaNaNaNaNaNaNaNag143
aNaNaNaNag144
aNaNaNaNaNaNaI4
tp5956
a(g5829
g5926
(lp5957
NaNaNaNaNaNaNaNaNaNaNaNaNaNaNag143
aNag144
aNaNaNaNaNaNaI15
tp5958
a(g5829
g5926
(lp5959
NaNaNaNaNaNaNaNaNaNaNaNaNaNaNaNaNag144
aNaNaNag143
aNaNaI15
tp5960
a((lp5961
g3
(g4
g5
NtRp5962
(dp5963
g8
V ESHERICK TAUGHT AT THE UNIVERSITY OF OREGON BEFORE COMING TO UCSD IN 1990 .
p5964
sg10
VROOT
p5965
sg12
Nsg13
Nsbag3
(g4
g5
NtRp5966
(dp5967
g8
V ESHERICK TAUGHT AT THE UNIVERSITY OF OREGON BEFORE COMING TO UCSD IN 1990 .
p5968
sg10
VS
sg12
I0
sg13
Nsbag3
(g4
g5
NtRp5969
(dp5970
g8
VESHERICK
p5971
sg10
VNP
p5972
sg12
I1
sg13
Nsbag3
(g4
g5
NtRp5973
(dp5974
g8
g5971
sg10
VNNP
p5975
sg12
I2
sg13
Nsbag3
(g4
g5
NtRp5976
(dp5977
g8
S'TEACH'
p5978
sg10
VVP
p5979
sg12
I1
sg13
Nsbag3
(g4
g5
NtRp5980
(dp5981
g8
g5978
sg10
VVBD
p5982
sg12
I4
sg13
VTAUGHT
p5983
sbag3
(g4
g5
NtRp5984
(dp5985
g8
S'AT'
p5986
sg10
VPP
p5987
sg12
I4
sg13
Nsbag3
(g4
g5
NtRp5988
(dp5989
g8
g5986
sg10
VIN
p5990
sg12
I6
sg13
VAT
p5991
sbag3
(g4
g5
NtRp5992
(dp5993
g8
S'UNIVERSITY'
p5994
sg10
VNP
p5995
sg12
I6
sg13
Nsbag3
(g4
g5
NtRp5996
(dp5997
g8
g5994
sg10
VNP
p5998
sg12
I8
sg13
Nsbag3
(g4
g5
NtRp5999
(dp6000
g8
S'THE'
p6001
sg10
VDT
p6002
sg12
I9
sg13
VTHE
p6003
sbag3
(g4
g5
NtRp6004
(dp6005
g8
g5994
sg10
VNNP
p6006
sg12
I9
sg13
VUNIVERSITY
p6007
sbag3
(g4
g5
NtRp6008
(dp6009
g8
S'OF'
p6010
sg10
VPP
p6011
sg12
I8
sg13
Nsbag3
(g4
g5
NtRp6012
(dp6013
g8
g6010
sg10
VIN
p6014
sg12
I12
sg13
VOF
p6015
sbag3
(g4
g5
NtRp6016
(dp6017
g8
S'OREGON'
p6018
sg10
VNP
p6019
sg12
I12
sg13
VOREGON
p6020
sbag3
(g4
g5
NtRp6021
(dp6022
g8
g6018
sg10
VNNP
p6023
sg12
I14
sg13
VOREGON
p6024
sbag3
(g4
g5
NtRp6025
(dp6026
g8
S'BEFORE'
p6027
sg10
VPP
p6028
sg12
I4
sg13
Nsbag3
(g4
g5
NtRp6029
(dp6030
g8
g6027
sg10
VIN
p6031
sg12
I16
sg13
VBEFORE
p6032
sbag3
(g4
g5
NtRp6033
(dp6034
g8
S'COME'
p6035
sg10
VS
sg12
I16
sg13
Nsbag3
(g4
g5
NtRp6036
(dp6037
g8
g6035
sg10
VVP
p6038
sg12
I18
sg13
Nsbag3
(g4
g5
NtRp6039
(dp6040
g8
g6035
sg10
VVBG
p6041
sg12
I19
sg13
VCOMING
p6042
sbag3
(g4
g5
NtRp6043
(dp6044
g8
S'TO'
p6045
sg10
VPP
p6046
sg12
I19
sg13
Nsbag3
(g4
g5
NtRp6047
(dp6048
g8
g6045
sg10
VTO
p6049
sg12
I21
sg13
VTO
p6050
sbag3
(g4
g5
NtRp6051
(dp6052
g8
S'UCSD'
p6053
sg10
VNP
p6054
sg12
I21
sg13
VUCSD
p6055
sbag3
(g4
g5
NtRp6056
(dp6057
g8
g6053
sg10
VNNP
p6058
sg12
I23
sg13
VUCSD
p6059
sbag3
(g4
g5
NtRp6060
(dp6061
g8
S'IN'
p6062
sg10
VPP
p6063
sg12
I19
sg13
Nsbag3
(g4
g5
NtRp6064
(dp6065
g8
g6062
sg10
VIN
p6066
sg12
I25
sg13
VIN
p6067
sbag3
(g4
g5
NtRp6068
(dp6069
g8
S'1990'
p6070
sg10
VNP
p6071
sg12
I25
sg13
V1990
p6072
sbag3
(g4
g5
NtRp6073
(dp6074
g8
g6070
sg10
VCD
p6075
sg12
I27
sg13
V1990
p6076
sbag3
(g4
g5
NtRp6077
(dp6078
g8
S'.'
sg10
V.
sg12
I1
sg13
V.
sba(lp6079
(lp6080
I1
aa(lp6081
I2
aI4
aI29
aa(lp6082
I3
aa(lp6083
a(lp6084
I5
aI6
aI16
aa(lp6085
a(lp6086
I7
aI8
aa(lp6087
a(lp6088
I9
aI12
aa(lp6089
I10
aI11
aa(lp6090
a(lp6091
a(lp6092
I13
aI14
aa(lp6093
a(lp6094
I15
aa(lp6095
a(lp6096
I17
aI18
aa(lp6097
a(lp6098
I19
aa(lp6099
I20
aI21
aI25
aa(lp6100
a(lp6101
I22
aI23
aa(lp6102
a(lp6103
I24
aa(lp6104
a(lp6105
I26
aI27
aa(lp6106
a(lp6107
I28
aa(lp6108
a(lp6109
a(lp6110
NaNag143
aNaNaNaNaNaNaNaNag144
aNaNaNaNaNaNaNaNaNaNaNaNaNaNaNaNaNaNaI1
tp6111
a(g5961
g6079
(lp6112
NaNaNaNaNaNaNaNag143
aNaNag144
aNaNaNaNaNaNaNaNaNaNaNaNaNaNaNaNaNaNaI8
tp6113
a(g5961
g6079
(lp6114
NaNaNaNaNaNaNaNaNaNaNag144
aNaNaNaNaNaNaNaNaNaNaNaNaNaNaNag143
aNaNaI4
tp6115
a(g5961
g6079
(lp6116
NaNag143
aNaNaNaNaNaNaNaNaNaNaNaNaNaNaNaNaNaNaNaNag144
aNaNaNaNaNaNaI1
tp6117
a(g5961
g6079
(lp6118
NaNaNaNaNaNaNaNag143
aNaNaNaNaNaNaNaNaNaNaNaNaNaNag144
aNaNaNaNaNaNaI4
tp6119
a(g5961
g6079
(lp6120
NaNaNaNaNaNaNaNaNaNaNaNaNaNaNaNaNaNaNaNaNaNaNag144
aNaNaNag143
aNaNaI19
tp6121
a((lp6122
g3
(g4
g5
NtRp6123
(dp6124
g8
V LINDSAY GRADUATED FROM POLYTECHNIC HIGH SCHOOL IN RIVERSIDE IN 2003 .
p6125
sg10
VROOT
p6126
sg12
Nsg13
Nsbag3
(g4
g5
NtRp6127
(dp6128
g8
V LINDSAY GRADUATED FROM POLYTECHNIC HIGH SCHOOL IN RIVERSIDE IN 2003 .
p6129
sg10
VS
sg12
I0
sg13
Nsbag3
(g4
g5
NtRp6130
(dp6131
g8
VLINDSAY
p6132
sg10
VNP
p6133
sg12
I1
sg13
Nsbag3
(g4
g5
NtRp6134
(dp6135
g8
g6132
sg10
VNNP
p6136
sg12
I2
sg13
Nsbag3
(g4
g5
NtRp6137
(dp6138
g8
S'GRADUATE'
p6139
sg10
VVP
p6140
sg12
I1
sg13
Nsbag3
(g4
g5
NtRp6141
(dp6142
g8
g6139
sg10
VVBD
p6143
sg12
I4
sg13
VGRADUATED
p6144
sbag3
(g4
g5
NtRp6145
(dp6146
g8
S'FROM'
p6147
sg10
VPP
p6148
sg12
I4
sg13
Nsbag3
(g4
g5
NtRp6149
(dp6150
g8
g6147
sg10
VIN
p6151
sg12
I6
sg13
VFROM
p6152
sbag3
(g4
g5
NtRp6153
(dp6154
g8
S'POLYTECHNIC'
p6155
sg10
VNP
p6156
sg12
I6
sg13
Nsbag3
(g4
g5
NtRp6157
(dp6158
g8
g6155
sg10
VNP
p6159
sg12
I8
sg13
Nsbag3
(g4
g5
NtRp6160
(dp6161
g8
g6155
sg10
VNNP
p6162
sg12
I9
sg13
VPOLYTECHNIC
p6163
sbag3
(g4
g5
NtRp6164
(dp6165
g8
S'HIGH'
p6166
sg10
VNNP
p6167
sg12
I9
sg13
VHIGH
p6168
sbag3
(g4
g5
NtRp6169
(dp6170
g8
S'SCHOOL'
p6171
sg10
VNNP
p6172
sg12
I9
sg13
VSCHOOL
p6173
sbag3
(g4
g5
NtRp6174
(dp6175
g8
S'IN'
p6176
sg10
VPP
p6177
sg12
I8
sg13
Nsbag3
(g4
g5
NtRp6178
(dp6179
g8
g6176
sg10
VIN
p6180
sg12
I13
sg13
VIN
p6181
sbag3
(g4
g5
NtRp6182
(dp6183
g8
S'RIVERSIDE'
p6184
sg10
VNP
p6185
sg12
I13
sg13
VRIVERSIDE
p6186
sbag3
(g4
g5
NtRp6187
(dp6188
g8
g6184
sg10
VNNP
p6189
sg12
I15
sg13
VRIVERSIDE
p6190
sbag3
(g4
g5
NtRp6191
(dp6192
g8
g6176
sg10
VPP
p6193
sg12
I4
sg13
Nsbag3
(g4
g5
NtRp6194
(dp6195
g8
g6176
sg10
VIN
p6196
sg12
I17
sg13
VIN
p6197
sbag3
(g4
g5
NtRp6198
(dp6199
g8
S'2003'
p6200
sg10
VNP
p6201
sg12
I17
sg13
V2003
p6202
sbag3
(g4
g5
NtRp6203
(dp6204
g8
g6200
sg10
VCD
p6205
sg12
I19
sg13
V2003
p6206
sbag3
(g4
g5
NtRp6207
(dp6208
g8
S'.'
sg10
V.
sg12
I1
sg13
V.
sba(lp6209
(lp6210
I1
aa(lp6211
I2
aI4
aI21
aa(lp6212
I3
aa(lp6213
a(lp6214
I5
aI6
aI17
aa(lp6215
a(lp6216
I7
aI8
aa(lp6217
a(lp6218
I9
aI13
aa(lp6219
I10
aI11
aI12
aa(lp6220
a(lp6221
a(lp6222
a(lp6223
I14
aI15
aa(lp6224
a(lp6225
I16
aa(lp6226
a(lp6227
I18
aI19
aa(lp6228
a(lp6229
I20
aa(lp6230
a(lp6231
a(lp6232
NaNag143
aNaNaNaNaNaNaNag144
aNaNaNaNaNaNaNaNaNaNaNaI1
tp6233
a(g6122
g6209
(lp6234
NaNaNaNaNaNaNaNag143
aNag144
aNaNaNaNaNaNaNaNaNaNaNaI8
tp6235
a(g6122
g6209
(lp6236
NaNaNaNaNaNaNaNaNaNag144
aNaNaNaNag143
aNaNaNaNaNaNaI8
tp6237
a(g6122
g6209
(lp6238
NaNaNaNaNaNaNaNaNaNag144
aNaNaNaNaNaNaNaNag143
aNaNaI4
tp6239
a((lp6240
g3
(g4
g5
NtRp6241
(dp6242
g8
V TOM HOWARD ATTENDED CAMPION HIGH SCHOOL IN PRAIRIE DU CHIEN , WISCONSIN .
p6243
sg10
VROOT
p6244
sg12
Nsg13
Nsbag3
(g4
g5
NtRp6245
(dp6246
g8
V TOM HOWARD ATTENDED CAMPION HIGH SCHOOL IN PRAIRIE DU CHIEN , WISCONSIN .
p6247
sg10
VS
sg12
I0
sg13
Nsbag3
(g4
g5
NtRp6248
(dp6249
g8
VTOM
p6250
sg10
VNP
p6251
sg12
I1
sg13
Nsbag3
(g4
g5
NtRp6252
(dp6253
g8
g6250
sg10
VNNP
p6254
sg12
I2
sg13
Nsbag3
(g4
g5
NtRp6255
(dp6256
g8
S'HOWARD'
p6257
sg10
VNNP
p6258
sg12
I2
sg13
VHOWARD
p6259
sbag3
(g4
g5
NtRp6260
(dp6261
g8
S'ATTEND'
p6262
sg10
VVP
p6263
sg12
I1
sg13
Nsbag3
(g4
g5
NtRp6264
(dp6265
g8
g6262
sg10
VVBD
p6266
sg12
I5
sg13
VATTENDED
p6267
sbag3
(g4
g5
NtRp6268
(dp6269
g8
S'CAMPION'
p6270
sg10
VNP
p6271
sg12
I5
sg13
Nsbag3
(g4
g5
NtRp6272
(dp6273
g8
g6270
sg10
VNP
p6274
sg12
I7
sg13
Nsbag3
(g4
g5
NtRp6275
(dp6276
g8
g6270
sg10
VNNP
p6277
sg12
I8
sg13
VCAMPION
p6278
sbag3
(g4
g5
NtRp6279
(dp6280
g8
S'HIGH'
p6281
sg10
VNNP
p6282
sg12
I8
sg13
VHIGH
p6283
sbag3
(g4
g5
NtRp6284
(dp6285
g8
S'SCHOOL'
p6286
sg10
VNNP
p6287
sg12
I8
sg13
VSCHOOL
p6288
sbag3
(g4
g5
NtRp6289
(dp6290
g8
S'IN'
p6291
sg10
VPP
p6292
sg12
I7
sg13
Nsbag3
(g4
g5
NtRp6293
(dp6294
g8
g6291
sg10
VIN
p6295
sg12
I12
sg13
VIN
p6296
sbag3
(g4
g5
NtRp6297
(dp6298
g8
S'PRAIRIE'
p6299
sg10
VNP
p6300
sg12
I12
sg13
Nsbag3
(g4
g5
NtRp6301
(dp6302
g8
g6299
sg10
VNP
p6303
sg12
I14
sg13
Nsbag3
(g4
g5
NtRp6304
(dp6305
g8
g6299
sg10
VNNP
p6306
sg12
I15
sg13
VPRAIRIE
p6307
sbag3
(g4
g5
NtRp6308
(dp6309
g8
S'DU'
p6310
sg10
VNNP
p6311
sg12
I15
sg13
VDU
p6312
sbag3
(g4
g5
NtRp6313
(dp6314
g8
S'CHIEN'
p6315
sg10
VNNP
p6316
sg12
I15
sg13
VCHIEN
p6317
sbag3
(g4
g5
NtRp6318
(dp6319
g8
S','
sg10
V,
sg12
I14
sg13
V,
sbag3
(g4
g5
NtRp6320
(dp6321
g8
S'WISCONSIN'
p6322
sg10
VNP
p6323
sg12
I14
sg13
VWISCONSIN
p6324
sbag3
(g4
g5
NtRp6325
(dp6326
g8
g6322
sg10
VNNP
p6327
sg12
I20
sg13
VWISCONSIN
p6328
sbag3
(g4
g5
NtRp6329
(dp6330
g8
S'.'
sg10
V.
sg12
I1
sg13
V.
sba(lp6331
(lp6332
I1
aa(lp6333
I2
aI5
aI22
aa(lp6334
I3
aI4
aa(lp6335
a(lp6336
a(lp6337
I6
aI7
aa(lp6338
a(lp6339
I8
aI12
aa(lp6340
I9
aI10
aI11
aa(lp6341
a(lp6342
a(lp6343
a(lp6344
I13
aI14
aa(lp6345
a(lp6346
I15
aI19
aI20
aa(lp6347
I16
aI17
aI18
aa(lp6348
a(lp6349
a(lp6350
a(lp6351
a(lp6352
I21
aa(lp6353
a(lp6354
a(lp6355
NaNag143
aNaNaNaNaNaNag144
aNaNaNaNaNaNaNaNaNaNaNaNaNaI1
tp6356
a(g6240
g6331
(lp6357
NaNaNaNaNaNaNag143
aNag144
aNaNaNaNaNaNaNaNaNaNaNaNaNaI7
tp6358
a(g6240
g6331
(lp6359
NaNaNaNaNaNaNaNaNag144
aNaNaNaNag143
aNaNaNaNaNaNaNaNaI7
tp6360
a(g6240
g6331
(lp6361
NaNaNaNaNaNaNaNaNag144
aNaNaNaNaNag143
aNaNaNaNaNaNaNaI7
tp6362
a(g6240
g6331
(lp6363
NaNaNaNaNaNaNaNaNag144
aNaNaNaNaNaNaNaNaNaNag143
aNaNaI7
tp6364
a((lp6365
g3
(g4
g5
NtRp6366
(dp6367
g8
V PANAH HUSEYNOV GRADUATED WITH A DEGREE IN HISTORY FROM THE AZERBAIJAN STATE UNIVERSITY .
p6368
sg10
VROOT
p6369
sg12
Nsg13
Nsbag3
(g4
g5
NtRp6370
(dp6371
g8
V PANAH HUSEYNOV GRADUATED WITH A DEGREE IN HISTORY FROM THE AZERBAIJAN STATE UNIVERSITY .
p6372
sg10
VS
sg12
I0
sg13
Nsbag3
(g4
g5
NtRp6373
(dp6374
g8
VPANAH
p6375
sg10
VNP
p6376
sg12
I1
sg13
Nsbag3
(g4
g5
NtRp6377
(dp6378
g8
g6375
sg10
VNNP
p6379
sg12
I2
sg13
Nsbag3
(g4
g5
NtRp6380
(dp6381
g8
S'HUSEYNOV'
p6382
sg10
VNNP
p6383
sg12
I2
sg13
VHUSEYNOV
p6384
sbag3
(g4
g5
NtRp6385
(dp6386
g8
S'GRADUATE'
p6387
sg10
VVP
p6388
sg12
I1
sg13
Nsbag3
(g4
g5
NtRp6389
(dp6390
g8
g6387
sg10
VVBD
p6391
sg12
I5
sg13
VGRADUATED
p6392
sbag3
(g4
g5
NtRp6393
(dp6394
g8
S'WITH'
p6395
sg10
VPP
p6396
sg12
I5
sg13
Nsbag3
(g4
g5
NtRp6397
(dp6398
g8
g6395
sg10
VIN
p6399
sg12
I7
sg13
VWITH
p6400
sbag3
(g4
g5
NtRp6401
(dp6402
g8
S'DEGREE'
p6403
sg10
VNP
p6404
sg12
I7
sg13
Nsbag3
(g4
g5
NtRp6405
(dp6406
g8
g6403
sg10
VNP
p6407
sg12
I9
sg13
Nsbag3
(g4
g5
NtRp6408
(dp6409
g8
S'A'
sg10
VDT
p6410
sg12
I10
sg13
VA
sbag3
(g4
g5
NtRp6411
(dp6412
g8
g6403
sg10
VNN
p6413
sg12
I10
sg13
VDEGREE
p6414
sbag3
(g4
g5
NtRp6415
(dp6416
g8
S'IN'
p6417
sg10
VPP
p6418
sg12
I9
sg13
Nsbag3
(g4
g5
NtRp6419
(dp6420
g8
g6417
sg10
VIN
p6421
sg12
I13
sg13
VIN
p6422
sbag3
(g4
g5
NtRp6423
(dp6424
g8
S'HISTORY'
p6425
sg10
VNP
p6426
sg12
I13
sg13
VHISTORY
p6427
sbag3
(g4
g5
NtRp6428
(dp6429
g8
g6425
sg10
VNN
p6430
sg12
I15
sg13
VHISTORY
p6431
sbag3
(g4
g5
NtRp6432
(dp6433
g8
S'FROM'
p6434
sg10
VPP
p6435
sg12
I5
sg13
Nsbag3
(g4
g5
NtRp6436
(dp6437
g8
g6434
sg10
VIN
p6438
sg12
I17
sg13
VFROM
p6439
sbag3
(g4
g5
NtRp6440
(dp6441
g8
S'AZERBAIJAN'
p6442
sg10
VNP
p6443
sg12
I17
sg13
Nsbag3
(g4
g5
NtRp6444
(dp6445
g8
S'THE'
p6446
sg10
VDT
p6447
sg12
I19
sg13
VTHE
p6448
sbag3
(g4
g5
NtRp6449
(dp6450
g8
g6442
sg10
VNNP
p6451
sg12
I19
sg13
VAZERBAIJAN
p6452
sbag3
(g4
g5
NtRp6453
(dp6454
g8
S'STATE'
p6455
sg10
VNNP
p6456
sg12
I19
sg13
VSTATE
p6457
sbag3
(g4
g5
NtRp6458
(dp6459
g8
S'UNIVERSITY'
p6460
sg10
VNNP
p6461
sg12
I19
sg13
VUNIVERSITY
p6462
sbag3
(g4
g5
NtRp6463
(dp6464
g8
S'.'
sg10
V.
sg12
I1
sg13
V.
sba(lp6465
(lp6466
I1
aa(lp6467
I2
aI5
aI24
aa(lp6468
I3
aI4
aa(lp6469
a(lp6470
a(lp6471
I6
aI7
aI17
aa(lp6472
a(lp6473
I8
aI9
aa(lp6474
a(lp6475
I10
aI13
aa(lp6476
I11
aI12
aa(lp6477
a(lp6478
a(lp6479
I14
aI15
aa(lp6480
a(lp6481
I16
aa(lp6482
a(lp6483
I18
aI19
aa(lp6484
a(lp6485
I20
aI21
aI22
aI23
aa(lp6486
a(lp6487
a(lp6488
a(lp6489
a(lp6490
a(lp6491
NaNag143
aNaNaNaNaNaNaNaNaNaNaNaNaNaNaNaNaNaNag144
aNaNaNaI1
tp6492
a(g6365
g6465
(lp6493
NaNaNaNaNaNaNaNaNag143
aNaNaNaNaNaNaNaNaNaNaNag144
aNaNaNaI5
tp6494
a(g6365
g6465
(lp6495
NaNaNaNaNaNaNaNaNaNag143
aNaNaNaNaNaNaNaNaNaNag144
aNaNaNaI5
tp6496
a(g6365
g6465
(lp6497
NaNaNaNaNaNaNaNaNaNaNaNag143
aNaNaNaNaNaNaNaNag144
aNaNaNaI5
tp6498
a(g6365
g6465
(lp6499
NaNaNaNaNaNaNaNaNaNaNaNaNaNaNag143
aNaNaNaNaNag144
aNaNaNaI5
tp6500
a(g6365
g6465
(lp6501
NaNaNaNaNaNaNaNaNaNaNaNaNaNaNaNag143
aNaNaNaNag144
aNaNaNaI5
tp6502
a((lp6503
g3
(g4
g5
NtRp6504
(dp6505
g8
V HENRY Y. SATTERLEE GRADUATED FROM UNION COLLEGE IN 1829 .
p6506
sg10
VROOT
p6507
sg12
Nsg13
Nsbag3
(g4
g5
NtRp6508
(dp6509
g8
V HENRY Y. SATTERLEE GRADUATED FROM UNION COLLEGE IN 1829 .
p6510
sg10
VS
sg12
I0
sg13
Nsbag3
(g4
g5
NtRp6511
(dp6512
g8
VHENRY
p6513
sg10
VNP
p6514
sg12
I1
sg13
Nsbag3
(g4
g5
NtRp6515
(dp6516
g8
g6513
sg10
VNNP
p6517
sg12
I2
sg13
Nsbag3
(g4
g5
NtRp6518
(dp6519
g8
S'Y.'
p6520
sg10
VNNP
p6521
sg12
I2
sg13
VY.
p6522
sbag3
(g4
g5
NtRp6523
(dp6524
g8
S'SATTERLEE'
p6525
sg10
VNNP
p6526
sg12
I2
sg13
VSATTERLEE
p6527
sbag3
(g4
g5
NtRp6528
(dp6529
g8
S'GRADUATE'
p6530
sg10
VVP
p6531
sg12
I1
sg13
Nsbag3
(g4
g5
NtRp6532
(dp6533
g8
g6530
sg10
VVBD
p6534
sg12
I6
sg13
VGRADUATED
p6535
sbag3
(g4
g5
NtRp6536
(dp6537
g8
S'FROM'
p6538
sg10
VPP
p6539
sg12
I6
sg13
Nsbag3
(g4
g5
NtRp6540
(dp6541
g8
g6538
sg10
VIN
p6542
sg12
I8
sg13
VFROM
p6543
sbag3
(g4
g5
NtRp6544
(dp6545
g8
S'UNION'
p6546
sg10
VNP
p6547
sg12
I8
sg13
Nsbag3
(g4
g5
NtRp6548
(dp6549
g8
g6546
sg10
VNNP
p6550
sg12
I10
sg13
VUNION
p6551
sbag3
(g4
g5
NtRp6552
(dp6553
g8
S'COLLEGE'
p6554
sg10
VNNP
p6555
sg12
I10
sg13
VCOLLEGE
p6556
sbag3
(g4
g5
NtRp6557
(dp6558
g8
S'IN'
p6559
sg10
VPP
p6560
sg12
I6
sg13
Nsbag3
(g4
g5
NtRp6561
(dp6562
g8
g6559
sg10
VIN
p6563
sg12
I13
sg13
VIN
p6564
sbag3
(g4
g5
NtRp6565
(dp6566
g8
S'1829'
p6567
sg10
VNP
p6568
sg12
I13
sg13
V1829
p6569
sbag3
(g4
g5
NtRp6570
(dp6571
g8
g6567
sg10
VCD
p6572
sg12
I15
sg13
V1829
p6573
sbag3
(g4
g5
NtRp6574
(dp6575
g8
S'.'
sg10
V.
sg12
I1
sg13
V.
sba(lp6576
(lp6577
I1
aa(lp6578
I2
aI6
aI17
aa(lp6579
I3
aI4
aI5
aa(lp6580
a(lp6581
a(lp6582
a(lp6583
I7
aI8
aI13
aa(lp6584
a(lp6585
I9
aI10
aa(lp6586
a(lp6587
I11
aI12
aa(lp6588
a(lp6589
a(lp6590
I14
aI15
aa(lp6591
a(lp6592
I16
aa(lp6593
a(lp6594
a(lp6595
NaNag143
aNaNaNaNaNaNaNaNag144
aNaNaNaNaNaNaI1
tp6596
a(g6503
g6576
(lp6597
NaNaNaNaNaNaNaNaNaNaNag144
aNaNaNag143
aNaNaI6
tp6598
a((lp6599
g3
(g4
g5
NtRp6600
(dp6601
g8
V FRANCIS GOODWIN THEN STUDIED AT THE ROYAL ACADEMY SCHOOL .
p6602
sg10
VROOT
p6603
sg12
Nsg13
Nsbag3
(g4
g5
NtRp6604
(dp6605
g8
V FRANCIS GOODWIN THEN STUDIED AT THE ROYAL ACADEMY SCHOOL .
p6606
sg10
VS
sg12
I0
sg13
Nsbag3
(g4
g5
NtRp6607
(dp6608
g8
VFRANCIS
p6609
sg10
VNP
p6610
sg12
I1
sg13
Nsbag3
(g4
g5
NtRp6611
(dp6612
g8
g6609
sg10
VNNP
p6613
sg12
I2
sg13
Nsbag3
(g4
g5
NtRp6614
(dp6615
g8
S'GOODWIN'
p6616
sg10
VNNP
p6617
sg12
I2
sg13
VGOODWIN
p6618
sbag3
(g4
g5
NtRp6619
(dp6620
g8
S'THEN'
p6621
sg10
VADVP
p6622
sg12
I1
sg13
VTHEN
p6623
sbag3
(g4
g5
NtRp6624
(dp6625
g8
g6621
sg10
VRB
p6626
sg12
I5
sg13
VTHEN
p6627
sbag3
(g4
g5
NtRp6628
(dp6629
g8
S'STUDY'
p6630
sg10
VVP
p6631
sg12
I1
sg13
Nsbag3
(g4
g5
NtRp6632
(dp6633
g8
g6630
sg10
VVBD
p6634
sg12
I7
sg13
VSTUDIED
p6635
sbag3
(g4
g5
NtRp6636
(dp6637
g8
S'AT'
p6638
sg10
VPP
p6639
sg12
I7
sg13
Nsbag3
(g4
g5
NtRp6640
(dp6641
g8
g6638
sg10
VIN
p6642
sg12
I9
sg13
VAT
p6643
sbag3
(g4
g5
NtRp6644
(dp6645
g8
S'ROYAL'
p6646
sg10
VNP
p6647
sg12
I9
sg13
Nsbag3
(g4
g5
NtRp6648
(dp6649
g8
S'THE'
p6650
sg10
VDT
p6651
sg12
I11
sg13
VTHE
p6652
sbag3
(g4
g5
NtRp6653
(dp6654
g8
g6646
sg10
VNNP
p6655
sg12
I11
sg13
VROYAL
p6656
sbag3
(g4
g5
NtRp6657
(dp6658
g8
S'ACADEMY'
p6659
sg10
VNNP
p6660
sg12
I11
sg13
VACADEMY
p6661
sbag3
(g4
g5
NtRp6662
(dp6663
g8
S'SCHOOL'
p6664
sg10
VNNP
p6665
sg12
I11
sg13
VSCHOOL
p6666
sbag3
(g4
g5
NtRp6667
(dp6668
g8
S'.'
sg10
V.
sg12
I1
sg13
V.
sba(lp6669
(lp6670
I1
aa(lp6671
I2
aI5
aI7
aI16
aa(lp6672
I3
aI4
aa(lp6673
a(lp6674
a(lp6675
I6
aa(lp6676
a(lp6677
I8
aI9
aa(lp6678
a(lp6679
I10
aI11
aa(lp6680
a(lp6681
I12
aI13
aI14
aI15
aa(lp6682
a(lp6683
a(lp6684
a(lp6685
a(lp6686
a(lp6687
NaNag143
aNaNaNaNaNaNaNaNaNaNag144
aNaNaNaI1
tp6688
a((lp6689
g3
(g4
g5
NtRp6690
(dp6691
g8
V A. KATHERINE GRIEB HAS ALSO TAUGHT AT BANGOR THEOLOGICAL SEMINARY IN MAINE .
p6692
sg10
VROOT
p6693
sg12
Nsg13
Nsbag3
(g4
g5
NtRp6694
(dp6695
g8
V A. KATHERINE GRIEB HAS ALSO TAUGHT AT BANGOR THEOLOGICAL SEMINARY IN MAINE .
p6696
sg10
VS
sg12
I0
sg13
Nsbag3
(g4
g5
NtRp6697
(dp6698
g8
VA.
p6699
sg10
VNP
p6700
sg12
I1
sg13
Nsbag3
(g4
g5
NtRp6701
(dp6702
g8
g6699
sg10
VNN
p6703
sg12
I2
sg13
Nsbag3
(g4
g5
NtRp6704
(dp6705
g8
S'KATHERINE'
p6706
sg10
VNNP
p6707
sg12
I2
sg13
VKATHERINE
p6708
sbag3
(g4
g5
NtRp6709
(dp6710
g8
S'GRIEB'
p6711
sg10
VNNP
p6712
sg12
I2
sg13
VGRIEB
p6713
sbag3
(g4
g5
NtRp6714
(dp6715
g8
S'HAVE'
p6716
sg10
VVP
p6717
sg12
I1
sg13
Nsbag3
(g4
g5
NtRp6718
(dp6719
g8
g6716
sg10
VVBZ
p6720
sg12
I6
sg13
VHAS
p6721
sbag3
(g4
g5
NtRp6722
(dp6723
g8
S'ALSO'
p6724
sg10
VADVP
p6725
sg12
I6
sg13
VALSO
p6726
sbag3
(g4
g5
NtRp6727
(dp6728
g8
g6724
sg10
VRB
p6729
sg12
I8
sg13
VALSO
p6730
sbag3
(g4
g5
NtRp6731
(dp6732
g8
S'TEACH'
p6733
sg10
VVP
p6734
sg12
I6
sg13
Nsbag3
(g4
g5
NtRp6735
(dp6736
g8
g6733
sg10
VVBN
p6737
sg12
I10
sg13
VTAUGHT
p6738
sbag3
(g4
g5
NtRp6739
(dp6740
g8
S'AT'
p6741
sg10
VPP
p6742
sg12
I10
sg13
Nsbag3
(g4
g5
NtRp6743
(dp6744
g8
g6741
sg10
VIN
p6745
sg12
I12
sg13
VAT
p6746
sbag3
(g4
g5
NtRp6747
(dp6748
g8
S'BANGOR'
p6749
sg10
VNP
p6750
sg12
I12
sg13
Nsbag3
(g4
g5
NtRp6751
(dp6752
g8
g6749
sg10
VNP
p6753
sg12
I14
sg13
Nsbag3
(g4
g5
NtRp6754
(dp6755
g8
g6749
sg10
VNNP
p6756
sg12
I15
sg13
VBANGOR
p6757
sbag3
(g4
g5
NtRp6758
(dp6759
g8
S'THEOLOGICAL'
p6760
sg10
VNNP
p6761
sg12
I15
sg13
VTHEOLOGICAL
p6762
sbag3
(g4
g5
NtRp6763
(dp6764
g8
S'SEMINARY'
p6765
sg10
VNNP
p6766
sg12
I15
sg13
VSEMINARY
p6767
sbag3
(g4
g5
NtRp6768
(dp6769
g8
S'IN'
p6770
sg10
VPP
p6771
sg12
I14
sg13
Nsbag3
(g4
g5
NtRp6772
(dp6773
g8
g6770
sg10
VIN
p6774
sg12
I19
sg13
VIN
p6775
sbag3
(g4
g5
NtRp6776
(dp6777
g8
S'MAINE'
p6778
sg10
VNP
p6779
sg12
I19
sg13
VMAINE
p6780
sbag3
(g4
g5
NtRp6781
(dp6782
g8
g6778
sg10
VNNP
p6783
sg12
I21
sg13
VMAINE
p6784
sbag3
(g4
g5
NtRp6785
(dp6786
g8
S'.'
sg10
V.
sg12
I1
sg13
V.
sba(lp6787
(lp6788
I1
aa(lp6789
I2
aI6
aI23
aa(lp6790
I3
aI4
aI5
aa(lp6791
a(lp6792
a(lp6793
a(lp6794
I7
aI8
aI10
aa(lp6795
a(lp6796
I9
aa(lp6797
a(lp6798
I11
aI12
aa(lp6799
a(lp6800
I13
aI14
aa(lp6801
a(lp6802
I15
aI19
aa(lp6803
I16
aI17
aI18
aa(lp6804
a(lp6805
a(lp6806
a(lp6807
I20
aI21
aa(lp6808
a(lp6809
I22
aa(lp6810
a(lp6811
a(lp6812
NaNag143
aNaNaNaNaNaNaNaNaNaNaNaNaNag144
aNaNaNaNaNaNaNaI1
tp6813
a(g6689
g6787
(lp6814
NaNaNag143
aNaNaNaNaNaNaNaNaNaNaNaNag144
aNaNaNaNaNaNaNaI1
tp6815
a(g6689
g6787
(lp6816
NaNaNaNaNaNaNaNaNaNaNaNaNaNag143
aNag144
aNaNaNaNaNaNaNaI14
tp6817
a(g6689
g6787
(lp6818
NaNaNaNaNaNaNaNaNaNaNaNaNaNaNaNag144
aNaNaNaNag143
aNaNaI14
tp6819
a((lp6820
g3
(g4
g5
NtRp6821
(dp6822
g8
V IN 1977 , RONALD REAGAN ATTENDED THE UNIVERSITY OF SOUTH FLORIDA .
p6823
sg10
VROOT
p6824
sg12
Nsg13
Nsbag3
(g4
g5
NtRp6825
(dp6826
g8
V IN 1977 , RONALD REAGAN ATTENDED THE UNIVERSITY OF SOUTH FLORIDA .
p6827
sg10
VS
sg12
I0
sg13
Nsbag3
(g4
g5
NtRp6828
(dp6829
g8
VIN
p6830
sg10
VPP
p6831
sg12
I1
sg13
Nsbag3
(g4
g5
NtRp6832
(dp6833
g8
g6830
sg10
VIN
p6834
sg12
I2
sg13
Nsbag3
(g4
g5
NtRp6835
(dp6836
g8
S'1977'
p6837
sg10
VNP
p6838
sg12
I2
sg13
V1977
p6839
sbag3
(g4
g5
NtRp6840
(dp6841
g8
g6837
sg10
VCD
p6842
sg12
I4
sg13
V1977
p6843
sbag3
(g4
g5
NtRp6844
(dp6845
g8
S','
sg10
V,
sg12
I1
sg13
V,
sbag3
(g4
g5
NtRp6846
(dp6847
g8
S'RONALD'
p6848
sg10
VNP
p6849
sg12
I1
sg13
Nsbag3
(g4
g5
NtRp6850
(dp6851
g8
g6848
sg10
VNNP
p6852
sg12
I7
sg13
VRONALD
p6853
sbag3
(g4
g5
NtRp6854
(dp6855
g8
S'REAGAN'
p6856
sg10
VNNP
p6857
sg12
I7
sg13
VREAGAN
p6858
sbag3
(g4
g5
NtRp6859
(dp6860
g8
S'ATTEND'
p6861
sg10
VVP
p6862
sg12
I1
sg13
Nsbag3
(g4
g5
NtRp6863
(dp6864
g8
g6861
sg10
VVBD
p6865
sg12
I10
sg13
VATTENDED
p6866
sbag3
(g4
g5
NtRp6867
(dp6868
g8
S'UNIVERSITY'
p6869
sg10
VNP
p6870
sg12
I10
sg13
Nsbag3
(g4
g5
NtRp6871
(dp6872
g8
g6869
sg10
VNP
p6873
sg12
I12
sg13
Nsbag3
(g4
g5
NtRp6874
(dp6875
g8
S'THE'
p6876
sg10
VDT
p6877
sg12
I13
sg13
VTHE
p6878
sbag3
(g4
g5
NtRp6879
(dp6880
g8
g6869
sg10
VNNP
p6881
sg12
I13
sg13
VUNIVERSITY
p6882
sbag3
(g4
g5
NtRp6883
(dp6884
g8
S'OF'
p6885
sg10
VPP
p6886
sg12
I12
sg13
Nsbag3
(g4
g5
NtRp6887
(dp6888
g8
g6885
sg10
VIN
p6889
sg12
I16
sg13
VOF
p6890
sbag3
(g4
g5
NtRp6891
(dp6892
g8
S'SOUTH'
p6893
sg10
VNP
p6894
sg12
I16
sg13
Nsbag3
(g4
g5
NtRp6895
(dp6896
g8
g6893
sg10
VNNP
p6897
sg12
I18
sg13
VSOUTH
p6898
sbag3
(g4
g5
NtRp6899
(dp6900
g8
S'FLORIDA'
p6901
sg10
VNNP
p6902
sg12
I18
sg13
VFLORIDA
p6903
sbag3
(g4
g5
NtRp6904
(dp6905
g8
S'.'
sg10
V.
sg12
I1
sg13
V.
sba(lp6906
(lp6907
I1
aa(lp6908
I2
aI6
aI7
aI10
aI21
aa(lp6909
I3
aI4
aa(lp6910
a(lp6911
I5
aa(lp6912
a(lp6913
a(lp6914
I8
aI9
aa(lp6915
a(lp6916
a(lp6917
I11
aI12
aa(lp6918
a(lp6919
I13
aI16
aa(lp6920
I14
aI15
aa(lp6921
a(lp6922
a(lp6923
I17
aI18
aa(lp6924
a(lp6925
I19
aI20
aa(lp6926
a(lp6927
a(lp6928
a(lp6929
NaNaNaNag143
aNaNaNaNaNaNaNaNaNaNag144
aNaNaNaNaNaNaI1
tp6930
a(g6820
g6906
(lp6931
NaNaNaNaNaNaNag143
aNaNaNaNaNaNaNag144
aNaNaNaNaNaNaI1
tp6932
a(g6820
g6906
(lp6933
NaNaNaNaNaNaNaNaNaNaNaNag143
aNaNag144
aNaNaNaNaNaNaI12
tp6934
a(g6820
g6906
(lp6935
NaNaNaNag143
aNaNaNaNaNaNaNaNaNaNaNaNaNaNag144
aNaNaI1
tp6936
a(g6820
g6906
(lp6937
NaNaNaNaNaNaNag143
aNaNaNaNaNaNaNaNaNaNaNag144
aNaNaI1
tp6938
a(g6820
g6906
(lp6939
NaNaNaNaNaNaNaNaNaNaNaNag143
aNaNaNaNaNaNag144
aNaNaI12
tp6940
a((lp6941
g3
(g4
g5
NtRp6942
(dp6943
g8
V STANLEY MOSS WAS EDUCATED AT TRINITY COLLEGE AND YALE UNIVERSITY .
p6944
sg10
VROOT
p6945
sg12
Nsg13
Nsbag3
(g4
g5
NtRp6946
(dp6947
g8
V STANLEY MOSS WAS EDUCATED AT TRINITY COLLEGE AND YALE UNIVERSITY .
p6948
sg10
VS
sg12
I0
sg13
Nsbag3
(g4
g5
NtRp6949
(dp6950
g8
VSTANLEY
p6951
sg10
VNP
p6952
sg12
I1
sg13
Nsbag3
(g4
g5
NtRp6953
(dp6954
g8
g6951
sg10
VNNP
p6955
sg12
I2
sg13
Nsbag3
(g4
g5
NtRp6956
(dp6957
g8
S'MOSS'
p6958
sg10
VNNP
p6959
sg12
I2
sg13
VMOSS
p6960
sbag3
(g4
g5
NtRp6961
(dp6962
g8
S'BE'
p6963
sg10
VVP
p6964
sg12
I1
sg13
Nsbag3
(g4
g5
NtRp6965
(dp6966
g8
g6963
sg10
VVBD
p6967
sg12
I5
sg13
VWAS
p6968
sbag3
(g4
g5
NtRp6969
(dp6970
g8
S'EDUCATE'
p6971
sg10
VVP
p6972
sg12
I5
sg13
Nsbag3
(g4
g5
NtRp6973
(dp6974
g8
g6971
sg10
VVBN
p6975
sg12
I7
sg13
VEDUCATED
p6976
sbag3
(g4
g5
NtRp6977
(dp6978
g8
S'AT'
p6979
sg10
VPP
p6980
sg12
I7
sg13
Nsbag3
(g4
g5
NtRp6981
(dp6982
g8
g6979
sg10
VIN
p6983
sg12
I9
sg13
VAT
p6984
sbag3
(g4
g5
NtRp6985
(dp6986
g8
S'TRINITY'
p6987
sg10
VNP
p6988
sg12
I9
sg13
Nsbag3
(g4
g5
NtRp6989
(dp6990
g8
g6987
sg10
VNP
p6991
sg12
I11
sg13
Nsbag3
(g4
g5
NtRp6992
(dp6993
g8
g6987
sg10
VNNP
p6994
sg12
I12
sg13
VTRINITY
p6995
sbag3
(g4
g5
NtRp6996
(dp6997
g8
S'COLLEGE'
p6998
sg10
VNNP
p6999
sg12
I12
sg13
VCOLLEGE
p7000
sbag3
(g4
g5
NtRp7001
(dp7002
g8
S'AND'
p7003
sg10
VCC
p7004
sg12
I11
sg13
VAND
p7005
sbag3
(g4
g5
NtRp7006
(dp7007
g8
S'YALE'
p7008
sg10
VNP
p7009
sg12
I11
sg13
Nsbag3
(g4
g5
NtRp7010
(dp7011
g8
g7008
sg10
VNNP
p7012
sg12
I16
sg13
VYALE
p7013
sbag3
(g4
g5
NtRp7014
(dp7015
g8
S'UNIVERSITY'
p7016
sg10
VNNP
p7017
sg12
I16
sg13
VUNIVERSITY
p7018
sbag3
(g4
g5
NtRp7019
(dp7020
g8
S'.'
sg10
V.
sg12
I1
sg13
V.
sba(lp7021
(lp7022
I1
aa(lp7023
I2
aI5
aI19
aa(lp7024
I3
aI4
aa(lp7025
a(lp7026
a(lp7027
I6
aI7
aa(lp7028
a(lp7029
I8
aI9
aa(lp7030
a(lp7031
I10
aI11
aa(lp7032
a(lp7033
I12
aI15
aI16
aa(lp7034
I13
aI14
aa(lp7035
a(lp7036
a(lp7037
a(lp7038
I17
aI18
aa(lp7039
a(lp7040
a(lp7041
a(lp7042
NaNag143
aNaNaNaNaNaNaNaNaNaNag144
aNaNaNaNaNaNaI1
tp7043
a(g6941
g7021
(lp7044
NaNaNaNaNaNaNaNaNaNaNag143
aNag144
aNaNaNaNaNaNaI11
tp7045
a(g6941
g7021
(lp7046
NaNag143
aNaNaNaNaNaNaNaNaNaNaNaNaNaNag144
aNaNaI1
tp7047
a(g6941
g7021
(lp7048
NaNaNaNaNaNaNaNaNaNaNag143
aNaNaNaNaNag144
aNaNaI11
tp7049
a((lp7050
g3
(g4
g5
NtRp7051
(dp7052
g8
V YOUNG WAS EDUCATED AT WINCHESTER COLLEGE .
p7053
sg10
VROOT
p7054
sg12
Nsg13
Nsbag3
(g4
g5
NtRp7055
(dp7056
g8
V YOUNG WAS EDUCATED AT WINCHESTER COLLEGE .
p7057
sg10
VS
sg12
I0
sg13
Nsbag3
(g4
g5
NtRp7058
(dp7059
g8
VYOUNG
p7060
sg10
VNP
p7061
sg12
I1
sg13
Nsbag3
(g4
g5
NtRp7062
(dp7063
g8
g7060
sg10
VNN
p7064
sg12
I2
sg13
Nsbag3
(g4
g5
NtRp7065
(dp7066
g8
S'BE'
p7067
sg10
VVP
p7068
sg12
I1
sg13
Nsbag3
(g4
g5
NtRp7069
(dp7070
g8
g7067
sg10
VVBD
p7071
sg12
I4
sg13
VWAS
p7072
sbag3
(g4
g5
NtRp7073
(dp7074
g8
S'EDUCATE'
p7075
sg10
VVP
p7076
sg12
I4
sg13
Nsbag3
(g4
g5
NtRp7077
(dp7078
g8
g7075
sg10
VVBN
p7079
sg12
I6
sg13
VEDUCATED
p7080
sbag3
(g4
g5
NtRp7081
(dp7082
g8
S'AT'
p7083
sg10
VPP
p7084
sg12
I6
sg13
Nsbag3
(g4
g5
NtRp7085
(dp7086
g8
g7083
sg10
VIN
p7087
sg12
I8
sg13
VAT
p7088
sbag3
(g4
g5
NtRp7089
(dp7090
g8
S'WINCHESTER'
p7091
sg10
VNP
p7092
sg12
I8
sg13
Nsbag3
(g4
g5
NtRp7093
(dp7094
g8
g7091
sg10
VNNP
p7095
sg12
I10
sg13
VWINCHESTER
p7096
sbag3
(g4
g5
NtRp7097
(dp7098
g8
S'COLLEGE'
p7099
sg10
VNNP
p7100
sg12
I10
sg13
VCOLLEGE
p7101
sbag3
(g4
g5
NtRp7102
(dp7103
g8
S'.'
sg10
V.
sg12
I1
sg13
V.
sba(lp7104
(lp7105
I1
aa(lp7106
I2
aI4
aI13
aa(lp7107
I3
aa(lp7108
a(lp7109
I5
aI6
aa(lp7110
a(lp7111
I7
aI8
aa(lp7112
a(lp7113
I9
aI10
aa(lp7114
a(lp7115
I11
aI12
aa(lp7116
a(lp7117
a(lp7118
a(lp7119
NaNag143
aNaNaNaNaNaNaNaNag144
aNaNaI1
tp7120
a(g7050
g7104
(lp7121
NaNaNag143
aNaNaNaNaNaNaNag144
aNaNaI1
tp7122
a.