(lp1
((lp2
ccopy_reg
_reconstructor
p3
(ckernel1
node
p4
c__builtin__
object
p5
NtRp6
(dp7
S'Text'
p8
V RALPH TATHAM GRADUATED AT THE UNIVERSITY OF CAMBRIDGE IN 1803 .
p9
sS'Type'
p10
VROOT
p11
sS'Parent'
p12
NsS'Orig'
p13
Nsbag3
(g4
g5
NtRp14
(dp15
g8
V RALPH TATHAM GRADUATED AT THE UNIVERSITY OF CAMBRIDGE IN 1803 .
p16
sg10
VS
sg12
I0
sg13
Nsbag3
(g4
g5
NtRp17
(dp18
g8
VRALPH
p19
sg10
VNP
p20
sg12
I1
sg13
Nsbag3
(g4
g5
NtRp21
(dp22
g8
g19
sg10
VNNP
p23
sg12
I2
sg13
Nsbag3
(g4
g5
NtRp24
(dp25
g8
S'TATHAM'
p26
sg10
VNNP
p27
sg12
I2
sg13
VTATHAM
p28
sbag3
(g4
g5
NtRp29
(dp30
g8
S'GRADUATE'
p31
sg10
VVP
p32
sg12
I1
sg13
Nsbag3
(g4
g5
NtRp33
(dp34
g8
g31
sg10
VVBD
p35
sg12
I5
sg13
VGRADUATED
p36
sbag3
(g4
g5
NtRp37
(dp38
g8
S'AT'
p39
sg10
VPP
p40
sg12
I5
sg13
Nsbag3
(g4
g5
NtRp41
(dp42
g8
g39
sg10
VIN
p43
sg12
I7
sg13
VAT
p44
sbag3
(g4
g5
NtRp45
(dp46
g8
S'UNIVERSITY'
p47
sg10
VNP
p48
sg12
I7
sg13
Nsbag3
(g4
g5
NtRp49
(dp50
g8
g47
sg10
VNP
p51
sg12
I9
sg13
Nsbag3
(g4
g5
NtRp52
(dp53
g8
S'THE'
p54
sg10
VDT
p55
sg12
I10
sg13
VTHE
p56
sbag3
(g4
g5
NtRp57
(dp58
g8
g47
sg10
VNNP
p59
sg12
I10
sg13
VUNIVERSITY
p60
sbag3
(g4
g5
NtRp61
(dp62
g8
S'OF'
p63
sg10
VPP
p64
sg12
I9
sg13
Nsbag3
(g4
g5
NtRp65
(dp66
g8
g63
sg10
VIN
p67
sg12
I13
sg13
VOF
p68
sbag3
(g4
g5
NtRp69
(dp70
g8
S'CAMBRIDGE'
p71
sg10
VNP
p72
sg12
I13
sg13
VCAMBRIDGE
p73
sbag3
(g4
g5
NtRp74
(dp75
g8
g71
sg10
VNNP
p76
sg12
I15
sg13
VCAMBRIDGE
p77
sbag3
(g4
g5
NtRp78
(dp79
g8
S'IN'
p80
sg10
VPP
p81
sg12
I5
sg13
Nsbag3
(g4
g5
NtRp82
(dp83
g8
g80
sg10
VIN
p84
sg12
I17
sg13
VIN
p85
sbag3
(g4
g5
NtRp86
(dp87
g8
S'1803'
p88
sg10
VNP
p89
sg12
I17
sg13
V1803
p90
sbag3
(g4
g5
NtRp91
(dp92
g8
g88
sg10
VCD
p93
sg12
I19
sg13
V1803
p94
sbag3
(g4
g5
NtRp95
(dp96
g8
S'.'
sg10
V.
sg12
I1
sg13
V.
sba(lp97
(lp98
I1
aa(lp99
I2
aI5
aI21
aa(lp100
I3
aI4
aa(lp101
a(lp102
a(lp103
I6
aI7
aI17
aa(lp104
a(lp105
I8
aI9
aa(lp106
a(lp107
I10
aI13
aa(lp108
I11
aI12
aa(lp109
a(lp110
a(lp111
I14
aI15
aa(lp112
a(lp113
I16
aa(lp114
a(lp115
I18
aI19
aa(lp116
a(lp117
I20
aa(lp118
a(lp119
a(lp120
NaNaS'MEMBER'
p121
aNaNaNaNaNaNaNaNaNaS'ORG'
p122
aNaNaNaNaNaNaNaNaNaI1
tp123
a(g2
g97
(lp124
NaNaNaNaNaNaNaNaNag121
aNaNag122
aNaNaNaNaNaNaNaNaNaI9
tp125
a(g2
g97
(lp126
NaNaNaNaNaNaNaNaNaNaNaNag122
aNaNaNaNaNaNag121
aNaNaI5
tp127
a((lp128
g3
(g4
g5
NtRp129
(dp130
g8
V AVGUST PIRJEVEC STUDIED SLAVIC PHILOLOGY AT THE UNIVERSITY OF VIENNA .
p131
sg10
VROOT
p132
sg12
Nsg13
Nsbag3
(g4
g5
NtRp133
(dp134
g8
V AVGUST PIRJEVEC STUDIED SLAVIC PHILOLOGY AT THE UNIVERSITY OF VIENNA .
p135
sg10
VS
sg12
I0
sg13
Nsbag3
(g4
g5
NtRp136
(dp137
g8
VAVGUST
p138
sg10
VNP
p139
sg12
I1
sg13
Nsbag3
(g4
g5
NtRp140
(dp141
g8
g138
sg10
VNNP
p142
sg12
I2
sg13
Nsbag3
(g4
g5
NtRp143
(dp144
g8
S'PIRJEVEC'
p145
sg10
VNNP
p146
sg12
I2
sg13
VPIRJEVEC
p147
sbag3
(g4
g5
NtRp148
(dp149
g8
S'STUDY'
p150
sg10
VVP
p151
sg12
I1
sg13
Nsbag3
(g4
g5
NtRp152
(dp153
g8
g150
sg10
VVBD
p154
sg12
I5
sg13
VSTUDIED
p155
sbag3
(g4
g5
NtRp156
(dp157
g8
S'PHILOLOGY'
p158
sg10
VNP
p159
sg12
I5
sg13
Nsbag3
(g4
g5
NtRp160
(dp161
g8
S'SLAVIC'
p162
sg10
VJJ
p163
sg12
I7
sg13
VSLAVIC
p164
sbag3
(g4
g5
NtRp165
(dp166
g8
g158
sg10
VNN
p167
sg12
I7
sg13
VPHILOLOGY
p168
sbag3
(g4
g5
NtRp169
(dp170
g8
S'AT'
p171
sg10
VPP
p172
sg12
I5
sg13
Nsbag3
(g4
g5
NtRp173
(dp174
g8
g171
sg10
VIN
p175
sg12
I10
sg13
VAT
p176
sbag3
(g4
g5
NtRp177
(dp178
g8
S'UNIVERSITY'
p179
sg10
VNP
p180
sg12
I10
sg13
Nsbag3
(g4
g5
NtRp181
(dp182
g8
g179
sg10
VNP
p183
sg12
I12
sg13
Nsbag3
(g4
g5
NtRp184
(dp185
g8
S'THE'
p186
sg10
VDT
p187
sg12
I13
sg13
VTHE
p188
sbag3
(g4
g5
NtRp189
(dp190
g8
g179
sg10
VNNP
p191
sg12
I13
sg13
VUNIVERSITY
p192
sbag3
(g4
g5
NtRp193
(dp194
g8
S'OF'
p195
sg10
VPP
p196
sg12
I12
sg13
Nsbag3
(g4
g5
NtRp197
(dp198
g8
g195
sg10
VIN
p199
sg12
I16
sg13
VOF
p200
sbag3
(g4
g5
NtRp201
(dp202
g8
S'VIENNA'
p203
sg10
VNP
p204
sg12
I16
sg13
VVIENNA
p205
sbag3
(g4
g5
NtRp206
(dp207
g8
g203
sg10
VNNP
p208
sg12
I18
sg13
VVIENNA
p209
sbag3
(g4
g5
NtRp210
(dp211
g8
S'.'
sg10
V.
sg12
I1
sg13
V.
sba(lp212
(lp213
I1
aa(lp214
I2
aI5
aI20
aa(lp215
I3
aI4
aa(lp216
a(lp217
a(lp218
I6
aI7
aI10
aa(lp219
a(lp220
I8
aI9
aa(lp221
a(lp222
a(lp223
I11
aI12
aa(lp224
a(lp225
I13
aI16
aa(lp226
I14
aI15
aa(lp227
a(lp228
a(lp229
I17
aI18
aa(lp230
a(lp231
I19
aa(lp232
a(lp233
a(lp234
NaNag121
aNaNaNaNaNaNaNaNaNaNaNaNag122
aNaNaNaNaNaI1
tp235
a(g128
g212
(lp236
NaNaNaNaNaNaNag121
aNaNaNaNaNaNaNag122
aNaNaNaNaNaI5
tp237
a(g128
g212
(lp238
NaNaNaNaNaNaNaNaNag121
aNaNaNaNaNag122
aNaNaNaNaNaI5
tp239
a(g128
g212
(lp240
NaNaNaNaNaNaNaNaNaNaNaNag121
aNaNag122
aNaNaNaNaNaI12
tp241
a((lp242
g3
(g4
g5
NtRp243
(dp244
g8
V JAMES P. MCGRANERY GRADUATED FROM TEMPLE UNIVERSITY LAW SCHOOL IN 1928 .
p245
sg10
VROOT
p246
sg12
Nsg13
Nsbag3
(g4
g5
NtRp247
(dp248
g8
V JAMES P. MCGRANERY GRADUATED FROM TEMPLE UNIVERSITY LAW SCHOOL IN 1928 .
p249
sg10
VS
sg12
I0
sg13
Nsbag3
(g4
g5
NtRp250
(dp251
g8
VJAMES
p252
sg10
VNP
p253
sg12
I1
sg13
Nsbag3
(g4
g5
NtRp254
(dp255
g8
g252
sg10
VNNP
p256
sg12
I2
sg13
Nsbag3
(g4
g5
NtRp257
(dp258
g8
S'P.'
p259
sg10
VNNP
p260
sg12
I2
sg13
VP.
p261
sbag3
(g4
g5
NtRp262
(dp263
g8
S'MCGRANERY'
p264
sg10
VNNP
p265
sg12
I2
sg13
VMCGRANERY
p266
sbag3
(g4
g5
NtRp267
(dp268
g8
S'GRADUATE'
p269
sg10
VVP
p270
sg12
I1
sg13
Nsbag3
(g4
g5
NtRp271
(dp272
g8
g269
sg10
VVBD
p273
sg12
I6
sg13
VGRADUATED
p274
sbag3
(g4
g5
NtRp275
(dp276
g8
S'FROM'
p277
sg10
VPP
p278
sg12
I6
sg13
Nsbag3
(g4
g5
NtRp279
(dp280
g8
g277
sg10
VIN
p281
sg12
I8
sg13
VFROM
p282
sbag3
(g4
g5
NtRp283
(dp284
g8
S'TEMPLE'
p285
sg10
VNP
p286
sg12
I8
sg13
Nsbag3
(g4
g5
NtRp287
(dp288
g8
g285
sg10
VNNP
p289
sg12
I10
sg13
VTEMPLE
p290
sbag3
(g4
g5
NtRp291
(dp292
g8
S'UNIVERSITY'
p293
sg10
VNNP
p294
sg12
I10
sg13
VUNIVERSITY
p295
sbag3
(g4
g5
NtRp296
(dp297
g8
S'LAW'
p298
sg10
VNNP
p299
sg12
I10
sg13
VLAW
p300
sbag3
(g4
g5
NtRp301
(dp302
g8
S'SCHOOL'
p303
sg10
VNNP
p304
sg12
I10
sg13
VSCHOOL
p305
sbag3
(g4
g5
NtRp306
(dp307
g8
S'IN'
p308
sg10
VPP
p309
sg12
I6
sg13
Nsbag3
(g4
g5
NtRp310
(dp311
g8
g308
sg10
VIN
p312
sg12
I15
sg13
VIN
p313
sbag3
(g4
g5
NtRp314
(dp315
g8
S'1928'
p316
sg10
VNP
p317
sg12
I15
sg13
V1928
p318
sbag3
(g4
g5
NtRp319
(dp320
g8
g316
sg10
VCD
p321
sg12
I17
sg13
V1928
p322
sbag3
(g4
g5
NtRp323
(dp324
g8
S'.'
sg10
V.
sg12
I1
sg13
V.
sba(lp325
(lp326
I1
aa(lp327
I2
aI6
aI19
aa(lp328
I3
aI4
aI5
aa(lp329
a(lp330
a(lp331
a(lp332
I7
aI8
aI15
aa(lp333
a(lp334
I9
aI10
aa(lp335
a(lp336
I11
aI12
aI13
aI14
aa(lp337
a(lp338
a(lp339
a(lp340
a(lp341
I16
aI17
aa(lp342
a(lp343
I18
aa(lp344
a(lp345
a(lp346
NaNag121
aNaNaNaNaNaNaNaNag122
aNaNaNaNaNaNaNaNaI1
tp347
a(g242
g325
(lp348
NaNaNaNaNaNaNaNaNaNaNag122
aNaNaNaNaNag121
aNaNaI6
tp349
a((lp350
g3
(g4
g5
NtRp351
(dp352
g8
V RICHTER IS A GRADUATE OF SKIDMORE COLLEGE .
p353
sg10
VROOT
p354
sg12
Nsg13
Nsbag3
(g4
g5
NtRp355
(dp356
g8
V RICHTER IS A GRADUATE OF SKIDMORE COLLEGE .
p357
sg10
VS
sg12
I0
sg13
Nsbag3
(g4
g5
NtRp358
(dp359
g8
VRICHTER
p360
sg10
VNP
p361
sg12
I1
sg13
Nsbag3
(g4
g5
NtRp362
(dp363
g8
g360
sg10
VNNP
p364
sg12
I2
sg13
Nsbag3
(g4
g5
NtRp365
(dp366
g8
S'BE'
p367
sg10
VVP
p368
sg12
I1
sg13
Nsbag3
(g4
g5
NtRp369
(dp370
g8
g367
sg10
VVBZ
p371
sg12
I4
sg13
VIS
p372
sbag3
(g4
g5
NtRp373
(dp374
g8
S'GRADUATE'
p375
sg10
VNP
p376
sg12
I4
sg13
Nsbag3
(g4
g5
NtRp377
(dp378
g8
g375
sg10
VNP
p379
sg12
I6
sg13
Nsbag3
(g4
g5
NtRp380
(dp381
g8
S'A'
sg10
VDT
p382
sg12
I7
sg13
VA
sbag3
(g4
g5
NtRp383
(dp384
g8
g375
sg10
VNN
p385
sg12
I7
sg13
VGRADUATE
p386
sbag3
(g4
g5
NtRp387
(dp388
g8
S'OF'
p389
sg10
VPP
p390
sg12
I6
sg13
Nsbag3
(g4
g5
NtRp391
(dp392
g8
g389
sg10
VIN
p393
sg12
I10
sg13
VOF
p394
sbag3
(g4
g5
NtRp395
(dp396
g8
S'SKIDMORE'
p397
sg10
VNP
p398
sg12
I10
sg13
Nsbag3
(g4
g5
NtRp399
(dp400
g8
g397
sg10
VNNP
p401
sg12
I12
sg13
VSKIDMORE
p402
sbag3
(g4
g5
NtRp403
(dp404
g8
S'COLLEGE'
p405
sg10
VNNP
p406
sg12
I12
sg13
VCOLLEGE
p407
sbag3
(g4
g5
NtRp408
(dp409
g8
S'.'
sg10
V.
sg12
I1
sg13
V.
sba(lp410
(lp411
I1
aa(lp412
I2
aI4
aI15
aa(lp413
I3
aa(lp414
a(lp415
I5
aI6
aa(lp416
a(lp417
I7
aI10
aa(lp418
I8
aI9
aa(lp419
a(lp420
a(lp421
I11
aI12
aa(lp422
a(lp423
I13
aI14
aa(lp424
a(lp425
a(lp426
a(lp427
NaNag121
aNaNaNaNaNaNaNaNaNaNag122
aNaNaI1
tp428
a(g350
g410
(lp429
NaNaNaNaNaNag121
aNaNaNaNaNaNag122
aNaNaI6
tp430
a(g350
g410
(lp431
NaNaNaNaNaNaNag121
aNaNaNaNaNag122
aNaNaI6
tp432
a(g350
g410
(lp433
NaNaNaNaNaNaNaNaNag121
aNaNaNag122
aNaNaI6
tp434
a((lp435
g3
(g4
g5
NtRp436
(dp437
g8
V BRIAN WOERMANN ATTENDED MILFORD HIGH SCHOOL , WHERE MATT STRYKER PLAYED BASKETBALL AND DIVING .
p438
sg10
VROOT
p439
sg12
Nsg13
Nsbag3
(g4
g5
NtRp440
(dp441
g8
V BRIAN WOERMANN ATTENDED MILFORD HIGH SCHOOL , WHERE MATT STRYKER PLAYED BASKETBALL AND DIVING .
p442
sg10
VS
sg12
I0
sg13
Nsbag3
(g4
g5
NtRp443
(dp444
g8
VBRIAN
p445
sg10
VNP
p446
sg12
I1
sg13
Nsbag3
(g4
g5
NtRp447
(dp448
g8
g445
sg10
VNNP
p449
sg12
I2
sg13
Nsbag3
(g4
g5
NtRp450
(dp451
g8
S'WOERMANN'
p452
sg10
VNNP
p453
sg12
I2
sg13
VWOERMANN
p454
sbag3
(g4
g5
NtRp455
(dp456
g8
S'ATTEND'
p457
sg10
VVP
p458
sg12
I1
sg13
Nsbag3
(g4
g5
NtRp459
(dp460
g8
g457
sg10
VVBD
p461
sg12
I5
sg13
VATTENDED
p462
sbag3
(g4
g5
NtRp463
(dp464
g8
S'MILFORD'
p465
sg10
VNP
p466
sg12
I5
sg13
Nsbag3
(g4
g5
NtRp467
(dp468
g8
g465
sg10
VNP
p469
sg12
I7
sg13
Nsbag3
(g4
g5
NtRp470
(dp471
g8
g465
sg10
VNNP
p472
sg12
I8
sg13
VMILFORD
p473
sbag3
(g4
g5
NtRp474
(dp475
g8
S'HIGH'
p476
sg10
VNNP
p477
sg12
I8
sg13
VHIGH
p478
sbag3
(g4
g5
NtRp479
(dp480
g8
S'SCHOOL'
p481
sg10
VNNP
p482
sg12
I8
sg13
VSCHOOL
p483
sbag3
(g4
g5
NtRp484
(dp485
g8
S','
sg10
V,
sg12
I7
sg13
V,
sbag3
(g4
g5
NtRp486
(dp487
g8
S'WHERE'
p488
sg10
VSBAR
p489
sg12
I7
sg13
Nsbag3
(g4
g5
NtRp490
(dp491
g8
g488
sg10
VWHADVP
p492
sg12
I13
sg13
VWHERE
p493
sbag3
(g4
g5
NtRp494
(dp495
g8
g488
sg10
VWRB
p496
sg12
I14
sg13
VWHERE
p497
sbag3
(g4
g5
NtRp498
(dp499
g8
S'MATT'
p500
sg10
VS
sg12
I13
sg13
Nsbag3
(g4
g5
NtRp501
(dp502
g8
g500
sg10
VNP
p503
sg12
I16
sg13
Nsbag3
(g4
g5
NtRp504
(dp505
g8
g500
sg10
VNNP
p506
sg12
I17
sg13
VMATT
p507
sbag3
(g4
g5
NtRp508
(dp509
g8
S'STRYKER'
p510
sg10
VNNP
p511
sg12
I17
sg13
VSTRYKER
p512
sbag3
(g4
g5
NtRp513
(dp514
g8
S'PLAY'
p515
sg10
VVP
p516
sg12
I16
sg13
Nsbag3
(g4
g5
NtRp517
(dp518
g8
g515
sg10
VVBD
p519
sg12
I20
sg13
VPLAYED
p520
sbag3
(g4
g5
NtRp521
(dp522
g8
S'BASKETBALL'
p523
sg10
VNP
p524
sg12
I20
sg13
Nsbag3
(g4
g5
NtRp525
(dp526
g8
g523
sg10
VNN
p527
sg12
I22
sg13
VBASKETBALL
p528
sbag3
(g4
g5
NtRp529
(dp530
g8
S'AND'
p531
sg10
VCC
p532
sg12
I22
sg13
VAND
p533
sbag3
(g4
g5
NtRp534
(dp535
g8
S'DIVING'
p536
sg10
VNN
p537
sg12
I22
sg13
VDIVING
p538
sbag3
(g4
g5
NtRp539
(dp540
g8
S'.'
sg10
V.
sg12
I1
sg13
V.
sba(lp541
(lp542
I1
aa(lp543
I2
aI5
aI26
aa(lp544
I3
aI4
aa(lp545
a(lp546
a(lp547
I6
aI7
aa(lp548
a(lp549
I8
aI12
aI13
aa(lp550
I9
aI10
aI11
aa(lp551
a(lp552
a(lp553
a(lp554
a(lp555
I14
aI16
aa(lp556
I15
aa(lp557
a(lp558
I17
aI20
aa(lp559
I18
aI19
aa(lp560
a(lp561
a(lp562
I21
aI22
aa(lp563
a(lp564
I23
aI24
aI25
aa(lp565
a(lp566
a(lp567
a(lp568
a(lp569
NaNag121
aNaNaNaNaNaNag122
aNaNaNaNaNaNaNaNaNaNaNaNaNaNaNaNaNaI1
tp570
a(g435
g541
(lp571
NaNaNaNaNaNaNag121
aNag122
aNaNaNaNaNaNaNaNaNaNaNaNaNaNaNaNaNaI7
tp572
a(g435
g541
(lp573
NaNaNaNaNaNaNaNaNag122
aNaNaNaNaNaNaNag121
aNaNaNaNaNaNaNaNaNaI7
tp574
a(g435
g541
(lp575
NaNaNaNaNaNaNaNaNag122
aNaNaNaNaNaNaNaNaNaNaNaNag121
aNaNaNaNaI7
tp576
a(g435
g541
(lp577
NaNaNaNaNaNaNaNaNag122
aNaNaNaNaNaNaNaNaNaNaNaNaNag121
aNaNaNaI7
tp578
a(g435
g541
(lp579
NaNaNaNaNaNaNaNaNag122
aNaNaNaNaNaNaNaNaNaNaNaNaNaNaNag121
aNaI7
tp580
a((lp581
g3
(g4
g5
NtRp582
(dp583
g8
V PAUL LEONARD GRADUATED FROM THE OHIO UNIVERSITY WITH A B.A.
p584
sg10
VROOT
p585
sg12
Nsg13
Nsbag3
(g4
g5
NtRp586
(dp587
g8
V PAUL LEONARD GRADUATED FROM THE OHIO UNIVERSITY WITH A B.A.
p588
sg10
VS
sg12
I0
sg13
Nsbag3
(g4
g5
NtRp589
(dp590
g8
VPAUL
p591
sg10
VNP
p592
sg12
I1
sg13
Nsbag3
(g4
g5
NtRp593
(dp594
g8
g591
sg10
VNNP
p595
sg12
I2
sg13
Nsbag3
(g4
g5
NtRp596
(dp597
g8
S'LEONARD'
p598
sg10
VNNP
p599
sg12
I2
sg13
VLEONARD
p600
sbag3
(g4
g5
NtRp601
(dp602
g8
S'GRADUATE'
p603
sg10
VVP
p604
sg12
I1
sg13
Nsbag3
(g4
g5
NtRp605
(dp606
g8
g603
sg10
VVBD
p607
sg12
I5
sg13
VGRADUATED
p608
sbag3
(g4
g5
NtRp609
(dp610
g8
S'FROM'
p611
sg10
VPP
p612
sg12
I5
sg13
Nsbag3
(g4
g5
NtRp613
(dp614
g8
g611
sg10
VIN
p615
sg12
I7
sg13
VFROM
p616
sbag3
(g4
g5
NtRp617
(dp618
g8
S'OHIO'
p619
sg10
VNP
p620
sg12
I7
sg13
Nsbag3
(g4
g5
NtRp621
(dp622
g8
S'THE'
p623
sg10
VDT
p624
sg12
I9
sg13
VTHE
p625
sbag3
(g4
g5
NtRp626
(dp627
g8
g619
sg10
VNNP
p628
sg12
I9
sg13
VOHIO
p629
sbag3
(g4
g5
NtRp630
(dp631
g8
S'UNIVERSITY'
p632
sg10
VNNP
p633
sg12
I9
sg13
VUNIVERSITY
p634
sbag3
(g4
g5
NtRp635
(dp636
g8
S'WITH'
p637
sg10
VPP
p638
sg12
I5
sg13
Nsbag3
(g4
g5
NtRp639
(dp640
g8
g637
sg10
VIN
p641
sg12
I13
sg13
VWITH
p642
sbag3
(g4
g5
NtRp643
(dp644
g8
S'B.A.'
p645
sg10
VNP
p646
sg12
I13
sg13
Nsbag3
(g4
g5
NtRp647
(dp648
g8
S'A'
sg10
VDT
p649
sg12
I15
sg13
VA
sbag3
(g4
g5
NtRp650
(dp651
g8
g645
sg10
VNN
p652
sg12
I15
sg13
VB.A.
p653
sba(lp654
(lp655
I1
aa(lp656
I2
aI5
aa(lp657
I3
aI4
aa(lp658
a(lp659
a(lp660
I6
aI7
aI13
aa(lp661
a(lp662
I8
aI9
aa(lp663
a(lp664
I10
aI11
aI12
aa(lp665
a(lp666
a(lp667
a(lp668
I14
aI15
aa(lp669
a(lp670
I16
aI17
aa(lp671
a(lp672
a(lp673
NaNag121
aNaNaNaNaNaNaNaNag122
aNaNaNaNaNaNaI1
tp674
a(g581
g654
(lp675
NaNaNaNaNaNaNaNaNaNaNag122
aNaNaNag121
aNaNaI5
tp676
a(g581
g654
(lp677
NaNaNaNaNaNaNaNaNaNaNag122
aNaNaNaNaNag121
aI5
tp678
a((lp679
g3
(g4
g5
NtRp680
(dp681
g8
V COCKBURN WAS EDUCATED AT GLENALMOND COLLEGE , PERTHSHIRE , AND WORCESTER COLLEGE , OXFORD .
p682
sg10
VROOT
p683
sg12
Nsg13
Nsbag3
(g4
g5
NtRp684
(dp685
g8
V COCKBURN WAS EDUCATED AT GLENALMOND COLLEGE , PERTHSHIRE , AND WORCESTER COLLEGE , OXFORD .
p686
sg10
VS
sg12
I0
sg13
Nsbag3
(g4
g5
NtRp687
(dp688
g8
VCOCKBURN
p689
sg10
VNP
p690
sg12
I1
sg13
Nsbag3
(g4
g5
NtRp691
(dp692
g8
g689
sg10
VNNP
p693
sg12
I2
sg13
Nsbag3
(g4
g5
NtRp694
(dp695
g8
S'BE'
p696
sg10
VVP
p697
sg12
I1
sg13
Nsbag3
(g4
g5
NtRp698
(dp699
g8
g696
sg10
VVBD
p700
sg12
I4
sg13
VWAS
p701
sbag3
(g4
g5
NtRp702
(dp703
g8
S'EDUCATE'
p704
sg10
VVP
p705
sg12
I4
sg13
Nsbag3
(g4
g5
NtRp706
(dp707
g8
g704
sg10
VVBN
p708
sg12
I6
sg13
VEDUCATED
p709
sbag3
(g4
g5
NtRp710
(dp711
g8
S'AT'
p712
sg10
VPP
p713
sg12
I6
sg13
Nsbag3
(g4
g5
NtRp714
(dp715
g8
g712
sg10
VIN
p716
sg12
I8
sg13
VAT
p717
sbag3
(g4
g5
NtRp718
(dp719
g8
S'GLENALMOND'
p720
sg10
VNP
p721
sg12
I8
sg13
Nsbag3
(g4
g5
NtRp722
(dp723
g8
g720
sg10
VNP
p724
sg12
I10
sg13
Nsbag3
(g4
g5
NtRp725
(dp726
g8
g720
sg10
VNNP
p727
sg12
I11
sg13
VGLENALMOND
p728
sbag3
(g4
g5
NtRp729
(dp730
g8
S'COLLEGE'
p731
sg10
VNNP
p732
sg12
I11
sg13
VCOLLEGE
p733
sbag3
(g4
g5
NtRp734
(dp735
g8
S','
sg10
V,
sg12
I11
sg13
V,
sbag3
(g4
g5
NtRp736
(dp737
g8
S'PERTHSHIRE'
p738
sg10
VNNP
p739
sg12
I11
sg13
VPERTHSHIRE
p740
sbag3
(g4
g5
NtRp741
(dp742
g8
S','
sg10
V,
sg12
I11
sg13
V,
sbag3
(g4
g5
NtRp743
(dp744
g8
S'AND'
p745
sg10
VCC
p746
sg12
I11
sg13
VAND
p747
sbag3
(g4
g5
NtRp748
(dp749
g8
S'WORCESTER'
p750
sg10
VNNP
p751
sg12
I11
sg13
VWORCESTER
p752
sbag3
(g4
g5
NtRp753
(dp754
g8
g731
sg10
VNNP
p755
sg12
I11
sg13
VCOLLEGE
p756
sbag3
(g4
g5
NtRp757
(dp758
g8
S','
sg10
V,
sg12
I10
sg13
V,
sbag3
(g4
g5
NtRp759
(dp760
g8
S'OXFORD'
p761
sg10
VNP
p762
sg12
I10
sg13
VOXFORD
p763
sbag3
(g4
g5
NtRp764
(dp765
g8
g761
sg10
VNNP
p766
sg12
I21
sg13
VOXFORD
p767
sbag3
(g4
g5
NtRp768
(dp769
g8
S'.'
sg10
V.
sg12
I1
sg13
V.
sba(lp770
(lp771
I1
aa(lp772
I2
aI4
aI23
aa(lp773
I3
aa(lp774
a(lp775
I5
aI6
aa(lp776
a(lp777
I7
aI8
aa(lp778
a(lp779
I9
aI10
aa(lp780
a(lp781
I11
aI20
aI21
aa(lp782
I12
aI13
aI14
aI15
aI16
aI17
aI18
aI19
aa(lp783
a(lp784
a(lp785
a(lp786
a(lp787
a(lp788
a(lp789
a(lp790
a(lp791
a(lp792
I22
aa(lp793
a(lp794
a(lp795
NaNag121
aNaNaNaNaNaNaNaNaNag122
aNaNaNaNaNaNaNaNaNaNaNaI1
tp796
a(g679
g770
(lp797
NaNaNaNaNaNaNaNaNaNag121
aNag122
aNaNaNaNaNaNaNaNaNaNaNaI10
tp798
a(g679
g770
(lp799
NaNaNaNaNaNaNaNaNaNaNaNag122
aNaNaNaNaNaNaNaNag121
aNaNaI10
tp800
a(g679
g770
(lp801
NaNag121
aNaNaNaNaNaNaNaNaNaNaNaNaNaNaNag122
aNaNaNaNaNaI1
tp802
a(g679
g770
(lp803
NaNaNaNaNaNaNaNaNaNag121
aNaNaNaNaNaNaNag122
aNaNaNaNaNaI10
tp804
a(g679
g770
(lp805
NaNaNaNaNaNaNaNaNaNaNaNaNaNaNaNaNaNag122
aNaNag121
aNaNaI10
tp806
a((lp807
g3
(g4
g5
NtRp808
(dp809
g8
V BORN IN THE BRONX , SPIRO ATTENDED XAVIER HIGH SCHOOL IN MANHATTAN .
p810
sg10
VROOT
p811
sg12
Nsg13
Nsbag3
(g4
g5
NtRp812
(dp813
g8
V BORN IN THE BRONX , SPIRO ATTENDED XAVIER HIGH SCHOOL IN MANHATTAN .
p814
sg10
VS
sg12
I0
sg13
Nsbag3
(g4
g5
NtRp815
(dp816
g8
VBORN
p817
sg10
VS
sg12
I1
sg13
Nsbag3
(g4
g5
NtRp818
(dp819
g8
g817
sg10
VVP
p820
sg12
I2
sg13
Nsbag3
(g4
g5
NtRp821
(dp822
g8
g817
sg10
VVBN
p823
sg12
I3
sg13
Nsbag3
(g4
g5
NtRp824
(dp825
g8
S'IN'
p826
sg10
VPP
p827
sg12
I3
sg13
Nsbag3
(g4
g5
NtRp828
(dp829
g8
g826
sg10
VIN
p830
sg12
I5
sg13
VIN
p831
sbag3
(g4
g5
NtRp832
(dp833
g8
S'BRONX'
p834
sg10
VNP
p835
sg12
I5
sg13
Nsbag3
(g4
g5
NtRp836
(dp837
g8
S'THE'
p838
sg10
VDT
p839
sg12
I7
sg13
VTHE
p840
sbag3
(g4
g5
NtRp841
(dp842
g8
g834
sg10
VNNP
p843
sg12
I7
sg13
VBRONX
p844
sbag3
(g4
g5
NtRp845
(dp846
g8
S','
sg10
V,
sg12
I1
sg13
V,
sbag3
(g4
g5
NtRp847
(dp848
g8
S'SPIRO'
p849
sg10
VNP
p850
sg12
I1
sg13
VSPIRO
p851
sbag3
(g4
g5
NtRp852
(dp853
g8
g849
sg10
VNNP
p854
sg12
I11
sg13
VSPIRO
p855
sbag3
(g4
g5
NtRp856
(dp857
g8
S'ATTEND'
p858
sg10
VVP
p859
sg12
I1
sg13
Nsbag3
(g4
g5
NtRp860
(dp861
g8
g858
sg10
VVBD
p862
sg12
I13
sg13
VATTENDED
p863
sbag3
(g4
g5
NtRp864
(dp865
g8
S'XAVIER'
p866
sg10
VNP
p867
sg12
I13
sg13
Nsbag3
(g4
g5
NtRp868
(dp869
g8
g866
sg10
VNP
p870
sg12
I15
sg13
Nsbag3
(g4
g5
NtRp871
(dp872
g8
g866
sg10
VNNP
p873
sg12
I16
sg13
VXAVIER
p874
sbag3
(g4
g5
NtRp875
(dp876
g8
S'HIGH'
p877
sg10
VNNP
p878
sg12
I16
sg13
VHIGH
p879
sbag3
(g4
g5
NtRp880
(dp881
g8
S'SCHOOL'
p882
sg10
VNNP
p883
sg12
I16
sg13
VSCHOOL
p884
sbag3
(g4
g5
NtRp885
(dp886
g8
g826
sg10
VPP
p887
sg12
I15
sg13
Nsbag3
(g4
g5
NtRp888
(dp889
g8
g826
sg10
VIN
p890
sg12
I20
sg13
VIN
p891
sbag3
(g4
g5
NtRp892
(dp893
g8
S'MANHATTAN'
p894
sg10
VNP
p895
sg12
I20
sg13
VMANHATTAN
p896
sbag3
(g4
g5
NtRp897
(dp898
g8
g894
sg10
VNNP
p899
sg12
I22
sg13
VMANHATTAN
p900
sbag3
(g4
g5
NtRp901
(dp902
g8
S'.'
sg10
V.
sg12
I1
sg13
V.
sba(lp903
(lp904
I1
aa(lp905
I2
aI10
aI11
aI13
aI24
aa(lp906
I3
aa(lp907
I4
aI5
aa(lp908
a(lp909
I6
aI7
aa(lp910
a(lp911
I8
aI9
aa(lp912
a(lp913
a(lp914
a(lp915
I12
aa(lp916
a(lp917
I14
aI15
aa(lp918
a(lp919
I16
aI20
aa(lp920
I17
aI18
aI19
aa(lp921
a(lp922
a(lp923
a(lp924
I21
aI22
aa(lp925
a(lp926
I23
aa(lp927
a(lp928
a(lp929
NaNaNaNaNaNaNag121
aNaNaNaNaNaNaNaNaNag122
aNaNaNaNaNaNaNaI1
tp930
a(g807
g903
(lp931
NaNaNaNaNaNaNaNaNaNaNag121
aNaNaNaNaNag122
aNaNaNaNaNaNaNaI1
tp932
a(g807
g903
(lp933
NaNaNaNaNaNaNaNaNaNaNaNaNaNaNag121
aNag122
aNaNaNaNaNaNaNaI15
tp934
a(g807
g903
(lp935
NaNaNaNaNaNaNaNaNaNaNaNaNaNaNaNaNag122
aNaNaNaNag121
aNaNaI15
tp936
a((lp937
g3
(g4
g5
NtRp938
(dp939
g8
V CARL EPTING MUNDY , JR. GRADUATED FROM SIDNEY LANIER HIGH SCHOOL IN MONTGOMERY , ALABAMA .
p940
sg10
VROOT
p941
sg12
Nsg13
Nsbag3
(g4
g5
NtRp942
(dp943
g8
V CARL EPTING MUNDY , JR. GRADUATED FROM SIDNEY LANIER HIGH SCHOOL IN MONTGOMERY , ALABAMA .
p944
sg10
VS
sg12
I0
sg13
Nsbag3
(g4
g5
NtRp945
(dp946
g8
VCARL
p947
sg10
VNP
p948
sg12
I1
sg13
Nsbag3
(g4
g5
NtRp949
(dp950
g8
g947
sg10
VNNP
p951
sg12
I2
sg13
Nsbag3
(g4
g5
NtRp952
(dp953
g8
S'EPTING'
p954
sg10
VNNP
p955
sg12
I2
sg13
VEPTING
p956
sbag3
(g4
g5
NtRp957
(dp958
g8
S'MUNDY'
p959
sg10
VNNP
p960
sg12
I2
sg13
VMUNDY
p961
sbag3
(g4
g5
NtRp962
(dp963
g8
S','
sg10
V,
sg12
I2
sg13
V,
sbag3
(g4
g5
NtRp964
(dp965
g8
S'JR.'
p966
sg10
VNNP
p967
sg12
I2
sg13
VJR.
p968
sbag3
(g4
g5
NtRp969
(dp970
g8
S'GRADUATE'
p971
sg10
VVP
p972
sg12
I1
sg13
Nsbag3
(g4
g5
NtRp973
(dp974
g8
g971
sg10
VVBD
p975
sg12
I8
sg13
VGRADUATED
p976
sbag3
(g4
g5
NtRp977
(dp978
g8
S'FROM'
p979
sg10
VPP
p980
sg12
I8
sg13
Nsbag3
(g4
g5
NtRp981
(dp982
g8
g979
sg10
VIN
p983
sg12
I10
sg13
VFROM
p984
sbag3
(g4
g5
NtRp985
(dp986
g8
S'SIDNEY'
p987
sg10
VNP
p988
sg12
I10
sg13
Nsbag3
(g4
g5
NtRp989
(dp990
g8
g987
sg10
VNNP
p991
sg12
I12
sg13
VSIDNEY
p992
sbag3
(g4
g5
NtRp993
(dp994
g8
S'LANIER'
p995
sg10
VNNP
p996
sg12
I12
sg13
VLANIER
p997
sbag3
(g4
g5
NtRp998
(dp999
g8
S'HIGH'
p1000
sg10
VNNP
p1001
sg12
I12
sg13
VHIGH
p1002
sbag3
(g4
g5
NtRp1003
(dp1004
g8
S'SCHOOL'
p1005
sg10
VNNP
p1006
sg12
I12
sg13
VSCHOOL
p1007
sbag3
(g4
g5
NtRp1008
(dp1009
g8
S'IN'
p1010
sg10
VPP
p1011
sg12
I8
sg13
Nsbag3
(g4
g5
NtRp1012
(dp1013
g8
g1010
sg10
VIN
p1014
sg12
I17
sg13
VIN
p1015
sbag3
(g4
g5
NtRp1016
(dp1017
g8
S'MONTGOMERY'
p1018
sg10
VNP
p1019
sg12
I17
sg13
Nsbag3
(g4
g5
NtRp1020
(dp1021
g8
g1018
sg10
VNNP
p1022
sg12
I19
sg13
VMONTGOMERY
p1023
sbag3
(g4
g5
NtRp1024
(dp1025
g8
S','
sg10
V,
sg12
I19
sg13
V,
sbag3
(g4
g5
NtRp1026
(dp1027
g8
S'ALABAMA'
p1028
sg10
VNNP
p1029
sg12
I19
sg13
VALABAMA
p1030
sbag3
(g4
g5
NtRp1031
(dp1032
g8
S'.'
sg10
V.
sg12
I1
sg13
V.
sba(lp1033
(lp1034
I1
aa(lp1035
I2
aI8
aI23
aa(lp1036
I3
aI4
aI5
aI6
aI7
aa(lp1037
a(lp1038
a(lp1039
a(lp1040
a(lp1041
a(lp1042
I9
aI10
aI17
aa(lp1043
a(lp1044
I11
aI12
aa(lp1045
a(lp1046
I13
aI14
aI15
aI16
aa(lp1047
a(lp1048
a(lp1049
a(lp1050
a(lp1051
I18
aI19
aa(lp1052
a(lp1053
I20
aI21
aI22
aa(lp1054
a(lp1055
a(lp1056
a(lp1057
a(lp1058
NaNag121
aNaNaNaNaNaNaNaNaNaNag122
aNaNaNaNaNaNaNaNaNaNaI1
tp1059
a(g937
g1033
(lp1060
NaNaNaNaNaNaNaNaNaNaNaNaNag122
aNaNaNaNaNag121
aNaNaNaNaI8
tp1061
a((lp1062
g3
(g4
g5
NtRp1063
(dp1064
g8
V SIGURD SWANE STUDIED IN COPENHAGEN AT THE ROYAL DANISH ACADEMY OF ART .
p1065
sg10
VROOT
p1066
sg12
Nsg13
Nsbag3
(g4
g5
NtRp1067
(dp1068
g8
V SIGURD SWANE STUDIED IN COPENHAGEN AT THE ROYAL DANISH ACADEMY OF ART .
p1069
sg10
VS
sg12
I0
sg13
Nsbag3
(g4
g5
NtRp1070
(dp1071
g8
VSIGURD
p1072
sg10
VNP
p1073
sg12
I1
sg13
Nsbag3
(g4
g5
NtRp1074
(dp1075
g8
g1072
sg10
VNNP
p1076
sg12
I2
sg13
Nsbag3
(g4
g5
NtRp1077
(dp1078
g8
S'SWANE'
p1079
sg10
VNNP
p1080
sg12
I2
sg13
VSWANE
p1081
sbag3
(g4
g5
NtRp1082
(dp1083
g8
S'STUDY'
p1084
sg10
VVP
p1085
sg12
I1
sg13
Nsbag3
(g4
g5
NtRp1086
(dp1087
g8
g1084
sg10
VVBN
p1088
sg12
I5
sg13
VSTUDIED
p1089
sbag3
(g4
g5
NtRp1090
(dp1091
g8
S'IN'
p1092
sg10
VPP
p1093
sg12
I5
sg13
Nsbag3
(g4
g5
NtRp1094
(dp1095
g8
g1092
sg10
VIN
p1096
sg12
I7
sg13
VIN
p1097
sbag3
(g4
g5
NtRp1098
(dp1099
g8
S'COPENHAGEN'
p1100
sg10
VNP
p1101
sg12
I7
sg13
VCOPENHAGEN
p1102
sbag3
(g4
g5
NtRp1103
(dp1104
g8
g1100
sg10
VNNP
p1105
sg12
I9
sg13
VCOPENHAGEN
p1106
sbag3
(g4
g5
NtRp1107
(dp1108
g8
S'AT'
p1109
sg10
VPP
p1110
sg12
I5
sg13
Nsbag3
(g4
g5
NtRp1111
(dp1112
g8
g1109
sg10
VIN
p1113
sg12
I11
sg13
VAT
p1114
sbag3
(g4
g5
NtRp1115
(dp1116
g8
S'ROYAL'
p1117
sg10
VNP
p1118
sg12
I11
sg13
Nsbag3
(g4
g5
NtRp1119
(dp1120
g8
g1117
sg10
VNP
p1121
sg12
I13
sg13
Nsbag3
(g4
g5
NtRp1122
(dp1123
g8
S'THE'
p1124
sg10
VDT
p1125
sg12
I14
sg13
VTHE
p1126
sbag3
(g4
g5
NtRp1127
(dp1128
g8
g1117
sg10
VNNP
p1129
sg12
I14
sg13
VROYAL
p1130
sbag3
(g4
g5
NtRp1131
(dp1132
g8
S'DANISH'
p1133
sg10
VJJ
p1134
sg12
I14
sg13
VDANISH
p1135
sbag3
(g4
g5
NtRp1136
(dp1137
g8
S'ACADEMY'
p1138
sg10
VNN
p1139
sg12
I14
sg13
VACADEMY
p1140
sbag3
(g4
g5
NtRp1141
(dp1142
g8
S'OF'
p1143
sg10
VPP
p1144
sg12
I13
sg13
Nsbag3
(g4
g5
NtRp1145
(dp1146
g8
g1143
sg10
VIN
p1147
sg12
I19
sg13
VOF
p1148
sbag3
(g4
g5
NtRp1149
(dp1150
g8
S'ART'
p1151
sg10
VNP
p1152
sg12
I19
sg13
VART
p1153
sbag3
(g4
g5
NtRp1154
(dp1155
g8
g1151
sg10
VNNP
p1156
sg12
I21
sg13
VART
p1157
sbag3
(g4
g5
NtRp1158
(dp1159
g8
S'.'
sg10
V.
sg12
I1
sg13
V.
sba(lp1160
(lp1161
I1
aa(lp1162
I2
aI5
aI23
aa(lp1163
I3
aI4
aa(lp1164
a(lp1165
a(lp1166
I6
aI7
aI11
aa(lp1167
a(lp1168
I8
aI9
aa(lp1169
a(lp1170
I10
aa(lp1171
a(lp1172
I12
aI13
aa(lp1173
a(lp1174
I14
aI19
aa(lp1175
I15
aI16
aI17
aI18
aa(lp1176
a(lp1177
a(lp1178
a(lp1179
a(lp1180
I20
aI21
aa(lp1181
a(lp1182
I22
aa(lp1183
a(lp1184
a(lp1185
NaNag121
aNaNaNaNaNaNaNaNaNaNaNaNaNag122
aNaNaNaNaNaNaNaI1
tp1186
a(g1062
g1160
(lp1187
NaNaNaNaNaNaNaNaNag121
aNaNaNaNaNaNag122
aNaNaNaNaNaNaNaI5
tp1188
a(g1062
g1160
(lp1189
NaNaNaNaNaNaNaNaNaNaNaNaNag121
aNaNag122
aNaNaNaNaNaNaNaI13
tp1190
a((lp1191
g3
(g4
g5
NtRp1192
(dp1193
g8
V J. W. CROWDUS ATTENDED ST. LOUIS MEDICAL COLLEGE AT ST. LOUIS UNIVERSITY .
p1194
sg10
VROOT
p1195
sg12
Nsg13
Nsbag3
(g4
g5
NtRp1196
(dp1197
g8
V J. W. CROWDUS ATTENDED ST. LOUIS MEDICAL COLLEGE AT ST. LOUIS UNIVERSITY .
p1198
sg10
VS
sg12
I0
sg13
Nsbag3
(g4
g5
NtRp1199
(dp1200
g8
VJ.
p1201
sg10
VNP
p1202
sg12
I1
sg13
Nsbag3
(g4
g5
NtRp1203
(dp1204
g8
g1201
sg10
VNNP
p1205
sg12
I2
sg13
Nsbag3
(g4
g5
NtRp1206
(dp1207
g8
S'W.'
p1208
sg10
VNNP
p1209
sg12
I2
sg13
VW.
p1210
sbag3
(g4
g5
NtRp1211
(dp1212
g8
S'CROWDUS'
p1213
sg10
VNNP
p1214
sg12
I2
sg13
VCROWDUS
p1215
sbag3
(g4
g5
NtRp1216
(dp1217
g8
S'ATTEND'
p1218
sg10
VVP
p1219
sg12
I1
sg13
Nsbag3
(g4
g5
NtRp1220
(dp1221
g8
g1218
sg10
VVBD
p1222
sg12
I6
sg13
VATTENDED
p1223
sbag3
(g4
g5
NtRp1224
(dp1225
g8
S'ST.'
p1226
sg10
VNP
p1227
sg12
I6
sg13
Nsbag3
(g4
g5
NtRp1228
(dp1229
g8
g1226
sg10
VNP
p1230
sg12
I8
sg13
Nsbag3
(g4
g5
NtRp1231
(dp1232
g8
g1226
sg10
VNNP
p1233
sg12
I9
sg13
VST.
p1234
sbag3
(g4
g5
NtRp1235
(dp1236
g8
S'LOUIS'
p1237
sg10
VNNP
p1238
sg12
I9
sg13
VLOUIS
p1239
sbag3
(g4
g5
NtRp1240
(dp1241
g8
S'MEDICAL'
p1242
sg10
VNNP
p1243
sg12
I9
sg13
VMEDICAL
p1244
sbag3
(g4
g5
NtRp1245
(dp1246
g8
S'COLLEGE'
p1247
sg10
VNNP
p1248
sg12
I9
sg13
VCOLLEGE
p1249
sbag3
(g4
g5
NtRp1250
(dp1251
g8
S'AT'
p1252
sg10
VPP
p1253
sg12
I8
sg13
Nsbag3
(g4
g5
NtRp1254
(dp1255
g8
g1252
sg10
VIN
p1256
sg12
I14
sg13
VAT
p1257
sbag3
(g4
g5
NtRp1258
(dp1259
g8
g1226
sg10
VNP
p1260
sg12
I14
sg13
Nsbag3
(g4
g5
NtRp1261
(dp1262
g8
g1226
sg10
VNNP
p1263
sg12
I16
sg13
VST.
p1264
sbag3
(g4
g5
NtRp1265
(dp1266
g8
g1237
sg10
VNNP
p1267
sg12
I16
sg13
VLOUIS
p1268
sbag3
(g4
g5
NtRp1269
(dp1270
g8
S'UNIVERSITY'
p1271
sg10
VNNP
p1272
sg12
I16
sg13
VUNIVERSITY
p1273
sbag3
(g4
g5
NtRp1274
(dp1275
g8
S'.'
sg10
V.
sg12
I1
sg13
V.
sba(lp1276
(lp1277
I1
aa(lp1278
I2
aI6
aI20
aa(lp1279
I3
aI4
aI5
aa(lp1280
a(lp1281
a(lp1282
a(lp1283
I7
aI8
aa(lp1284
a(lp1285
I9
aI14
aa(lp1286
I10
aI11
aI12
aI13
aa(lp1287
a(lp1288
a(lp1289
a(lp1290
a(lp1291
I15
aI16
aa(lp1292
a(lp1293
I17
aI18
aI19
aa(lp1294
a(lp1295
a(lp1296
a(lp1297
a(lp1298
NaNag121
aNaNaNaNaNaNaNag122
aNaNaNaNaNaNaNaNaNaNaI1
tp1299
a(g1191
g1276
(lp1300
NaNaNaNaNaNaNaNag121
aNag122
aNaNaNaNaNaNaNaNaNaNaI8
tp1301
a(g1191
g1276
(lp1302
NaNag121
aNaNaNaNaNaNaNaNaNaNaNaNaNaNag122
aNaNaNaI1
tp1303
a(g1191
g1276
(lp1304
NaNaNaNaNaNaNaNag121
aNaNaNaNaNaNaNaNag122
aNaNaNaI8
tp1305
a((lp1306
g3
(g4
g5
NtRp1307
(dp1308
g8
V GHEORGHE GHIMPU COMPLETED HIS STUDIES AT T. G. SHEVCHENKO UNIVERSITY IN TIRASPOL .
p1309
sg10
VROOT
p1310
sg12
Nsg13
Nsbag3
(g4
g5
NtRp1311
(dp1312
g8
V GHEORGHE GHIMPU COMPLETED HIS STUDIES AT T. G. SHEVCHENKO UNIVERSITY IN TIRASPOL .
p1313
sg10
VS
sg12
I0
sg13
Nsbag3
(g4
g5
NtRp1314
(dp1315
g8
VGHEORGHE
p1316
sg10
VNP
p1317
sg12
I1
sg13
Nsbag3
(g4
g5
NtRp1318
(dp1319
g8
g1316
sg10
VNNP
p1320
sg12
I2
sg13
Nsbag3
(g4
g5
NtRp1321
(dp1322
g8
S'GHIMPU'
p1323
sg10
VNNP
p1324
sg12
I2
sg13
VGHIMPU
p1325
sbag3
(g4
g5
NtRp1326
(dp1327
g8
S'COMPLETE'
p1328
sg10
VVP
p1329
sg12
I1
sg13
Nsbag3
(g4
g5
NtRp1330
(dp1331
g8
g1328
sg10
VVBD
p1332
sg12
I5
sg13
VCOMPLETED
p1333
sbag3
(g4
g5
NtRp1334
(dp1335
g8
S'STUDY'
p1336
sg10
VNP
p1337
sg12
I5
sg13
Nsbag3
(g4
g5
NtRp1338
(dp1339
g8
S'HE'
p1340
sg10
VPRP$
p1341
sg12
I7
sg13
VHIS
p1342
sbag3
(g4
g5
NtRp1343
(dp1344
g8
g1336
sg10
VNNS
p1345
sg12
I7
sg13
VSTUDIES
p1346
sbag3
(g4
g5
NtRp1347
(dp1348
g8
S'AT'
p1349
sg10
VPP
p1350
sg12
I5
sg13
Nsbag3
(g4
g5
NtRp1351
(dp1352
g8
g1349
sg10
VIN
p1353
sg12
I10
sg13
VAT
p1354
sbag3
(g4
g5
NtRp1355
(dp1356
g8
S'T.'
p1357
sg10
VNP
p1358
sg12
I10
sg13
Nsbag3
(g4
g5
NtRp1359
(dp1360
g8
g1357
sg10
VNNP
p1361
sg12
I12
sg13
VT.
p1362
sbag3
(g4
g5
NtRp1363
(dp1364
g8
S'G.'
p1365
sg10
VNNP
p1366
sg12
I12
sg13
VG.
p1367
sbag3
(g4
g5
NtRp1368
(dp1369
g8
S'SHEVCHENKO'
p1370
sg10
VNNP
p1371
sg12
I12
sg13
VSHEVCHENKO
p1372
sbag3
(g4
g5
NtRp1373
(dp1374
g8
S'UNIVERSITY'
p1375
sg10
VNNP
p1376
sg12
I12
sg13
VUNIVERSITY
p1377
sbag3
(g4
g5
NtRp1378
(dp1379
g8
S'IN'
p1380
sg10
VPP
p1381
sg12
I5
sg13
Nsbag3
(g4
g5
NtRp1382
(dp1383
g8
g1380
sg10
VIN
p1384
sg12
I17
sg13
VIN
p1385
sbag3
(g4
g5
NtRp1386
(dp1387
g8
S'TIRASPOL'
p1388
sg10
VNP
p1389
sg12
I17
sg13
VTIRASPOL
p1390
sbag3
(g4
g5
NtRp1391
(dp1392
g8
g1388
sg10
VNNP
p1393
sg12
I19
sg13
VTIRASPOL
p1394
sbag3
(g4
g5
NtRp1395
(dp1396
g8
S'.'
sg10
V.
sg12
I1
sg13
V.
sba(lp1397
(lp1398
I1
aa(lp1399
I2
aI5
aI21
aa(lp1400
I3
aI4
aa(lp1401
a(lp1402
a(lp1403
I6
aI7
aI10
aI17
aa(lp1404
a(lp1405
I8
aI9
aa(lp1406
a(lp1407
a(lp1408
I11
aI12
aa(lp1409
a(lp1410
I13
aI14
aI15
aI16
aa(lp1411
a(lp1412
a(lp1413
a(lp1414
a(lp1415
I18
aI19
aa(lp1416
a(lp1417
I20
aa(lp1418
a(lp1419
a(lp1420
NaNag121
aNaNaNaNaNaNaNaNaNaNag122
aNaNaNaNaNaNaNaNaI1
tp1421
a(g1306
g1397
(lp1422
NaNaNaNaNaNaNag121
aNaNaNaNaNag122
aNaNaNaNaNaNaNaNaI5
tp1423
a(g1306
g1397
(lp1424
NaNaNaNaNaNaNaNaNag121
aNaNaNag122
aNaNaNaNaNaNaNaNaI5
tp1425
a(g1306
g1397
(lp1426
NaNaNaNaNaNaNaNaNaNaNaNaNag122
aNaNaNaNaNag121
aNaNaI5
tp1427
a((lp1428
g3
(g4
g5
NtRp1429
(dp1430
g8
V CLEDAN MEARS WAS EDUCATED AT THE UNIVERSITY OF WALES IN ABERYSTWYTH .
p1431
sg10
VROOT
p1432
sg12
Nsg13
Nsbag3
(g4
g5
NtRp1433
(dp1434
g8
V CLEDAN MEARS WAS EDUCATED AT THE UNIVERSITY OF WALES IN ABERYSTWYTH .
p1435
sg10
VS
sg12
I0
sg13
Nsbag3
(g4
g5
NtRp1436
(dp1437
g8
VCLEDAN
p1438
sg10
VNP
p1439
sg12
I1
sg13
Nsbag3
(g4
g5
NtRp1440
(dp1441
g8
g1438
sg10
VNNP
p1442
sg12
I2
sg13
Nsbag3
(g4
g5
NtRp1443
(dp1444
g8
S'MEARS'
p1445
sg10
VNNP
p1446
sg12
I2
sg13
VMEARS
p1447
sbag3
(g4
g5
NtRp1448
(dp1449
g8
S'BE'
p1450
sg10
VVP
p1451
sg12
I1
sg13
Nsbag3
(g4
g5
NtRp1452
(dp1453
g8
g1450
sg10
VVBD
p1454
sg12
I5
sg13
VWAS
p1455
sbag3
(g4
g5
NtRp1456
(dp1457
g8
S'EDUCATE'
p1458
sg10
VVP
p1459
sg12
I5
sg13
Nsbag3
(g4
g5
NtRp1460
(dp1461
g8
g1458
sg10
VVBN
p1462
sg12
I7
sg13
VEDUCATED
p1463
sbag3
(g4
g5
NtRp1464
(dp1465
g8
S'AT'
p1466
sg10
VPP
p1467
sg12
I7
sg13
Nsbag3
(g4
g5
NtRp1468
(dp1469
g8
g1466
sg10
VIN
p1470
sg12
I9
sg13
VAT
p1471
sbag3
(g4
g5
NtRp1472
(dp1473
g8
S'UNIVERSITY'
p1474
sg10
VNP
p1475
sg12
I9
sg13
Nsbag3
(g4
g5
NtRp1476
(dp1477
g8
g1474
sg10
VNP
p1478
sg12
I11
sg13
Nsbag3
(g4
g5
NtRp1479
(dp1480
g8
S'THE'
p1481
sg10
VDT
p1482
sg12
I12
sg13
VTHE
p1483
sbag3
(g4
g5
NtRp1484
(dp1485
g8
g1474
sg10
VNNP
p1486
sg12
I12
sg13
VUNIVERSITY
p1487
sbag3
(g4
g5
NtRp1488
(dp1489
g8
S'OF'
p1490
sg10
VPP
p1491
sg12
I11
sg13
Nsbag3
(g4
g5
NtRp1492
(dp1493
g8
g1490
sg10
VIN
p1494
sg12
I15
sg13
VOF
p1495
sbag3
(g4
g5
NtRp1496
(dp1497
g8
S'WALES'
p1498
sg10
VNP
p1499
sg12
I15
sg13
VWALES
p1500
sbag3
(g4
g5
NtRp1501
(dp1502
g8
g1498
sg10
VNNP
p1503
sg12
I17
sg13
VWALES
p1504
sbag3
(g4
g5
NtRp1505
(dp1506
g8
S'IN'
p1507
sg10
VPP
p1508
sg12
I7
sg13
Nsbag3
(g4
g5
NtRp1509
(dp1510
g8
g1507
sg10
VIN
p1511
sg12
I19
sg13
VIN
p1512
sbag3
(g4
g5
NtRp1513
(dp1514
g8
S'ABERYSTWYTH'
p1515
sg10
VNP
p1516
sg12
I19
sg13
VABERYSTWYTH
p1517
sbag3
(g4
g5
NtRp1518
(dp1519
g8
g1515
sg10
VNNP
p1520
sg12
I21
sg13
VABERYSTWYTH
p1521
sbag3
(g4
g5
NtRp1522
(dp1523
g8
S'.'
sg10
V.
sg12
I1
sg13
V.
sba(lp1524
(lp1525
I1
aa(lp1526
I2
aI5
aI23
aa(lp1527
I3
aI4
aa(lp1528
a(lp1529
a(lp1530
I6
aI7
aa(lp1531
a(lp1532
I8
aI9
aI19
aa(lp1533
a(lp1534
I10
aI11
aa(lp1535
a(lp1536
I12
aI15
aa(lp1537
I13
aI14
aa(lp1538
a(lp1539
a(lp1540
I16
aI17
aa(lp1541
a(lp1542
I18
aa(lp1543
a(lp1544
I20
aI21
aa(lp1545
a(lp1546
I22
aa(lp1547
a(lp1548
a(lp1549
NaNag121
aNaNaNaNaNaNaNaNaNaNaNag122
aNaNaNaNaNaNaNaNaNaI1
tp1550
a(g1428
g1524
(lp1551
NaNaNaNaNaNaNaNaNaNaNag121
aNaNag122
aNaNaNaNaNaNaNaNaNaI11
tp1552
a(g1428
g1524
(lp1553
NaNaNaNaNaNaNaNaNaNaNaNaNaNag122
aNaNaNaNaNaNag121
aNaNaI7
tp1554
a((lp1555
g3
(g4
g5
NtRp1556
(dp1557
g8
V AMOS DEGANI STUDIED PUBLIC ADMINISTRATION AT THE HEBREW UNIVERSITY OF JERUSALEM .
p1558
sg10
VROOT
p1559
sg12
Nsg13
Nsbag3
(g4
g5
NtRp1560
(dp1561
g8
V AMOS DEGANI STUDIED PUBLIC ADMINISTRATION AT THE HEBREW UNIVERSITY OF JERUSALEM .
p1562
sg10
VS
sg12
I0
sg13
Nsbag3
(g4
g5
NtRp1563
(dp1564
g8
VAMOS
p1565
sg10
VNP
p1566
sg12
I1
sg13
Nsbag3
(g4
g5
NtRp1567
(dp1568
g8
g1565
sg10
VNNP
p1569
sg12
I2
sg13
Nsbag3
(g4
g5
NtRp1570
(dp1571
g8
S'DEGANI'
p1572
sg10
VNNP
p1573
sg12
I2
sg13
VDEGANI
p1574
sbag3
(g4
g5
NtRp1575
(dp1576
g8
S'STUDY'
p1577
sg10
VVP
p1578
sg12
I1
sg13
Nsbag3
(g4
g5
NtRp1579
(dp1580
g8
g1577
sg10
VVBD
p1581
sg12
I5
sg13
VSTUDIED
p1582
sbag3
(g4
g5
NtRp1583
(dp1584
g8
S'ADMINISTRATION'
p1585
sg10
VNP
p1586
sg12
I5
sg13
Nsbag3
(g4
g5
NtRp1587
(dp1588
g8
S'PUBLIC'
p1589
sg10
VJJ
p1590
sg12
I7
sg13
VPUBLIC
p1591
sbag3
(g4
g5
NtRp1592
(dp1593
g8
g1585
sg10
VNN
p1594
sg12
I7
sg13
VADMINISTRATION
p1595
sbag3
(g4
g5
NtRp1596
(dp1597
g8
S'AT'
p1598
sg10
VPP
p1599
sg12
I5
sg13
Nsbag3
(g4
g5
NtRp1600
(dp1601
g8
g1598
sg10
VIN
p1602
sg12
I10
sg13
VAT
p1603
sbag3
(g4
g5
NtRp1604
(dp1605
g8
S'HEBREW'
p1606
sg10
VNP
p1607
sg12
I10
sg13
Nsbag3
(g4
g5
NtRp1608
(dp1609
g8
g1606
sg10
VNP
p1610
sg12
I12
sg13
Nsbag3
(g4
g5
NtRp1611
(dp1612
g8
S'THE'
p1613
sg10
VDT
p1614
sg12
I13
sg13
VTHE
p1615
sbag3
(g4
g5
NtRp1616
(dp1617
g8
g1606
sg10
VNNP
p1618
sg12
I13
sg13
VHEBREW
p1619
sbag3
(g4
g5
NtRp1620
(dp1621
g8
S'UNIVERSITY'
p1622
sg10
VNNP
p1623
sg12
I13
sg13
VUNIVERSITY
p1624
sbag3
(g4
g5
NtRp1625
(dp1626
g8
S'OF'
p1627
sg10
VPP
p1628
sg12
I12
sg13
Nsbag3
(g4
g5
NtRp1629
(dp1630
g8
g1627
sg10
VIN
p1631
sg12
I17
sg13
VOF
p1632
sbag3
(g4
g5
NtRp1633
(dp1634
g8
S'JERUSALEM'
p1635
sg10
VNP
p1636
sg12
I17
sg13
VJERUSALEM
p1637
sbag3
(g4
g5
NtRp1638
(dp1639
g8
g1635
sg10
VNNP
p1640
sg12
I19
sg13
VJERUSALEM
p1641
sbag3
(g4
g5
NtRp1642
(dp1643
g8
S'.'
sg10
V.
sg12
I1
sg13
V.
sba(lp1644
(lp1645
I1
aa(lp1646
I2
aI5
aI21
aa(lp1647
I3
aI4
aa(lp1648
a(lp1649
a(lp1650
I6
aI7
aI10
aa(lp1651
a(lp1652
I8
aI9
aa(lp1653
a(lp1654
a(lp1655
I11
aI12
aa(lp1656
a(lp1657
I13
aI17
aa(lp1658
I14
aI15
aI16
aa(lp1659
a(lp1660
a(lp1661
a(lp1662
I18
aI19
aa(lp1663
a(lp1664
I20
aa(lp1665
a(lp1666
a(lp1667
NaNag121
aNaNaNaNaNaNaNaNaNaNaNaNag122
aNaNaNaNaNaNaI1
tp1668
a(g1555
g1644
(lp1669
NaNaNaNaNaNaNag121
aNaNaNaNaNaNaNag122
aNaNaNaNaNaNaI5
tp1670
a(g1555
g1644
(lp1671
NaNaNaNaNaNaNaNaNag121
aNaNaNaNaNag122
aNaNaNaNaNaNaI5
tp1672
a(g1555
g1644
(lp1673
NaNaNaNaNaNaNaNaNaNaNaNag121
aNaNag122
aNaNaNaNaNaNaI12
tp1674
a((lp1675
g3
(g4
g5
NtRp1676
(dp1677
g8
V BEFORE SIGNING FOR LEEDS UNITED ALAN ATTENDED SUMMERHILL COLLEGE IN SLIGO .
p1678
sg10
VROOT
p1679
sg12
Nsg13
Nsbag3
(g4
g5
NtRp1680
(dp1681
g8
V BEFORE SIGNING FOR LEEDS UNITED ALAN ATTENDED SUMMERHILL COLLEGE IN SLIGO .
p1682
sg10
VS
sg12
I0
sg13
Nsbag3
(g4
g5
NtRp1683
(dp1684
g8
VBEFORE
p1685
sg10
VPP
p1686
sg12
I1
sg13
Nsbag3
(g4
g5
NtRp1687
(dp1688
g8
g1685
sg10
VIN
p1689
sg12
I2
sg13
Nsbag3
(g4
g5
NtRp1690
(dp1691
g8
S'SIGN'
p1692
sg10
VS
sg12
I2
sg13
Nsbag3
(g4
g5
NtRp1693
(dp1694
g8
g1692
sg10
VVP
p1695
sg12
I4
sg13
Nsbag3
(g4
g5
NtRp1696
(dp1697
g8
g1692
sg10
VVBG
p1698
sg12
I5
sg13
VSIGNING
p1699
sbag3
(g4
g5
NtRp1700
(dp1701
g8
S'FOR'
p1702
sg10
VPP
p1703
sg12
I5
sg13
Nsbag3
(g4
g5
NtRp1704
(dp1705
g8
g1702
sg10
VIN
p1706
sg12
I7
sg13
VFOR
p1707
sbag3
(g4
g5
NtRp1708
(dp1709
g8
S'LEEDS'
p1710
sg10
VNP
p1711
sg12
I7
sg13
VLEEDS
p1712
sbag3
(g4
g5
NtRp1713
(dp1714
g8
g1710
sg10
VNNP
p1715
sg12
I9
sg13
VLEEDS
p1716
sbag3
(g4
g5
NtRp1717
(dp1718
g8
S'UNITED'
p1719
sg10
VNP
p1720
sg12
I1
sg13
Nsbag3
(g4
g5
NtRp1721
(dp1722
g8
g1719
sg10
VNNP
p1723
sg12
I11
sg13
VUNITED
p1724
sbag3
(g4
g5
NtRp1725
(dp1726
g8
S'ALAN'
p1727
sg10
VNNP
p1728
sg12
I11
sg13
VALAN
p1729
sbag3
(g4
g5
NtRp1730
(dp1731
g8
S'ATTEND'
p1732
sg10
VVP
p1733
sg12
I1
sg13
Nsbag3
(g4
g5
NtRp1734
(dp1735
g8
g1732
sg10
VVBD
p1736
sg12
I14
sg13
VATTENDED
p1737
sbag3
(g4
g5
NtRp1738
(dp1739
g8
S'SUMMERHILL'
p1740
sg10
VNP
p1741
sg12
I14
sg13
Nsbag3
(g4
g5
NtRp1742
(dp1743
g8
g1740
sg10
VNP
p1744
sg12
I16
sg13
Nsbag3
(g4
g5
NtRp1745
(dp1746
g8
g1740
sg10
VNNP
p1747
sg12
I17
sg13
VSUMMERHILL
p1748
sbag3
(g4
g5
NtRp1749
(dp1750
g8
S'COLLEGE'
p1751
sg10
VNNP
p1752
sg12
I17
sg13
VCOLLEGE
p1753
sbag3
(g4
g5
NtRp1754
(dp1755
g8
S'IN'
p1756
sg10
VPP
p1757
sg12
I16
sg13
Nsbag3
(g4
g5
NtRp1758
(dp1759
g8
g1756
sg10
VIN
p1760
sg12
I20
sg13
VIN
p1761
sbag3
(g4
g5
NtRp1762
(dp1763
g8
S'SLIGO'
p1764
sg10
VNP
p1765
sg12
I20
sg13
VSLIGO
p1766
sbag3
(g4
g5
NtRp1767
(dp1768
g8
g1764
sg10
VNNP
p1769
sg12
I22
sg13
VSLIGO
p1770
sbag3
(g4
g5
NtRp1771
(dp1772
g8
S'.'
sg10
V.
sg12
I1
sg13
V.
sba(lp1773
(lp1774
I1
aa(lp1775
I2
aI11
aI14
aI24
aa(lp1776
I3
aI4
aa(lp1777
a(lp1778
I5
aa(lp1779
I6
aI7
aa(lp1780
a(lp1781
I8
aI9
aa(lp1782
a(lp1783
I10
aa(lp1784
a(lp1785
I12
aI13
aa(lp1786
a(lp1787
a(lp1788
I15
aI16
aa(lp1789
a(lp1790
I17
aI20
aa(lp1791
I18
aI19
aa(lp1792
a(lp1793
a(lp1794
I21
aI22
aa(lp1795
a(lp1796
I23
aa(lp1797
a(lp1798
a(lp1799
NaNaNaNaNaNaNaNaNag122
aNaNaNaNaNaNag121
aNaNaNaNaNaNaNaNaI1
tp1800
a(g1675
g1773
(lp1801
NaNaNaNaNaNaNaNaNag122
aNaNaNaNaNaNaNaNaNaNaNaNag121
aNaNaI1
tp1802
a(g1675
g1773
(lp1803
NaNaNaNaNaNaNaNaNaNaNaNag122
aNaNaNag121
aNaNaNaNaNaNaNaNaI1
tp1804
a(g1675
g1773
(lp1805
NaNaNaNaNaNaNaNaNaNaNaNag122
aNaNaNaNaNaNaNaNaNag121
aNaNaI1
tp1806
a(g1675
g1773
(lp1807
NaNaNaNaNaNaNaNaNaNaNaNaNaNaNaNag121
aNag122
aNaNaNaNaNaNaI16
tp1808
a(g1675
g1773
(lp1809
NaNaNaNaNaNaNaNaNaNaNaNaNaNaNaNaNaNag122
aNaNaNag121
aNaNaI16
tp1810
a((lp1811
g3
(g4
g5
NtRp1812
(dp1813
g8
V GEMMA CHAN ATTENDED NEWSTEAD WOOD SCHOOL FOR GIRLS .
p1814
sg10
VROOT
p1815
sg12
Nsg13
Nsbag3
(g4
g5
NtRp1816
(dp1817
g8
V GEMMA CHAN ATTENDED NEWSTEAD WOOD SCHOOL FOR GIRLS .
p1818
sg10
VS
sg12
I0
sg13
Nsbag3
(g4
g5
NtRp1819
(dp1820
g8
VGEMMA
p1821
sg10
VNP
p1822
sg12
I1
sg13
Nsbag3
(g4
g5
NtRp1823
(dp1824
g8
g1821
sg10
VNNP
p1825
sg12
I2
sg13
Nsbag3
(g4
g5
NtRp1826
(dp1827
g8
S'CHAN'
p1828
sg10
VNNP
p1829
sg12
I2
sg13
VCHAN
p1830
sbag3
(g4
g5
NtRp1831
(dp1832
g8
S'ATTEND'
p1833
sg10
VVP
p1834
sg12
I1
sg13
Nsbag3
(g4
g5
NtRp1835
(dp1836
g8
g1833
sg10
VVBD
p1837
sg12
I5
sg13
VATTENDED
p1838
sbag3
(g4
g5
NtRp1839
(dp1840
g8
S'NEWSTEAD'
p1841
sg10
VNP
p1842
sg12
I5
sg13
Nsbag3
(g4
g5
NtRp1843
(dp1844
g8
g1841
sg10
VNP
p1845
sg12
I7
sg13
Nsbag3
(g4
g5
NtRp1846
(dp1847
g8
g1841
sg10
VNNP
p1848
sg12
I8
sg13
VNEWSTEAD
p1849
sbag3
(g4
g5
NtRp1850
(dp1851
g8
S'WOOD'
p1852
sg10
VNNP
p1853
sg12
I8
sg13
VWOOD
p1854
sbag3
(g4
g5
NtRp1855
(dp1856
g8
S'SCHOOL'
p1857
sg10
VNNP
p1858
sg12
I8
sg13
VSCHOOL
p1859
sbag3
(g4
g5
NtRp1860
(dp1861
g8
S'FOR'
p1862
sg10
VPP
p1863
sg12
I7
sg13
Nsbag3
(g4
g5
NtRp1864
(dp1865
g8
g1862
sg10
VIN
p1866
sg12
I12
sg13
VFOR
p1867
sbag3
(g4
g5
NtRp1868
(dp1869
g8
S'GIRLS'
p1870
sg10
VNP
p1871
sg12
I12
sg13
VGIRLS
p1872
sbag3
(g4
g5
NtRp1873
(dp1874
g8
g1870
sg10
VNNPS
p1875
sg12
I14
sg13
VGIRLS
p1876
sbag3
(g4
g5
NtRp1877
(dp1878
g8
S'.'
sg10
V.
sg12
I1
sg13
V.
sba(lp1879
(lp1880
I1
aa(lp1881
I2
aI5
aI16
aa(lp1882
I3
aI4
aa(lp1883
a(lp1884
a(lp1885
I6
aI7
aa(lp1886
a(lp1887
I8
aI12
aa(lp1888
I9
aI10
aI11
aa(lp1889
a(lp1890
a(lp1891
a(lp1892
I13
aI14
aa(lp1893
a(lp1894
I15
aa(lp1895
a(lp1896
a(lp1897
NaNag121
aNaNaNaNaNaNag122
aNaNaNaNaNaNaNaI1
tp1898
a(g1811
g1879
(lp1899
NaNaNaNaNaNaNag121
aNag122
aNaNaNaNaNaNaNaI7
tp1900
a((lp1901
g3
(g4
g5
NtRp1902
(dp1903
g8
V RYCHLIK RECEIVED HIS PH.D. IN 1980 FROM THE POLISH ACADEMY OF SCIENCES .
p1904
sg10
VROOT
p1905
sg12
Nsg13
Nsbag3
(g4
g5
NtRp1906
(dp1907
g8
V RYCHLIK RECEIVED HIS PH.D. IN 1980 FROM THE POLISH ACADEMY OF SCIENCES .
p1908
sg10
VS
sg12
I0
sg13
Nsbag3
(g4
g5
NtRp1909
(dp1910
g8
VRYCHLIK
p1911
sg10
VNP
p1912
sg12
I1
sg13
Nsbag3
(g4
g5
NtRp1913
(dp1914
g8
g1911
sg10
VNNP
p1915
sg12
I2
sg13
Nsbag3
(g4
g5
NtRp1916
(dp1917
g8
S'RECEIVE'
p1918
sg10
VVP
p1919
sg12
I1
sg13
Nsbag3
(g4
g5
NtRp1920
(dp1921
g8
g1918
sg10
VVBD
p1922
sg12
I4
sg13
VRECEIVED
p1923
sbag3
(g4
g5
NtRp1924
(dp1925
g8
S'PH.D.'
p1926
sg10
VNP
p1927
sg12
I4
sg13
Nsbag3
(g4
g5
NtRp1928
(dp1929
g8
S'HE'
p1930
sg10
VPRP$
p1931
sg12
I6
sg13
VHIS
p1932
sbag3
(g4
g5
NtRp1933
(dp1934
g8
g1926
sg10
VNNP
p1935
sg12
I6
sg13
VPH.D.
p1936
sbag3
(g4
g5
NtRp1937
(dp1938
g8
S'IN'
p1939
sg10
VPP
p1940
sg12
I4
sg13
Nsbag3
(g4
g5
NtRp1941
(dp1942
g8
g1939
sg10
VIN
p1943
sg12
I9
sg13
VIN
p1944
sbag3
(g4
g5
NtRp1945
(dp1946
g8
S'1980'
p1947
sg10
VNP
p1948
sg12
I9
sg13
V1980
p1949
sbag3
(g4
g5
NtRp1950
(dp1951
g8
g1947
sg10
VCD
p1952
sg12
I11
sg13
V1980
p1953
sbag3
(g4
g5
NtRp1954
(dp1955
g8
S'FROM'
p1956
sg10
VPP
p1957
sg12
I4
sg13
Nsbag3
(g4
g5
NtRp1958
(dp1959
g8
g1956
sg10
VIN
p1960
sg12
I13
sg13
VFROM
p1961
sbag3
(g4
g5
NtRp1962
(dp1963
g8
S'ACADEMY'
p1964
sg10
VNP
p1965
sg12
I13
sg13
Nsbag3
(g4
g5
NtRp1966
(dp1967
g8
g1964
sg10
VNP
p1968
sg12
I15
sg13
Nsbag3
(g4
g5
NtRp1969
(dp1970
g8
S'THE'
p1971
sg10
VDT
p1972
sg12
I16
sg13
VTHE
p1973
sbag3
(g4
g5
NtRp1974
(dp1975
g8
S'POLISH'
p1976
sg10
VJJ
p1977
sg12
I16
sg13
VPOLISH
p1978
sbag3
(g4
g5
NtRp1979
(dp1980
g8
g1964
sg10
VNN
p1981
sg12
I16
sg13
VACADEMY
p1982
sbag3
(g4
g5
NtRp1983
(dp1984
g8
S'OF'
p1985
sg10
VPP
p1986
sg12
I15
sg13
Nsbag3
(g4
g5
NtRp1987
(dp1988
g8
g1985
sg10
VIN
p1989
sg12
I20
sg13
VOF
p1990
sbag3
(g4
g5
NtRp1991
(dp1992
g8
S'SCIENCES'
p1993
sg10
VNP
p1994
sg12
I20
sg13
VSCIENCES
p1995
sbag3
(g4
g5
NtRp1996
(dp1997
g8
g1993
sg10
VNNPS
p1998
sg12
I22
sg13
VSCIENCES
p1999
sbag3
(g4
g5
NtRp2000
(dp2001
g8
S'.'
sg10
V.
sg12
I1
sg13
V.
sba(lp2002
(lp2003
I1
aa(lp2004
I2
aI4
aI24
aa(lp2005
I3
aa(lp2006
a(lp2007
I5
aI6
aI9
aI13
aa(lp2008
a(lp2009
I7
aI8
aa(lp2010
a(lp2011
a(lp2012
I10
aI11
aa(lp2013
a(lp2014
I12
aa(lp2015
a(lp2016
I14
aI15
aa(lp2017
a(lp2018
I16
aI20
aa(lp2019
I17
aI18
aI19
aa(lp2020
a(lp2021
a(lp2022
a(lp2023
I21
aI22
aa(lp2024
a(lp2025
I23
aa(lp2026
a(lp2027
a(lp2028
NaNag121
aNaNaNaNaNaNaNaNaNaNaNaNaNaNaNaNag122
aNaNaNaNaNaI1
tp2029
a(g1901
g2002
(lp2030
NaNaNaNaNaNag121
aNaNaNaNaNaNaNaNaNaNaNaNag122
aNaNaNaNaNaI4
tp2031
a(g1901
g2002
(lp2032
NaNaNaNaNaNaNaNaNaNaNag121
aNaNaNaNaNaNaNag122
aNaNaNaNaNaI4
tp2033
a(g1901
g2002
(lp2034
NaNaNaNaNaNaNaNaNaNaNaNaNaNaNag121
aNaNaNag122
aNaNaNaNaNaI15
tp2035
a((lp2036
g3
(g4
g5
NtRp2037
(dp2038
g8
V JOHN C. LODGE ATTENDED THE MICHIGAN MILITARY ACADEMY IN 1881 .
p2039
sg10
VROOT
p2040
sg12
Nsg13
Nsbag3
(g4
g5
NtRp2041
(dp2042
g8
V JOHN C. LODGE ATTENDED THE MICHIGAN MILITARY ACADEMY IN 1881 .
p2043
sg10
VS
sg12
I0
sg13
Nsbag3
(g4
g5
NtRp2044
(dp2045
g8
VJOHN
p2046
sg10
VNP
p2047
sg12
I1
sg13
Nsbag3
(g4
g5
NtRp2048
(dp2049
g8
g2046
sg10
VNNP
p2050
sg12
I2
sg13
Nsbag3
(g4
g5
NtRp2051
(dp2052
g8
S'C.'
p2053
sg10
VNNP
p2054
sg12
I2
sg13
VC.
p2055
sbag3
(g4
g5
NtRp2056
(dp2057
g8
S'LODGE'
p2058
sg10
VNNP
p2059
sg12
I2
sg13
VLODGE
p2060
sbag3
(g4
g5
NtRp2061
(dp2062
g8
S'ATTEND'
p2063
sg10
VVP
p2064
sg12
I1
sg13
Nsbag3
(g4
g5
NtRp2065
(dp2066
g8
g2063
sg10
VVBD
p2067
sg12
I6
sg13
VATTENDED
p2068
sbag3
(g4
g5
NtRp2069
(dp2070
g8
S'MICHIGAN'
p2071
sg10
VNP
p2072
sg12
I6
sg13
Nsbag3
(g4
g5
NtRp2073
(dp2074
g8
g2071
sg10
VNP
p2075
sg12
I8
sg13
Nsbag3
(g4
g5
NtRp2076
(dp2077
g8
S'THE'
p2078
sg10
VDT
p2079
sg12
I9
sg13
VTHE
p2080
sbag3
(g4
g5
NtRp2081
(dp2082
g8
g2071
sg10
VNNP
p2083
sg12
I9
sg13
VMICHIGAN
p2084
sbag3
(g4
g5
NtRp2085
(dp2086
g8
S'MILITARY'
p2087
sg10
VNNP
p2088
sg12
I9
sg13
VMILITARY
p2089
sbag3
(g4
g5
NtRp2090
(dp2091
g8
S'ACADEMY'
p2092
sg10
VNNP
p2093
sg12
I9
sg13
VACADEMY
p2094
sbag3
(g4
g5
NtRp2095
(dp2096
g8
S'IN'
p2097
sg10
VPP
p2098
sg12
I8
sg13
Nsbag3
(g4
g5
NtRp2099
(dp2100
g8
g2097
sg10
VIN
p2101
sg12
I14
sg13
VIN
p2102
sbag3
(g4
g5
NtRp2103
(dp2104
g8
S'1881'
p2105
sg10
VNP
p2106
sg12
I14
sg13
V1881
p2107
sbag3
(g4
g5
NtRp2108
(dp2109
g8
g2105
sg10
VCD
p2110
sg12
I16
sg13
V1881
p2111
sbag3
(g4
g5
NtRp2112
(dp2113
g8
S'.'
sg10
V.
sg12
I1
sg13
V.
sba(lp2114
(lp2115
I1
aa(lp2116
I2
aI6
aI18
aa(lp2117
I3
aI4
aI5
aa(lp2118
a(lp2119
a(lp2120
a(lp2121
I7
aI8
aa(lp2122
a(lp2123
I9
aI14
aa(lp2124
I10
aI11
aI12
aI13
aa(lp2125
a(lp2126
a(lp2127
a(lp2128
a(lp2129
I15
aI16
aa(lp2130
a(lp2131
I17
aa(lp2132
a(lp2133
a(lp2134
NaNag121
aNaNaNaNaNaNaNaNag122
aNaNaNaNaNaNaNaI1
tp2135
a(g2036
g2114
(lp2136
NaNaNaNaNaNaNaNag121
aNaNag122
aNaNaNaNaNaNaNaI8
tp2137
a(g2036
g2114
(lp2138
NaNaNaNaNaNaNaNaNaNaNag122
aNaNaNaNag121
aNaNaI8
tp2139
a((lp2140
g3
(g4
g5
NtRp2141
(dp2142
g8
V DEREK COX PLAYED COLLEGE FOOTBALL AT WILLIAM & MARY .
p2143
sg10
VROOT
p2144
sg12
Nsg13
Nsbag3
(g4
g5
NtRp2145
(dp2146
g8
V DEREK COX PLAYED COLLEGE FOOTBALL AT WILLIAM & MARY .
p2147
sg10
VS
sg12
I0
sg13
Nsbag3
(g4
g5
NtRp2148
(dp2149
g8
VDEREK
p2150
sg10
VNP
p2151
sg12
I1
sg13
Nsbag3
(g4
g5
NtRp2152
(dp2153
g8
g2150
sg10
VNNP
p2154
sg12
I2
sg13
Nsbag3
(g4
g5
NtRp2155
(dp2156
g8
S'COX'
p2157
sg10
VNNP
p2158
sg12
I2
sg13
VCOX
p2159
sbag3
(g4
g5
NtRp2160
(dp2161
g8
S'PLAY'
p2162
sg10
VVP
p2163
sg12
I1
sg13
Nsbag3
(g4
g5
NtRp2164
(dp2165
g8
g2162
sg10
VVBD
p2166
sg12
I5
sg13
VPLAYED
p2167
sbag3
(g4
g5
NtRp2168
(dp2169
g8
S'COLLEGE'
p2170
sg10
VNP
p2171
sg12
I5
sg13
Nsbag3
(g4
g5
NtRp2172
(dp2173
g8
g2170
sg10
VNN
p2174
sg12
I7
sg13
VCOLLEGE
p2175
sbag3
(g4
g5
NtRp2176
(dp2177
g8
S'FOOTBALL'
p2178
sg10
VNN
p2179
sg12
I7
sg13
VFOOTBALL
p2180
sbag3
(g4
g5
NtRp2181
(dp2182
g8
S'AT'
p2183
sg10
VPP
p2184
sg12
I5
sg13
Nsbag3
(g4
g5
NtRp2185
(dp2186
g8
g2183
sg10
VIN
p2187
sg12
I10
sg13
VAT
p2188
sbag3
(g4
g5
NtRp2189
(dp2190
g8
S'WILLIAM'
p2191
sg10
VNP
p2192
sg12
I10
sg13
Nsbag3
(g4
g5
NtRp2193
(dp2194
g8
g2191
sg10
VNNP
p2195
sg12
I12
sg13
VWILLIAM
p2196
sbag3
(g4
g5
NtRp2197
(dp2198
g8
S'&'
sg10
VCC
p2199
sg12
I12
sg13
V&
sbag3
(g4
g5
NtRp2200
(dp2201
g8
S'MARY'
p2202
sg10
VNNP
p2203
sg12
I12
sg13
VMARY
p2204
sbag3
(g4
g5
NtRp2205
(dp2206
g8
S'.'
sg10
V.
sg12
I1
sg13
V.
sba(lp2207
(lp2208
I1
aa(lp2209
I2
aI5
aI16
aa(lp2210
I3
aI4
aa(lp2211
a(lp2212
a(lp2213
I6
aI7
aI10
aa(lp2214
a(lp2215
I8
aI9
aa(lp2216
a(lp2217
a(lp2218
I11
aI12
aa(lp2219
a(lp2220
I13
aI14
aI15
aa(lp2221
a(lp2222
a(lp2223
a(lp2224
a(lp2225
NaNag121
aNaNaNaNaNaNaNaNaNaNag122
aNaNaNaI1
tp2226
a(g2140
g2207
(lp2227
NaNaNaNaNaNaNag121
aNaNaNaNaNag122
aNaNaNaI5
tp2228
a(g2140
g2207
(lp2229
NaNaNaNaNaNaNaNag121
aNaNaNaNag122
aNaNaNaI5
tp2230
a(g2140
g2207
(lp2231
NaNaNaNaNaNaNaNaNag121
aNaNaNag122
aNaNaNaI5
tp2232
a((lp2233
g3
(g4
g5
NtRp2234
(dp2235
g8
V ANTHONY COTRONE PLAYED HIGH SCHOOL FOOTBALL AT HOLY TRINITY HIGH SCHOOL .
p2236
sg10
VROOT
p2237
sg12
Nsg13
Nsbag3
(g4
g5
NtRp2238
(dp2239
g8
V ANTHONY COTRONE PLAYED HIGH SCHOOL FOOTBALL AT HOLY TRINITY HIGH SCHOOL .
p2240
sg10
VS
sg12
I0
sg13
Nsbag3
(g4
g5
NtRp2241
(dp2242
g8
VANTHONY
p2243
sg10
VNP
p2244
sg12
I1
sg13
Nsbag3
(g4
g5
NtRp2245
(dp2246
g8
g2243
sg10
VNNP
p2247
sg12
I2
sg13
Nsbag3
(g4
g5
NtRp2248
(dp2249
g8
S'COTRONE'
p2250
sg10
VNNP
p2251
sg12
I2
sg13
VCOTRONE
p2252
sbag3
(g4
g5
NtRp2253
(dp2254
g8
S'PLAY'
p2255
sg10
VVP
p2256
sg12
I1
sg13
Nsbag3
(g4
g5
NtRp2257
(dp2258
g8
g2255
sg10
VVBD
p2259
sg12
I5
sg13
VPLAYED
p2260
sbag3
(g4
g5
NtRp2261
(dp2262
g8
S'SCHOOL'
p2263
sg10
VNP
p2264
sg12
I5
sg13
Nsbag3
(g4
g5
NtRp2265
(dp2266
g8
S'HIGH'
p2267
sg10
VJJ
p2268
sg12
I7
sg13
VHIGH
p2269
sbag3
(g4
g5
NtRp2270
(dp2271
g8
g2263
sg10
VNN
p2272
sg12
I7
sg13
VSCHOOL
p2273
sbag3
(g4
g5
NtRp2274
(dp2275
g8
S'FOOTBALL'
p2276
sg10
VNN
p2277
sg12
I7
sg13
VFOOTBALL
p2278
sbag3
(g4
g5
NtRp2279
(dp2280
g8
S'AT'
p2281
sg10
VPP
p2282
sg12
I5
sg13
Nsbag3
(g4
g5
NtRp2283
(dp2284
g8
g2281
sg10
VIN
p2285
sg12
I11
sg13
VAT
p2286
sbag3
(g4
g5
NtRp2287
(dp2288
g8
S'HOLY'
p2289
sg10
VNP
p2290
sg12
I11
sg13
Nsbag3
(g4
g5
NtRp2291
(dp2292
g8
g2289
sg10
VNNP
p2293
sg12
I13
sg13
VHOLY
p2294
sbag3
(g4
g5
NtRp2295
(dp2296
g8
S'TRINITY'
p2297
sg10
VNNP
p2298
sg12
I13
sg13
VTRINITY
p2299
sbag3
(g4
g5
NtRp2300
(dp2301
g8
g2267
sg10
VNNP
p2302
sg12
I13
sg13
VHIGH
p2303
sbag3
(g4
g5
NtRp2304
(dp2305
g8
g2263
sg10
VNNP
p2306
sg12
I13
sg13
VSCHOOL
p2307
sbag3
(g4
g5
NtRp2308
(dp2309
g8
S'.'
sg10
V.
sg12
I1
sg13
V.
sba(lp2310
(lp2311
I1
aa(lp2312
I2
aI5
aI18
aa(lp2313
I3
aI4
aa(lp2314
a(lp2315
a(lp2316
I6
aI7
aI11
aa(lp2317
a(lp2318
I8
aI9
aI10
aa(lp2319
a(lp2320
a(lp2321
a(lp2322
I12
aI13
aa(lp2323
a(lp2324
I14
aI15
aI16
aI17
aa(lp2325
a(lp2326
a(lp2327
a(lp2328
a(lp2329
a(lp2330
NaNag121
aNaNaNaNaNaNag122
aNaNaNaNaNaNaNaNaNaI1
tp2331
a(g2233
g2310
(lp2332
NaNaNaNaNaNaNaNaNag122
ag121
aNaNaNaNaNaNaNaNaI7
tp2333
a(g2233
g2310
(lp2334
NaNag121
aNaNaNaNaNaNaNaNaNaNaNag122
aNaNaNaNaI1
tp2335
a(g2233
g2310
(lp2336
NaNaNaNaNaNaNaNaNaNag121
aNaNaNag122
aNaNaNaNaI5
tp2337
a((lp2338
g3
(g4
g5
NtRp2339
(dp2340
g8
V ALI ASAD CHANDIA ATTENDED WATKINS MILL HIGH SCHOOL IN GAITHERSBURG , MARYLAND .
p2341
sg10
VROOT
p2342
sg12
Nsg13
Nsbag3
(g4
g5
NtRp2343
(dp2344
g8
V ALI ASAD CHANDIA ATTENDED WATKINS MILL HIGH SCHOOL IN GAITHERSBURG , MARYLAND .
p2345
sg10
VS
sg12
I0
sg13
Nsbag3
(g4
g5
NtRp2346
(dp2347
g8
VALI
p2348
sg10
VNP
p2349
sg12
I1
sg13
Nsbag3
(g4
g5
NtRp2350
(dp2351
g8
g2348
sg10
VNNP
p2352
sg12
I2
sg13
Nsbag3
(g4
g5
NtRp2353
(dp2354
g8
S'ASAD'
p2355
sg10
VNNP
p2356
sg12
I2
sg13
VASAD
p2357
sbag3
(g4
g5
NtRp2358
(dp2359
g8
S'CHANDIA'
p2360
sg10
VNNP
p2361
sg12
I2
sg13
VCHANDIA
p2362
sbag3
(g4
g5
NtRp2363
(dp2364
g8
S'ATTEND'
p2365
sg10
VVP
p2366
sg12
I1
sg13
Nsbag3
(g4
g5
NtRp2367
(dp2368
g8
g2365
sg10
VVBD
p2369
sg12
I6
sg13
VATTENDED
p2370
sbag3
(g4
g5
NtRp2371
(dp2372
g8
S'WATKINS'
p2373
sg10
VNP
p2374
sg12
I6
sg13
Nsbag3
(g4
g5
NtRp2375
(dp2376
g8
g2373
sg10
VNP
p2377
sg12
I8
sg13
Nsbag3
(g4
g5
NtRp2378
(dp2379
g8
g2373
sg10
VNNP
p2380
sg12
I9
sg13
VWATKINS
p2381
sbag3
(g4
g5
NtRp2382
(dp2383
g8
S'MILL'
p2384
sg10
VNNP
p2385
sg12
I9
sg13
VMILL
p2386
sbag3
(g4
g5
NtRp2387
(dp2388
g8
S'HIGH'
p2389
sg10
VNNP
p2390
sg12
I9
sg13
VHIGH
p2391
sbag3
(g4
g5
NtRp2392
(dp2393
g8
S'SCHOOL'
p2394
sg10
VNNP
p2395
sg12
I9
sg13
VSCHOOL
p2396
sbag3
(g4
g5
NtRp2397
(dp2398
g8
S'IN'
p2399
sg10
VPP
p2400
sg12
I8
sg13
Nsbag3
(g4
g5
NtRp2401
(dp2402
g8
g2399
sg10
VIN
p2403
sg12
I14
sg13
VIN
p2404
sbag3
(g4
g5
NtRp2405
(dp2406
g8
S'GAITHERSBURG'
p2407
sg10
VNP
p2408
sg12
I14
sg13
Nsbag3
(g4
g5
NtRp2409
(dp2410
g8
g2407
sg10
VNNP
p2411
sg12
I16
sg13
VGAITHERSBURG
p2412
sbag3
(g4
g5
NtRp2413
(dp2414
g8
S','
sg10
V,
sg12
I16
sg13
V,
sbag3
(g4
g5
NtRp2415
(dp2416
g8
S'MARYLAND'
p2417
sg10
VNNP
p2418
sg12
I16
sg13
VMARYLAND
p2419
sbag3
(g4
g5
NtRp2420
(dp2421
g8
S'.'
sg10
V.
sg12
I1
sg13
V.
sba(lp2422
(lp2423
I1
aa(lp2424
I2
aI6
aI20
aa(lp2425
I3
aI4
aI5
aa(lp2426
a(lp2427
a(lp2428
a(lp2429
I7
aI8
aa(lp2430
a(lp2431
I9
aI14
aa(lp2432
I10
aI11
aI12
aI13
aa(lp2433
a(lp2434
a(lp2435
a(lp2436
a(lp2437
I15
aI16
aa(lp2438
a(lp2439
I17
aI18
aI19
aa(lp2440
a(lp2441
a(lp2442
a(lp2443
a(lp2444
NaNag121
aNaNaNaNaNaNaNag122
aNaNaNaNaNaNaNaNaNaNaI1
tp2445
a(g2338
g2422
(lp2446
NaNaNaNaNaNaNaNag121
aNag122
aNaNaNaNaNaNaNaNaNaNaI8
tp2447
a(g2338
g2422
(lp2448
NaNaNaNaNaNaNaNaNaNag122
aNaNaNaNaNag121
aNaNaNaNaI8
tp2449
a((lp2450
g3
(g4
g5
NtRp2451
(dp2452
g8
V SHIPMAN ATTENDED WORTHINGTON HIGH SCHOOL IN WORTHINGTON , OHIO , AND GRADUATED IN 1980 .
p2453
sg10
VROOT
p2454
sg12
Nsg13
Nsbag3
(g4
g5
NtRp2455
(dp2456
g8
V SHIPMAN ATTENDED WORTHINGTON HIGH SCHOOL IN WORTHINGTON , OHIO , AND GRADUATED IN 1980 .
p2457
sg10
VS
sg12
I0
sg13
Nsbag3
(g4
g5
NtRp2458
(dp2459
g8
VSHIPMAN
p2460
sg10
VNP
p2461
sg12
I1
sg13
Nsbag3
(g4
g5
NtRp2462
(dp2463
g8
g2460
sg10
VNNP
p2464
sg12
I2
sg13
Nsbag3
(g4
g5
NtRp2465
(dp2466
g8
S'ATTEND'
p2467
sg10
VVP
p2468
sg12
I1
sg13
Nsbag3
(g4
g5
NtRp2469
(dp2470
g8
g2467
sg10
VVP
p2471
sg12
I4
sg13
Nsbag3
(g4
g5
NtRp2472
(dp2473
g8
g2467
sg10
VVBD
p2474
sg12
I5
sg13
VATTENDED
p2475
sbag3
(g4
g5
NtRp2476
(dp2477
g8
S'WORTHINGTON'
p2478
sg10
VNP
p2479
sg12
I5
sg13
Nsbag3
(g4
g5
NtRp2480
(dp2481
g8
g2478
sg10
VNP
p2482
sg12
I7
sg13
Nsbag3
(g4
g5
NtRp2483
(dp2484
g8
g2478
sg10
VNNP
p2485
sg12
I8
sg13
VWORTHINGTON
p2486
sbag3
(g4
g5
NtRp2487
(dp2488
g8
S'HIGH'
p2489
sg10
VNNP
p2490
sg12
I8
sg13
VHIGH
p2491
sbag3
(g4
g5
NtRp2492
(dp2493
g8
S'SCHOOL'
p2494
sg10
VNNP
p2495
sg12
I8
sg13
VSCHOOL
p2496
sbag3
(g4
g5
NtRp2497
(dp2498
g8
S'IN'
p2499
sg10
VPP
p2500
sg12
I7
sg13
Nsbag3
(g4
g5
NtRp2501
(dp2502
g8
g2499
sg10
VIN
p2503
sg12
I12
sg13
VIN
p2504
sbag3
(g4
g5
NtRp2505
(dp2506
g8
g2478
sg10
VNP
p2507
sg12
I12
sg13
Nsbag3
(g4
g5
NtRp2508
(dp2509
g8
g2478
sg10
VNNP
p2510
sg12
I14
sg13
VWORTHINGTON
p2511
sbag3
(g4
g5
NtRp2512
(dp2513
g8
S','
sg10
V,
sg12
I14
sg13
V,
sbag3
(g4
g5
NtRp2514
(dp2515
g8
S'OHIO'
p2516
sg10
VNNP
p2517
sg12
I14
sg13
VOHIO
p2518
sbag3
(g4
g5
NtRp2519
(dp2520
g8
S','
sg10
V,
sg12
I14
sg13
V,
sbag3
(g4
g5
NtRp2521
(dp2522
g8
S'AND'
p2523
sg10
VCC
p2524
sg12
I4
sg13
VAND
p2525
sbag3
(g4
g5
NtRp2526
(dp2527
g8
S'GRADUATE'
p2528
sg10
VVP
p2529
sg12
I4
sg13
Nsbag3
(g4
g5
NtRp2530
(dp2531
g8
g2528
sg10
VVBD
p2532
sg12
I20
sg13
VGRADUATED
p2533
sbag3
(g4
g5
NtRp2534
(dp2535
g8
g2499
sg10
VPP
p2536
sg12
I20
sg13
Nsbag3
(g4
g5
NtRp2537
(dp2538
g8
g2499
sg10
VIN
p2539
sg12
I22
sg13
VIN
p2540
sbag3
(g4
g5
NtRp2541
(dp2542
g8
S'1980'
p2543
sg10
VNP
p2544
sg12
I22
sg13
V1980
p2545
sbag3
(g4
g5
NtRp2546
(dp2547
g8
g2543
sg10
VCD
p2548
sg12
I24
sg13
V1980
p2549
sbag3
(g4
g5
NtRp2550
(dp2551
g8
S'.'
sg10
V.
sg12
I1
sg13
V.
sba(lp2552
(lp2553
I1
aa(lp2554
I2
aI4
aI26
aa(lp2555
I3
aa(lp2556
a(lp2557
I5
aI19
aI20
aa(lp2558
I6
aI7
aa(lp2559
a(lp2560
I8
aI12
aa(lp2561
I9
aI10
aI11
aa(lp2562
a(lp2563
a(lp2564
a(lp2565
I13
aI14
aa(lp2566
a(lp2567
I15
aI16
aI17
aI18
aa(lp2568
a(lp2569
a(lp2570
a(lp2571
a(lp2572
a(lp2573
I21
aI22
aa(lp2574
a(lp2575
I23
aI24
aa(lp2576
a(lp2577
I25
aa(lp2578
a(lp2579
a(lp2580
NaNag121
aNaNaNaNaNaNaNag122
aNaNaNaNaNaNaNaNaNaNaNaNaNaNaNaNaI1
tp2581
a(g2450
g2552
(lp2582
NaNaNaNaNaNaNag121
aNaNag122
aNaNaNaNaNaNaNaNaNaNaNaNaNaNaNaNaI7
tp2583
a(g2450
g2552
(lp2584
NaNaNaNaNaNaNaNaNaNag122
aNaNaNag121
aNaNaNaNaNaNaNaNaNaNaNaNaI7
tp2585
a(g2450
g2552
(lp2586
NaNaNaNaNaNaNaNaNaNag122
aNaNaNaNaNaNaNaNaNaNaNaNaNag121
aNaNaI4
tp2587
a((lp2588
g3
(g4
g5
NtRp2589
(dp2590
g8
V IMAN HUMAYDAN YOUNES STUDIED SOCIOLOGY AT THE AMERICAN UNIVERSITY IN BEIRUT .
p2591
sg10
VROOT
p2592
sg12
Nsg13
Nsbag3
(g4
g5
NtRp2593
(dp2594
g8
V IMAN HUMAYDAN YOUNES STUDIED SOCIOLOGY AT THE AMERICAN UNIVERSITY IN BEIRUT .
p2595
sg10
VS
sg12
I0
sg13
Nsbag3
(g4
g5
NtRp2596
(dp2597
g8
VIMAN
p2598
sg10
VNP
p2599
sg12
I1
sg13
Nsbag3
(g4
g5
NtRp2600
(dp2601
g8
g2598
sg10
VNNP
p2602
sg12
I2
sg13
Nsbag3
(g4
g5
NtRp2603
(dp2604
g8
S'HUMAYDAN'
p2605
sg10
VNNP
p2606
sg12
I2
sg13
VHUMAYDAN
p2607
sbag3
(g4
g5
NtRp2608
(dp2609
g8
S'YOUNES'
p2610
sg10
VNNP
p2611
sg12
I2
sg13
VYOUNES
p2612
sbag3
(g4
g5
NtRp2613
(dp2614
g8
S'STUDY'
p2615
sg10
VVP
p2616
sg12
I1
sg13
Nsbag3
(g4
g5
NtRp2617
(dp2618
g8
g2615
sg10
VVBD
p2619
sg12
I6
sg13
VSTUDIED
p2620
sbag3
(g4
g5
NtRp2621
(dp2622
g8
S'SOCIOLOGY'
p2623
sg10
VNP
p2624
sg12
I6
sg13
VSOCIOLOGY
p2625
sbag3
(g4
g5
NtRp2626
(dp2627
g8
g2623
sg10
VNN
p2628
sg12
I8
sg13
VSOCIOLOGY
p2629
sbag3
(g4
g5
NtRp2630
(dp2631
g8
S'AT'
p2632
sg10
VPP
p2633
sg12
I6
sg13
Nsbag3
(g4
g5
NtRp2634
(dp2635
g8
g2632
sg10
VIN
p2636
sg12
I10
sg13
VAT
p2637
sbag3
(g4
g5
NtRp2638
(dp2639
g8
S'AMERICAN'
p2640
sg10
VNP
p2641
sg12
I10
sg13
Nsbag3
(g4
g5
NtRp2642
(dp2643
g8
S'THE'
p2644
sg10
VDT
p2645
sg12
I12
sg13
VTHE
p2646
sbag3
(g4
g5
NtRp2647
(dp2648
g8
g2640
sg10
VNNP
p2649
sg12
I12
sg13
VAMERICAN
p2650
sbag3
(g4
g5
NtRp2651
(dp2652
g8
S'UNIVERSITY'
p2653
sg10
VNNP
p2654
sg12
I12
sg13
VUNIVERSITY
p2655
sbag3
(g4
g5
NtRp2656
(dp2657
g8
S'IN'
p2658
sg10
VPP
p2659
sg12
I6
sg13
Nsbag3
(g4
g5
NtRp2660
(dp2661
g8
g2658
sg10
VIN
p2662
sg12
I16
sg13
VIN
p2663
sbag3
(g4
g5
NtRp2664
(dp2665
g8
S'BEIRUT'
p2666
sg10
VNP
p2667
sg12
I16
sg13
VBEIRUT
p2668
sbag3
(g4
g5
NtRp2669
(dp2670
g8
g2666
sg10
VNNP
p2671
sg12
I18
sg13
VBEIRUT
p2672
sbag3
(g4
g5
NtRp2673
(dp2674
g8
S'.'
sg10
V.
sg12
I1
sg13
V.
sba(lp2675
(lp2676
I1
aa(lp2677
I2
aI6
aI20
aa(lp2678
I3
aI4
aI5
aa(lp2679
a(lp2680
a(lp2681
a(lp2682
I7
aI8
aI10
aI16
aa(lp2683
a(lp2684
I9
aa(lp2685
a(lp2686
I11
aI12
aa(lp2687
a(lp2688
I13
aI14
aI15
aa(lp2689
a(lp2690
a(lp2691
a(lp2692
I17
aI18
aa(lp2693
a(lp2694
I19
aa(lp2695
a(lp2696
a(lp2697
NaNag121
aNaNaNaNaNaNaNaNaNaNaNag122
aNaNaNaNaNaNaI1
tp2698
a(g2588
g2675
(lp2699
NaNaNaNaNaNaNaNag121
aNaNaNaNaNag122
aNaNaNaNaNaNaI6
tp2700
a(g2588
g2675
(lp2701
NaNaNaNaNaNaNaNaNag121
aNaNaNaNag122
aNaNaNaNaNaNaI6
tp2702
a(g2588
g2675
(lp2703
NaNaNaNaNaNaNaNaNaNaNaNaNaNag122
aNaNaNag121
aNaNaI6
tp2704
a((lp2705
g3
(g4
g5
NtRp2706
(dp2707
g8
V LUBETZKY IS A GRADUATE OF TRINITY UNIVERSITY AND EARNED HIS J.D.
p2708
sg10
VROOT
p2709
sg12
Nsg13
Nsbag3
(g4
g5
NtRp2710
(dp2711
g8
V LUBETZKY IS A GRADUATE OF TRINITY UNIVERSITY AND EARNED HIS J.D.
p2712
sg10
VS
sg12
I0
sg13
Nsbag3
(g4
g5
NtRp2713
(dp2714
g8
VLUBETZKY
p2715
sg10
VNP
p2716
sg12
I1
sg13
Nsbag3
(g4
g5
NtRp2717
(dp2718
g8
g2715
sg10
VNNP
p2719
sg12
I2
sg13
Nsbag3
(g4
g5
NtRp2720
(dp2721
g8
S'BE'
p2722
sg10
VVP
p2723
sg12
I1
sg13
Nsbag3
(g4
g5
NtRp2724
(dp2725
g8
g2722
sg10
VVP
p2726
sg12
I4
sg13
Nsbag3
(g4
g5
NtRp2727
(dp2728
g8
g2722
sg10
VVBZ
p2729
sg12
I5
sg13
VIS
p2730
sbag3
(g4
g5
NtRp2731
(dp2732
g8
S'GRADUATE'
p2733
sg10
VNP
p2734
sg12
I5
sg13
Nsbag3
(g4
g5
NtRp2735
(dp2736
g8
g2733
sg10
VNP
p2737
sg12
I7
sg13
Nsbag3
(g4
g5
NtRp2738
(dp2739
g8
S'A'
sg10
VDT
p2740
sg12
I8
sg13
VA
sbag3
(g4
g5
NtRp2741
(dp2742
g8
g2733
sg10
VNN
p2743
sg12
I8
sg13
VGRADUATE
p2744
sbag3
(g4
g5
NtRp2745
(dp2746
g8
S'OF'
p2747
sg10
VPP
p2748
sg12
I7
sg13
Nsbag3
(g4
g5
NtRp2749
(dp2750
g8
g2747
sg10
VIN
p2751
sg12
I11
sg13
VOF
p2752
sbag3
(g4
g5
NtRp2753
(dp2754
g8
S'TRINITY'
p2755
sg10
VNP
p2756
sg12
I11
sg13
Nsbag3
(g4
g5
NtRp2757
(dp2758
g8
g2755
sg10
VNNP
p2759
sg12
I13
sg13
VTRINITY
p2760
sbag3
(g4
g5
NtRp2761
(dp2762
g8
S'UNIVERSITY'
p2763
sg10
VNNP
p2764
sg12
I13
sg13
VUNIVERSITY
p2765
sbag3
(g4
g5
NtRp2766
(dp2767
g8
S'AND'
p2768
sg10
VCC
p2769
sg12
I4
sg13
VAND
p2770
sbag3
(g4
g5
NtRp2771
(dp2772
g8
S'EARN'
p2773
sg10
VVP
p2774
sg12
I4
sg13
Nsbag3
(g4
g5
NtRp2775
(dp2776
g8
g2773
sg10
VVBD
p2777
sg12
I17
sg13
VEARNED
p2778
sbag3
(g4
g5
NtRp2779
(dp2780
g8
S'J.D.'
p2781
sg10
VNP
p2782
sg12
I17
sg13
Nsbag3
(g4
g5
NtRp2783
(dp2784
g8
S'HE'
p2785
sg10
VPRP$
p2786
sg12
I19
sg13
VHIS
p2787
sbag3
(g4
g5
NtRp2788
(dp2789
g8
g2781
sg10
VNNP
p2790
sg12
I19
sg13
VJ.D.
p2791
sba(lp2792
(lp2793
I1
aa(lp2794
I2
aI4
aa(lp2795
I3
aa(lp2796
a(lp2797
I5
aI16
aI17
aa(lp2798
I6
aI7
aa(lp2799
a(lp2800
I8
aI11
aa(lp2801
I9
aI10
aa(lp2802
a(lp2803
a(lp2804
I12
aI13
aa(lp2805
a(lp2806
I14
aI15
aa(lp2807
a(lp2808
a(lp2809
a(lp2810
I18
aI19
aa(lp2811
a(lp2812
I20
aI21
aa(lp2813
a(lp2814
a(lp2815
NaNag121
aNaNaNaNaNaNaNaNaNaNaNag122
aNaNaNaNaNaNaNaI1
tp2816
a(g2705
g2792
(lp2817
NaNaNaNaNaNaNag121
aNaNaNaNaNaNag122
aNaNaNaNaNaNaNaI7
tp2818
a(g2705
g2792
(lp2819
NaNaNaNaNaNaNaNag121
aNaNaNaNaNag122
aNaNaNaNaNaNaNaI7
tp2820
a(g2705
g2792
(lp2821
NaNaNaNaNaNaNaNaNaNag121
aNaNaNag122
aNaNaNaNaNaNaNaI7
tp2822
a(g2705
g2792
(lp2823
NaNaNaNaNaNaNaNaNaNaNaNaNaNag122
aNaNaNaNag121
aNaNaI4
tp2824
a((lp2825
g3
(g4
g5
NtRp2826
(dp2827
g8
V STEVE BOWER WAS EDUCATED AT CALDAY GRANGE GRAMMAR SCHOOL .
p2828
sg10
VROOT
p2829
sg12
Nsg13
Nsbag3
(g4
g5
NtRp2830
(dp2831
g8
V STEVE BOWER WAS EDUCATED AT CALDAY GRANGE GRAMMAR SCHOOL .
p2832
sg10
VS
sg12
I0
sg13
Nsbag3
(g4
g5
NtRp2833
(dp2834
g8
VSTEVE
p2835
sg10
VNP
p2836
sg12
I1
sg13
Nsbag3
(g4
g5
NtRp2837
(dp2838
g8
g2835
sg10
VNNP
p2839
sg12
I2
sg13
Nsbag3
(g4
g5
NtRp2840
(dp2841
g8
S'BOWER'
p2842
sg10
VNNP
p2843
sg12
I2
sg13
VBOWER
p2844
sbag3
(g4
g5
NtRp2845
(dp2846
g8
S'BE'
p2847
sg10
VVP
p2848
sg12
I1
sg13
Nsbag3
(g4
g5
NtRp2849
(dp2850
g8
g2847
sg10
VVBD
p2851
sg12
I5
sg13
VWAS
p2852
sbag3
(g4
g5
NtRp2853
(dp2854
g8
S'EDUCATE'
p2855
sg10
VVP
p2856
sg12
I5
sg13
Nsbag3
(g4
g5
NtRp2857
(dp2858
g8
g2855
sg10
VVBN
p2859
sg12
I7
sg13
VEDUCATED
p2860
sbag3
(g4
g5
NtRp2861
(dp2862
g8
S'AT'
p2863
sg10
VPP
p2864
sg12
I7
sg13
Nsbag3
(g4
g5
NtRp2865
(dp2866
g8
g2863
sg10
VIN
p2867
sg12
I9
sg13
VAT
p2868
sbag3
(g4
g5
NtRp2869
(dp2870
g8
S'CALDAY'
p2871
sg10
VNP
p2872
sg12
I9
sg13
Nsbag3
(g4
g5
NtRp2873
(dp2874
g8
g2871
sg10
VNNP
p2875
sg12
I11
sg13
VCALDAY
p2876
sbag3
(g4
g5
NtRp2877
(dp2878
g8
S'GRANGE'
p2879
sg10
VNNP
p2880
sg12
I11
sg13
VGRANGE
p2881
sbag3
(g4
g5
NtRp2882
(dp2883
g8
S'GRAMMAR'
p2884
sg10
VNNP
p2885
sg12
I11
sg13
VGRAMMAR
p2886
sbag3
(g4
g5
NtRp2887
(dp2888
g8
S'SCHOOL'
p2889
sg10
VNNP
p2890
sg12
I11
sg13
VSCHOOL
p2891
sbag3
(g4
g5
NtRp2892
(dp2893
g8
S'.'
sg10
V.
sg12
I1
sg13
V.
sba(lp2894
(lp2895
I1
aa(lp2896
I2
aI5
aI16
aa(lp2897
I3
aI4
aa(lp2898
a(lp2899
a(lp2900
I6
aI7
aa(lp2901
a(lp2902
I8
aI9
aa(lp2903
a(lp2904
I10
aI11
aa(lp2905
a(lp2906
I12
aI13
aI14
aI15
aa(lp2907
a(lp2908
a(lp2909
a(lp2910
a(lp2911
a(lp2912
NaNag121
aNaNaNaNaNaNaNaNaNag122
aNaNaNaNaI1
tp2913
a((lp2914
g3
(g4
g5
NtRp2915
(dp2916
g8
V GEORGE MILLS ATTENDED THE RAF STAFF COLLEGE IN 1935 .
p2917
sg10
VROOT
p2918
sg12
Nsg13
Nsbag3
(g4
g5
NtRp2919
(dp2920
g8
V GEORGE MILLS ATTENDED THE RAF STAFF COLLEGE IN 1935 .
p2921
sg10
VS
sg12
I0
sg13
Nsbag3
(g4
g5
NtRp2922
(dp2923
g8
VGEORGE
p2924
sg10
VNP
p2925
sg12
I1
sg13
Nsbag3
(g4
g5
NtRp2926
(dp2927
g8
g2924
sg10
VNNP
p2928
sg12
I2
sg13
Nsbag3
(g4
g5
NtRp2929
(dp2930
g8
S'MILLS'
p2931
sg10
VNNP
p2932
sg12
I2
sg13
VMILLS
p2933
sbag3
(g4
g5
NtRp2934
(dp2935
g8
S'ATTEND'
p2936
sg10
VVP
p2937
sg12
I1
sg13
Nsbag3
(g4
g5
NtRp2938
(dp2939
g8
g2936
sg10
VVBD
p2940
sg12
I5
sg13
VATTENDED
p2941
sbag3
(g4
g5
NtRp2942
(dp2943
g8
S'RAF'
p2944
sg10
VNP
p2945
sg12
I5
sg13
Nsbag3
(g4
g5
NtRp2946
(dp2947
g8
S'THE'
p2948
sg10
VDT
p2949
sg12
I7
sg13
VTHE
p2950
sbag3
(g4
g5
NtRp2951
(dp2952
g8
g2944
sg10
VNN
p2953
sg12
I7
sg13
VRAF
p2954
sbag3
(g4
g5
NtRp2955
(dp2956
g8
S'STAFF'
p2957
sg10
VNNP
p2958
sg12
I7
sg13
VSTAFF
p2959
sbag3
(g4
g5
NtRp2960
(dp2961
g8
S'COLLEGE'
p2962
sg10
VNNP
p2963
sg12
I7
sg13
VCOLLEGE
p2964
sbag3
(g4
g5
NtRp2965
(dp2966
g8
S'IN'
p2967
sg10
VPP
p2968
sg12
I5
sg13
Nsbag3
(g4
g5
NtRp2969
(dp2970
g8
g2967
sg10
VIN
p2971
sg12
I12
sg13
VIN
p2972
sbag3
(g4
g5
NtRp2973
(dp2974
g8
S'1935'
p2975
sg10
VNP
p2976
sg12
I12
sg13
V1935
p2977
sbag3
(g4
g5
NtRp2978
(dp2979
g8
g2975
sg10
VCD
p2980
sg12
I14
sg13
V1935
p2981
sbag3
(g4
g5
NtRp2982
(dp2983
g8
S'.'
sg10
V.
sg12
I1
sg13
V.
sba(lp2984
(lp2985
I1
aa(lp2986
I2
aI5
aI16
aa(lp2987
I3
aI4
aa(lp2988
a(lp2989
a(lp2990
I6
aI7
aI12
aa(lp2991
a(lp2992
I8
aI9
aI10
aI11
aa(lp2993
a(lp2994
a(lp2995
a(lp2996
a(lp2997
I13
aI14
aa(lp2998
a(lp2999
I15
aa(lp3000
a(lp3001
a(lp3002
NaNag121
aNaNaNaNaNaNag122
aNaNaNaNaNaNaNaI1
tp3003
a(g2914
g2984
(lp3004
NaNaNaNaNaNaNaNaNag122
aNaNaNaNag121
aNaNaI5
tp3005
a((lp3006
g3
(g4
g5
NtRp3007
(dp3008
g8
V LAIDIG GRADUATED FROM MINNETONKA HIGH SCHOOL IN MINNETONKA IN 1966 .
p3009
sg10
VROOT
p3010
sg12
Nsg13
Nsbag3
(g4
g5
NtRp3011
(dp3012
g8
V LAIDIG GRADUATED FROM MINNETONKA HIGH SCHOOL IN MINNETONKA IN 1966 .
p3013
sg10
VS
sg12
I0
sg13
Nsbag3
(g4
g5
NtRp3014
(dp3015
g8
VLAIDIG
p3016
sg10
VNP
p3017
sg12
I1
sg13
Nsbag3
(g4
g5
NtRp3018
(dp3019
g8
g3016
sg10
VNNP
p3020
sg12
I2
sg13
Nsbag3
(g4
g5
NtRp3021
(dp3022
g8
S'GRADUATE'
p3023
sg10
VVP
p3024
sg12
I1
sg13
Nsbag3
(g4
g5
NtRp3025
(dp3026
g8
g3023
sg10
VVBD
p3027
sg12
I4
sg13
VGRADUATED
p3028
sbag3
(g4
g5
NtRp3029
(dp3030
g8
S'FROM'
p3031
sg10
VPP
p3032
sg12
I4
sg13
Nsbag3
(g4
g5
NtRp3033
(dp3034
g8
g3031
sg10
VIN
p3035
sg12
I6
sg13
VFROM
p3036
sbag3
(g4
g5
NtRp3037
(dp3038
g8
S'MINNETONKA'
p3039
sg10
VNP
p3040
sg12
I6
sg13
Nsbag3
(g4
g5
NtRp3041
(dp3042
g8
g3039
sg10
VNP
p3043
sg12
I8
sg13
Nsbag3
(g4
g5
NtRp3044
(dp3045
g8
g3039
sg10
VNNP
p3046
sg12
I9
sg13
VMINNETONKA
p3047
sbag3
(g4
g5
NtRp3048
(dp3049
g8
S'HIGH'
p3050
sg10
VNNP
p3051
sg12
I9
sg13
VHIGH
p3052
sbag3
(g4
g5
NtRp3053
(dp3054
g8
S'SCHOOL'
p3055
sg10
VNNP
p3056
sg12
I9
sg13
VSCHOOL
p3057
sbag3
(g4
g5
NtRp3058
(dp3059
g8
S'IN'
p3060
sg10
VPP
p3061
sg12
I8
sg13
Nsbag3
(g4
g5
NtRp3062
(dp3063
g8
g3060
sg10
VIN
p3064
sg12
I13
sg13
VIN
p3065
sbag3
(g4
g5
NtRp3066
(dp3067
g8
g3039
sg10
VNP
p3068
sg12
I13
sg13
VMINNETONKA
p3069
sbag3
(g4
g5
NtRp3070
(dp3071
g8
g3039
sg10
VNNP
p3072
sg12
I15
sg13
VMINNETONKA
p3073
sbag3
(g4
g5
NtRp3074
(dp3075
g8
g3060
sg10
VPP
p3076
sg12
I4
sg13
Nsbag3
(g4
g5
NtRp3077
(dp3078
g8
g3060
sg10
VIN
p3079
sg12
I17
sg13
VIN
p3080
sbag3
(g4
g5
NtRp3081
(dp3082
g8
S'1966'
p3083
sg10
VNP
p3084
sg12
I17
sg13
V1966
p3085
sbag3
(g4
g5
NtRp3086
(dp3087
g8
g3083
sg10
VCD
p3088
sg12
I19
sg13
V1966
p3089
sbag3
(g4
g5
NtRp3090
(dp3091
g8
S'.'
sg10
V.
sg12
I1
sg13
V.
sba(lp3092
(lp3093
I1
aa(lp3094
I2
aI4
aI21
aa(lp3095
I3
aa(lp3096
a(lp3097
I5
aI6
aI17
aa(lp3098
a(lp3099
I7
aI8
aa(lp3100
a(lp3101
I9
aI13
aa(lp3102
I10
aI11
aI12
aa(lp3103
a(lp3104
a(lp3105
a(lp3106
I14
aI15
aa(lp3107
a(lp3108
I16
aa(lp3109
a(lp3110
I18
aI19
aa(lp3111
a(lp3112
I20
aa(lp3113
a(lp3114
a(lp3115
NaNag121
aNaNaNaNaNaNaNaNag122
aNaNaNaNaNaNaNaNaNaNaI1
tp3116
a(g3006
g3092
(lp3117
NaNaNaNaNaNaNaNag121
aNaNag122
aNaNaNaNaNaNaNaNaNaNaI8
tp3118
a(g3006
g3092
(lp3119
NaNaNaNaNaNaNaNaNaNaNag122
aNaNaNag121
aNaNaNaNaNaNaI8
tp3120
a(g3006
g3092
(lp3121
NaNaNaNaNaNaNaNaNaNaNag122
aNaNaNaNaNaNaNag121
aNaNaI4
tp3122
a((lp3123
g3
(g4
g5
NtRp3124
(dp3125
g8
V NANCE GRADUATED FROM THE PHILLIPS EXETER ACADEMY IN 1950 .
p3126
sg10
VROOT
p3127
sg12
Nsg13
Nsbag3
(g4
g5
NtRp3128
(dp3129
g8
V NANCE GRADUATED FROM THE PHILLIPS EXETER ACADEMY IN 1950 .
p3130
sg10
VS
sg12
I0
sg13
Nsbag3
(g4
g5
NtRp3131
(dp3132
g8
VNANCE
p3133
sg10
VNP
p3134
sg12
I1
sg13
Nsbag3
(g4
g5
NtRp3135
(dp3136
g8
g3133
sg10
VNNP
p3137
sg12
I2
sg13
Nsbag3
(g4
g5
NtRp3138
(dp3139
g8
S'GRADUATE'
p3140
sg10
VVP
p3141
sg12
I1
sg13
Nsbag3
(g4
g5
NtRp3142
(dp3143
g8
g3140
sg10
VVBD
p3144
sg12
I4
sg13
VGRADUATED
p3145
sbag3
(g4
g5
NtRp3146
(dp3147
g8
S'FROM'
p3148
sg10
VPP
p3149
sg12
I4
sg13
Nsbag3
(g4
g5
NtRp3150
(dp3151
g8
g3148
sg10
VIN
p3152
sg12
I6
sg13
VFROM
p3153
sbag3
(g4
g5
NtRp3154
(dp3155
g8
S'PHILLIPS'
p3156
sg10
VNP
p3157
sg12
I6
sg13
Nsbag3
(g4
g5
NtRp3158
(dp3159
g8
S'THE'
p3160
sg10
VDT
p3161
sg12
I8
sg13
VTHE
p3162
sbag3
(g4
g5
NtRp3163
(dp3164
g8
g3156
sg10
VNNP
p3165
sg12
I8
sg13
VPHILLIPS
p3166
sbag3
(g4
g5
NtRp3167
(dp3168
g8
S'EXETER'
p3169
sg10
VNNP
p3170
sg12
I8
sg13
VEXETER
p3171
sbag3
(g4
g5
NtRp3172
(dp3173
g8
S'ACADEMY'
p3174
sg10
VNNP
p3175
sg12
I8
sg13
VACADEMY
p3176
sbag3
(g4
g5
NtRp3177
(dp3178
g8
S'IN'
p3179
sg10
VPP
p3180
sg12
I4
sg13
Nsbag3
(g4
g5
NtRp3181
(dp3182
g8
g3179
sg10
VIN
p3183
sg12
I13
sg13
VIN
p3184
sbag3
(g4
g5
NtRp3185
(dp3186
g8
S'1950'
p3187
sg10
VNP
p3188
sg12
I13
sg13
V1950
p3189
sbag3
(g4
g5
NtRp3190
(dp3191
g8
g3187
sg10
VCD
p3192
sg12
I15
sg13
V1950
p3193
sbag3
(g4
g5
NtRp3194
(dp3195
g8
S'.'
sg10
V.
sg12
I1
sg13
V.
sba(lp3196
(lp3197
I1
aa(lp3198
I2
aI4
aI17
aa(lp3199
I3
aa(lp3200
a(lp3201
I5
aI6
aI13
aa(lp3202
a(lp3203
I7
aI8
aa(lp3204
a(lp3205
I9
aI10
aI11
aI12
aa(lp3206
a(lp3207
a(lp3208
a(lp3209
a(lp3210
I14
aI15
aa(lp3211
a(lp3212
I16
aa(lp3213
a(lp3214
a(lp3215
NaNag121
aNaNaNaNaNaNaNag122
aNaNaNaNaNaNaNaI1
tp3216
a(g3123
g3196
(lp3217
NaNaNaNaNaNaNaNaNaNag122
aNaNaNaNag121
aNaNaI4
tp3218
a((lp3219
g3
(g4
g5
NtRp3220
(dp3221
g8
V ROBERTSON ATTENDED THE UNIVERSITY OF MIAMI .
p3222
sg10
VROOT
p3223
sg12
Nsg13
Nsbag3
(g4
g5
NtRp3224
(dp3225
g8
V ROBERTSON ATTENDED THE UNIVERSITY OF MIAMI .
p3226
sg10
VS
sg12
I0
sg13
Nsbag3
(g4
g5
NtRp3227
(dp3228
g8
VROBERTSON
p3229
sg10
VNP
p3230
sg12
I1
sg13
Nsbag3
(g4
g5
NtRp3231
(dp3232
g8
g3229
sg10
VNNP
p3233
sg12
I2
sg13
Nsbag3
(g4
g5
NtRp3234
(dp3235
g8
S'ATTEND'
p3236
sg10
VVP
p3237
sg12
I1
sg13
Nsbag3
(g4
g5
NtRp3238
(dp3239
g8
g3236
sg10
VVBD
p3240
sg12
I4
sg13
VATTENDED
p3241
sbag3
(g4
g5
NtRp3242
(dp3243
g8
S'UNIVERSITY'
p3244
sg10
VNP
p3245
sg12
I4
sg13
Nsbag3
(g4
g5
NtRp3246
(dp3247
g8
g3244
sg10
VNP
p3248
sg12
I6
sg13
Nsbag3
(g4
g5
NtRp3249
(dp3250
g8
S'THE'
p3251
sg10
VDT
p3252
sg12
I7
sg13
VTHE
p3253
sbag3
(g4
g5
NtRp3254
(dp3255
g8
g3244
sg10
VNNP
p3256
sg12
I7
sg13
VUNIVERSITY
p3257
sbag3
(g4
g5
NtRp3258
(dp3259
g8
S'OF'
p3260
sg10
VPP
p3261
sg12
I6
sg13
Nsbag3
(g4
g5
NtRp3262
(dp3263
g8
g3260
sg10
VIN
p3264
sg12
I10
sg13
VOF
p3265
sbag3
(g4
g5
NtRp3266
(dp3267
g8
S'MIAMI'
p3268
sg10
VNP
p3269
sg12
I10
sg13
VMIAMI
p3270
sbag3
(g4
g5
NtRp3271
(dp3272
g8
g3268
sg10
VNNP
p3273
sg12
I12
sg13
VMIAMI
p3274
sbag3
(g4
g5
NtRp3275
(dp3276
g8
S'.'
sg10
V.
sg12
I1
sg13
V.
sba(lp3277
(lp3278
I1
aa(lp3279
I2
aI4
aI14
aa(lp3280
I3
aa(lp3281
a(lp3282
I5
aI6
aa(lp3283
a(lp3284
I7
aI10
aa(lp3285
I8
aI9
aa(lp3286
a(lp3287
a(lp3288
I11
aI12
aa(lp3289
a(lp3290
I13
aa(lp3291
a(lp3292
a(lp3293
NaNag121
aNaNaNaNaNaNag122
aNaNaNaNaNaI1
tp3294
a(g3219
g3277
(lp3295
NaNaNaNaNaNag121
aNaNag122
aNaNaNaNaNaI6
tp3296
a((lp3297
g3
(g4
g5
NtRp3298
(dp3299
g8
V MICHAEL GEPPI ATTENDED NORTH HARFORD HIGH SCHOOL , GRADUATING IN 1993 .
p3300
sg10
VROOT
p3301
sg12
Nsg13
Nsbag3
(g4
g5
NtRp3302
(dp3303
g8
V MICHAEL GEPPI ATTENDED NORTH HARFORD HIGH SCHOOL , GRADUATING IN 1993 .
p3304
sg10
VS
sg12
I0
sg13
Nsbag3
(g4
g5
NtRp3305
(dp3306
g8
VMICHAEL
p3307
sg10
VNP
p3308
sg12
I1
sg13
Nsbag3
(g4
g5
NtRp3309
(dp3310
g8
g3307
sg10
VNNP
p3311
sg12
I2
sg13
Nsbag3
(g4
g5
NtRp3312
(dp3313
g8
S'GEPPI'
p3314
sg10
VNNP
p3315
sg12
I2
sg13
VGEPPI
p3316
sbag3
(g4
g5
NtRp3317
(dp3318
g8
S'ATTEND'
p3319
sg10
VVP
p3320
sg12
I1
sg13
Nsbag3
(g4
g5
NtRp3321
(dp3322
g8
g3319
sg10
VVBD
p3323
sg12
I5
sg13
VATTENDED
p3324
sbag3
(g4
g5
NtRp3325
(dp3326
g8
S'NORTH'
p3327
sg10
VNP
p3328
sg12
I5
sg13
Nsbag3
(g4
g5
NtRp3329
(dp3330
g8
g3327
sg10
VNNP
p3331
sg12
I7
sg13
VNORTH
p3332
sbag3
(g4
g5
NtRp3333
(dp3334
g8
S'HARFORD'
p3335
sg10
VNNP
p3336
sg12
I7
sg13
VHARFORD
p3337
sbag3
(g4
g5
NtRp3338
(dp3339
g8
S'HIGH'
p3340
sg10
VNNP
p3341
sg12
I7
sg13
VHIGH
p3342
sbag3
(g4
g5
NtRp3343
(dp3344
g8
S'SCHOOL'
p3345
sg10
VNNP
p3346
sg12
I7
sg13
VSCHOOL
p3347
sbag3
(g4
g5
NtRp3348
(dp3349
g8
S','
sg10
V,
sg12
I5
sg13
V,
sbag3
(g4
g5
NtRp3350
(dp3351
g8
S'GRADUATE'
p3352
sg10
VS
sg12
I5
sg13
Nsbag3
(g4
g5
NtRp3353
(dp3354
g8
g3352
sg10
VVP
p3355
sg12
I13
sg13
Nsbag3
(g4
g5
NtRp3356
(dp3357
g8
g3352
sg10
VVBG
p3358
sg12
I14
sg13
VGRADUATING
p3359
sbag3
(g4
g5
NtRp3360
(dp3361
g8
S'IN'
p3362
sg10
VPP
p3363
sg12
I14
sg13
Nsbag3
(g4
g5
NtRp3364
(dp3365
g8
g3362
sg10
VIN
p3366
sg12
I16
sg13
VIN
p3367
sbag3
(g4
g5
NtRp3368
(dp3369
g8
S'1993'
p3370
sg10
VNP
p3371
sg12
I16
sg13
V1993
p3372
sbag3
(g4
g5
NtRp3373
(dp3374
g8
g3370
sg10
VCD
p3375
sg12
I18
sg13
V1993
p3376
sbag3
(g4
g5
NtRp3377
(dp3378
g8
S'.'
sg10
V.
sg12
I1
sg13
V.
sba(lp3379
(lp3380
I1
aa(lp3381
I2
aI5
aI20
aa(lp3382
I3
aI4
aa(lp3383
a(lp3384
a(lp3385
I6
aI7
aI12
aI13
aa(lp3386
a(lp3387
I8
aI9
aI10
aI11
aa(lp3388
a(lp3389
a(lp3390
a(lp3391
a(lp3392
a(lp3393
I14
aa(lp3394
I15
aI16
aa(lp3395
a(lp3396
I17
aI18
aa(lp3397
a(lp3398
I19
aa(lp3399
a(lp3400
a(lp3401
NaNag121
aNaNaNaNaNag122
aNaNaNaNaNaNaNaNaNaNaNaNaI1
tp3402
a(g3297
g3379
(lp3403
NaNaNaNaNaNaNaNag122
aNaNaNaNaNaNaNaNaNag121
aNaNaI5
tp3404
a((lp3405
g3
(g4
g5
NtRp3406
(dp3407
g8
V SAK HARARSON GRADUATED FROM THE UNIVERSITY OF ICELAND IN 1977 .
p3408
sg10
VROOT
p3409
sg12
Nsg13
Nsbag3
(g4
g5
NtRp3410
(dp3411
g8
V SAK HARARSON GRADUATED FROM THE UNIVERSITY OF ICELAND IN 1977 .
p3412
sg10
VS
sg12
I0
sg13
Nsbag3
(g4
g5
NtRp3413
(dp3414
g8
VSAK
p3415
sg10
VNP
p3416
sg12
I1
sg13
Nsbag3
(g4
g5
NtRp3417
(dp3418
g8
g3415
sg10
VNNP
p3419
sg12
I2
sg13
Nsbag3
(g4
g5
NtRp3420
(dp3421
g8
VHARARSON
p3422
sg10
VNNP
p3423
sg12
I2
sg13
Nsbag3
(g4
g5
NtRp3424
(dp3425
g8
S'GRADUATE'
p3426
sg10
VVP
p3427
sg12
I1
sg13
Nsbag3
(g4
g5
NtRp3428
(dp3429
g8
g3426
sg10
VVBD
p3430
sg12
I5
sg13
VGRADUATED
p3431
sbag3
(g4
g5
NtRp3432
(dp3433
g8
S'FROM'
p3434
sg10
VPP
p3435
sg12
I5
sg13
Nsbag3
(g4
g5
NtRp3436
(dp3437
g8
g3434
sg10
VIN
p3438
sg12
I7
sg13
VFROM
p3439
sbag3
(g4
g5
NtRp3440
(dp3441
g8
S'UNIVERSITY'
p3442
sg10
VNP
p3443
sg12
I7
sg13
Nsbag3
(g4
g5
NtRp3444
(dp3445
g8
g3442
sg10
VNP
p3446
sg12
I9
sg13
Nsbag3
(g4
g5
NtRp3447
(dp3448
g8
S'THE'
p3449
sg10
VDT
p3450
sg12
I10
sg13
VTHE
p3451
sbag3
(g4
g5
NtRp3452
(dp3453
g8
g3442
sg10
VNNP
p3454
sg12
I10
sg13
VUNIVERSITY
p3455
sbag3
(g4
g5
NtRp3456
(dp3457
g8
S'OF'
p3458
sg10
VPP
p3459
sg12
I9
sg13
Nsbag3
(g4
g5
NtRp3460
(dp3461
g8
g3458
sg10
VIN
p3462
sg12
I13
sg13
VOF
p3463
sbag3
(g4
g5
NtRp3464
(dp3465
g8
S'ICELAND'
p3466
sg10
VNP
p3467
sg12
I13
sg13
VICELAND
p3468
sbag3
(g4
g5
NtRp3469
(dp3470
g8
g3466
sg10
VNNP
p3471
sg12
I15
sg13
VICELAND
p3472
sbag3
(g4
g5
NtRp3473
(dp3474
g8
S'IN'
p3475
sg10
VPP
p3476
sg12
I5
sg13
Nsbag3
(g4
g5
NtRp3477
(dp3478
g8
g3475
sg10
VIN
p3479
sg12
I17
sg13
VIN
p3480
sbag3
(g4
g5
NtRp3481
(dp3482
g8
S'1977'
p3483
sg10
VNP
p3484
sg12
I17
sg13
V1977
p3485
sbag3
(g4
g5
NtRp3486
(dp3487
g8
g3483
sg10
VCD
p3488
sg12
I19
sg13
V1977
p3489
sbag3
(g4
g5
NtRp3490
(dp3491
g8
S'.'
sg10
V.
sg12
I1
sg13
V.
sba(lp3492
(lp3493
I1
aa(lp3494
I2
aI5
aI21
aa(lp3495
I3
aI4
aa(lp3496
a(lp3497
a(lp3498
I6
aI7
aI17
aa(lp3499
a(lp3500
I8
aI9
aa(lp3501
a(lp3502
I10
aI13
aa(lp3503
I11
aI12
aa(lp3504
a(lp3505
a(lp3506
I14
aI15
aa(lp3507
a(lp3508
I16
aa(lp3509
a(lp3510
I18
aI19
aa(lp3511
a(lp3512
I20
aa(lp3513
a(lp3514
a(lp3515
NaNag121
aNaNaNaNaNaNaNaNaNag122
aNaNaNaNaNaNaNaNaNaI1
tp3516
a(g3405
g3492
(lp3517
NaNaNaNaNaNaNaNaNag121
aNaNag122
aNaNaNaNaNaNaNaNaNaI9
tp3518
a(g3405
g3492
(lp3519
NaNaNaNaNaNaNaNaNaNaNaNag122
aNaNaNaNaNaNag121
aNaNaI5
tp3520
a((lp3521
g3
(g4
g5
NtRp3522
(dp3523
g8
V FRANK GREENAWAY STUDIED CHEMISTRY AT JESUS COLLEGE , OXFORD .
p3524
sg10
VROOT
p3525
sg12
Nsg13
Nsbag3
(g4
g5
NtRp3526
(dp3527
g8
V FRANK GREENAWAY STUDIED CHEMISTRY AT JESUS COLLEGE , OXFORD .
p3528
sg10
VS
sg12
I0
sg13
Nsbag3
(g4
g5
NtRp3529
(dp3530
g8
VFRANK
p3531
sg10
VNP
p3532
sg12
I1
sg13
Nsbag3
(g4
g5
NtRp3533
(dp3534
g8
g3531
sg10
VNNP
p3535
sg12
I2
sg13
Nsbag3
(g4
g5
NtRp3536
(dp3537
g8
S'GREENAWAY'
p3538
sg10
VNNP
p3539
sg12
I2
sg13
VGREENAWAY
p3540
sbag3
(g4
g5
NtRp3541
(dp3542
g8
S'STUDY'
p3543
sg10
VVP
p3544
sg12
I1
sg13
Nsbag3
(g4
g5
NtRp3545
(dp3546
g8
g3543
sg10
VVBD
p3547
sg12
I5
sg13
VSTUDIED
p3548
sbag3
(g4
g5
NtRp3549
(dp3550
g8
S'CHEMISTRY'
p3551
sg10
VNP
p3552
sg12
I5
sg13
VCHEMISTRY
p3553
sbag3
(g4
g5
NtRp3554
(dp3555
g8
g3551
sg10
VNNP
p3556
sg12
I7
sg13
VCHEMISTRY
p3557
sbag3
(g4
g5
NtRp3558
(dp3559
g8
S'AT'
p3560
sg10
VPP
p3561
sg12
I5
sg13
Nsbag3
(g4
g5
NtRp3562
(dp3563
g8
g3560
sg10
VIN
p3564
sg12
I9
sg13
VAT
p3565
sbag3
(g4
g5
NtRp3566
(dp3567
g8
S'JESUS'
p3568
sg10
VNP
p3569
sg12
I9
sg13
Nsbag3
(g4
g5
NtRp3570
(dp3571
g8
g3568
sg10
VNP
p3572
sg12
I11
sg13
Nsbag3
(g4
g5
NtRp3573
(dp3574
g8
g3568
sg10
VNNP
p3575
sg12
I12
sg13
VJESUS
p3576
sbag3
(g4
g5
NtRp3577
(dp3578
g8
S'COLLEGE'
p3579
sg10
VNNP
p3580
sg12
I12
sg13
VCOLLEGE
p3581
sbag3
(g4
g5
NtRp3582
(dp3583
g8
S','
sg10
V,
sg12
I11
sg13
V,
sbag3
(g4
g5
NtRp3584
(dp3585
g8
S'OXFORD'
p3586
sg10
VNP
p3587
sg12
I11
sg13
VOXFORD
p3588
sbag3
(g4
g5
NtRp3589
(dp3590
g8
g3586
sg10
VNNP
p3591
sg12
I16
sg13
VOXFORD
p3592
sbag3
(g4
g5
NtRp3593
(dp3594
g8
S'.'
sg10
V.
sg12
I1
sg13
V.
sba(lp3595
(lp3596
I1
aa(lp3597
I2
aI5
aI18
aa(lp3598
I3
aI4
aa(lp3599
a(lp3600
a(lp3601
I6
aI7
aI9
aa(lp3602
a(lp3603
I8
aa(lp3604
a(lp3605
I10
aI11
aa(lp3606
a(lp3607
I12
aI15
aI16
aa(lp3608
I13
aI14
aa(lp3609
a(lp3610
a(lp3611
a(lp3612
I17
aa(lp3613
a(lp3614
a(lp3615
NaNag121
aNaNaNaNaNaNaNaNaNaNag122
aNaNaNaNaNaI1
tp3616
a(g3521
g3595
(lp3617
NaNaNaNaNaNaNag121
aNaNaNaNaNag122
aNaNaNaNaNaI5
tp3618
a(g3521
g3595
(lp3619
NaNaNaNaNaNaNaNaNaNaNag121
aNag122
aNaNaNaNaNaI11
tp3620
a(g3521
g3595
(lp3621
NaNaNaNaNaNaNaNaNaNaNaNaNag122
aNaNag121
aNaNaI11
tp3622
a((lp3623
g3
(g4
g5
NtRp3624
(dp3625
g8
V JAMES MCLACHLAN WAS GRADUATED FROM HAMILTON COLLEGE , CLINTON , NEW YORK , IN 1878 .
p3626
sg10
VROOT
p3627
sg12
Nsg13
Nsbag3
(g4
g5
NtRp3628
(dp3629
g8
V JAMES MCLACHLAN WAS GRADUATED FROM HAMILTON COLLEGE , CLINTON , NEW YORK , IN 1878 .
p3630
sg10
VS
sg12
I0
sg13
Nsbag3
(g4
g5
NtRp3631
(dp3632
g8
VJAMES
p3633
sg10
VNP
p3634
sg12
I1
sg13
Nsbag3
(g4
g5
NtRp3635
(dp3636
g8
g3633
sg10
VNNP
p3637
sg12
I2
sg13
Nsbag3
(g4
g5
NtRp3638
(dp3639
g8
S'MCLACHLAN'
p3640
sg10
VNNP
p3641
sg12
I2
sg13
VMCLACHLAN
p3642
sbag3
(g4
g5
NtRp3643
(dp3644
g8
S'BE'
p3645
sg10
VVP
p3646
sg12
I1
sg13
Nsbag3
(g4
g5
NtRp3647
(dp3648
g8
g3645
sg10
VVBD
p3649
sg12
I5
sg13
VWAS
p3650
sbag3
(g4
g5
NtRp3651
(dp3652
g8
S'GRADUATE'
p3653
sg10
VVP
p3654
sg12
I5
sg13
Nsbag3
(g4
g5
NtRp3655
(dp3656
g8
g3653
sg10
VVBN
p3657
sg12
I7
sg13
VGRADUATED
p3658
sbag3
(g4
g5
NtRp3659
(dp3660
g8
S'FROM'
p3661
sg10
VPP
p3662
sg12
I7
sg13
Nsbag3
(g4
g5
NtRp3663
(dp3664
g8
g3661
sg10
VIN
p3665
sg12
I9
sg13
VFROM
p3666
sbag3
(g4
g5
NtRp3667
(dp3668
g8
S'HAMILTON'
p3669
sg10
VNP
p3670
sg12
I9
sg13
Nsbag3
(g4
g5
NtRp3671
(dp3672
g8
g3669
sg10
VNP
p3673
sg12
I11
sg13
Nsbag3
(g4
g5
NtRp3674
(dp3675
g8
g3669
sg10
VNNP
p3676
sg12
I12
sg13
VHAMILTON
p3677
sbag3
(g4
g5
NtRp3678
(dp3679
g8
S'COLLEGE'
p3680
sg10
VNNP
p3681
sg12
I12
sg13
VCOLLEGE
p3682
sbag3
(g4
g5
NtRp3683
(dp3684
g8
S','
sg10
V,
sg12
I12
sg13
V,
sbag3
(g4
g5
NtRp3685
(dp3686
g8
S'CLINTON'
p3687
sg10
VNNP
p3688
sg12
I12
sg13
VCLINTON
p3689
sbag3
(g4
g5
NtRp3690
(dp3691
g8
S','
sg10
V,
sg12
I12
sg13
V,
sbag3
(g4
g5
NtRp3692
(dp3693
g8
S'NEW'
p3694
sg10
VNNP
p3695
sg12
I12
sg13
VNEW
p3696
sbag3
(g4
g5
NtRp3697
(dp3698
g8
S'YORK'
p3699
sg10
VNNP
p3700
sg12
I12
sg13
VYORK
p3701
sbag3
(g4
g5
NtRp3702
(dp3703
g8
S','
sg10
V,
sg12
I12
sg13
V,
sbag3
(g4
g5
NtRp3704
(dp3705
g8
S'IN'
p3706
sg10
VPP
p3707
sg12
I11
sg13
Nsbag3
(g4
g5
NtRp3708
(dp3709
g8
g3706
sg10
VIN
p3710
sg12
I21
sg13
VIN
p3711
sbag3
(g4
g5
NtRp3712
(dp3713
g8
S'1878'
p3714
sg10
VNP
p3715
sg12
I21
sg13
V1878
p3716
sbag3
(g4
g5
NtRp3717
(dp3718
g8
g3714
sg10
VCD
p3719
sg12
I23
sg13
V1878
p3720
sbag3
(g4
g5
NtRp3721
(dp3722
g8
S'.'
sg10
V.
sg12
I1
sg13
V.
sba(lp3723
(lp3724
I1
aa(lp3725
I2
aI5
aI25
aa(lp3726
I3
aI4
aa(lp3727
a(lp3728
a(lp3729
I6
aI7
aa(lp3730
a(lp3731
I8
aI9
aa(lp3732
a(lp3733
I10
aI11
aa(lp3734
a(lp3735
I12
aI21
aa(lp3736
I13
aI14
aI15
aI16
aI17
aI18
aI19
aI20
aa(lp3737
a(lp3738
a(lp3739
a(lp3740
a(lp3741
a(lp3742
a(lp3743
a(lp3744
a(lp3745
I22
aI23
aa(lp3746
a(lp3747
I24
aa(lp3748
a(lp3749
a(lp3750
NaNag121
aNaNaNaNaNaNaNaNaNaNag122
aNaNaNaNaNaNaNaNaNaNaNaNaI1
tp3751
a(g3623
g3723
(lp3752
NaNaNaNaNaNaNaNaNaNaNag121
aNag122
aNaNaNaNaNaNaNaNaNaNaNaNaI11
tp3753
a(g3623
g3723
(lp3754
NaNaNaNaNaNaNaNaNaNaNaNaNag122
aNaNaNaNaNaNaNaNaNag121
aNaNaI11
tp3755
a((lp3756
g3
(g4
g5
NtRp3757
(dp3758
g8
V LAWRENCE STENHOUSE WAS EDUCATED AT ST ANDREWS UNIVERSITY IN SCOTLAND .
p3759
sg10
VROOT
p3760
sg12
Nsg13
Nsbag3
(g4
g5
NtRp3761
(dp3762
g8
V LAWRENCE STENHOUSE WAS EDUCATED AT ST ANDREWS UNIVERSITY IN SCOTLAND .
p3763
sg10
VS
sg12
I0
sg13
Nsbag3
(g4
g5
NtRp3764
(dp3765
g8
VLAWRENCE
p3766
sg10
VNP
p3767
sg12
I1
sg13
Nsbag3
(g4
g5
NtRp3768
(dp3769
g8
g3766
sg10
VNNP
p3770
sg12
I2
sg13
Nsbag3
(g4
g5
NtRp3771
(dp3772
g8
S'STENHOUSE'
p3773
sg10
VNNP
p3774
sg12
I2
sg13
VSTENHOUSE
p3775
sbag3
(g4
g5
NtRp3776
(dp3777
g8
S'BE'
p3778
sg10
VVP
p3779
sg12
I1
sg13
Nsbag3
(g4
g5
NtRp3780
(dp3781
g8
g3778
sg10
VVBD
p3782
sg12
I5
sg13
VWAS
p3783
sbag3
(g4
g5
NtRp3784
(dp3785
g8
S'EDUCATE'
p3786
sg10
VVP
p3787
sg12
I5
sg13
Nsbag3
(g4
g5
NtRp3788
(dp3789
g8
g3786
sg10
VVBN
p3790
sg12
I7
sg13
VEDUCATED
p3791
sbag3
(g4
g5
NtRp3792
(dp3793
g8
S'AT'
p3794
sg10
VPP
p3795
sg12
I7
sg13
Nsbag3
(g4
g5
NtRp3796
(dp3797
g8
g3794
sg10
VIN
p3798
sg12
I9
sg13
VAT
p3799
sbag3
(g4
g5
NtRp3800
(dp3801
g8
S'ST'
p3802
sg10
VNP
p3803
sg12
I9
sg13
Nsbag3
(g4
g5
NtRp3804
(dp3805
g8
g3802
sg10
VNP
p3806
sg12
I11
sg13
Nsbag3
(g4
g5
NtRp3807
(dp3808
g8
g3802
sg10
VNNP
p3809
sg12
I12
sg13
VST
p3810
sbag3
(g4
g5
NtRp3811
(dp3812
g8
S'ANDREWS'
p3813
sg10
VNNP
p3814
sg12
I12
sg13
VANDREWS
p3815
sbag3
(g4
g5
NtRp3816
(dp3817
g8
S'UNIVERSITY'
p3818
sg10
VNNP
p3819
sg12
I12
sg13
VUNIVERSITY
p3820
sbag3
(g4
g5
NtRp3821
(dp3822
g8
S'IN'
p3823
sg10
VPP
p3824
sg12
I11
sg13
Nsbag3
(g4
g5
NtRp3825
(dp3826
g8
g3823
sg10
VIN
p3827
sg12
I16
sg13
VIN
p3828
sbag3
(g4
g5
NtRp3829
(dp3830
g8
S'SCOTLAND'
p3831
sg10
VNP
p3832
sg12
I16
sg13
VSCOTLAND
p3833
sbag3
(g4
g5
NtRp3834
(dp3835
g8
g3831
sg10
VNNP
p3836
sg12
I18
sg13
VSCOTLAND
p3837
sbag3
(g4
g5
NtRp3838
(dp3839
g8
S'.'
sg10
V.
sg12
I1
sg13
V.
sba(lp3840
(lp3841
I1
aa(lp3842
I2
aI5
aI20
aa(lp3843
I3
aI4
aa(lp3844
a(lp3845
a(lp3846
I6
aI7
aa(lp3847
a(lp3848
I8
aI9
aa(lp3849
a(lp3850
I10
aI11
aa(lp3851
a(lp3852
I12
aI16
aa(lp3853
I13
aI14
aI15
aa(lp3854
a(lp3855
a(lp3856
a(lp3857
I17
aI18
aa(lp3858
a(lp3859
I19
aa(lp3860
a(lp3861
a(lp3862
NaNag121
aNaNaNaNaNaNaNaNaNaNag122
aNaNaNaNaNaNaNaI1
tp3863
a(g3756
g3840
(lp3864
NaNaNaNaNaNaNaNaNaNaNag121
aNag122
aNaNaNaNaNaNaNaI11
tp3865
a(g3756
g3840
(lp3866
NaNaNaNaNaNaNaNaNaNaNaNaNag122
aNaNaNaNag121
aNaNaI11
tp3867
a((lp3868
g3
(g4
g5
NtRp3869
(dp3870
g8
V LEACH GRADUATED FROM LEESVILLE HIGH SCHOOL IN 1951 .
p3871
sg10
VROOT
p3872
sg12
Nsg13
Nsbag3
(g4
g5
NtRp3873
(dp3874
g8
V LEACH GRADUATED FROM LEESVILLE HIGH SCHOOL IN 1951 .
p3875
sg10
VS
sg12
I0
sg13
Nsbag3
(g4
g5
NtRp3876
(dp3877
g8
VLEACH
p3878
sg10
VNP
p3879
sg12
I1
sg13
Nsbag3
(g4
g5
NtRp3880
(dp3881
g8
g3878
sg10
VNNP
p3882
sg12
I2
sg13
Nsbag3
(g4
g5
NtRp3883
(dp3884
g8
S'GRADUATE'
p3885
sg10
VVP
p3886
sg12
I1
sg13
Nsbag3
(g4
g5
NtRp3887
(dp3888
g8
g3885
sg10
VVBD
p3889
sg12
I4
sg13
VGRADUATED
p3890
sbag3
(g4
g5
NtRp3891
(dp3892
g8
S'FROM'
p3893
sg10
VPP
p3894
sg12
I4
sg13
Nsbag3
(g4
g5
NtRp3895
(dp3896
g8
g3893
sg10
VIN
p3897
sg12
I6
sg13
VFROM
p3898
sbag3
(g4
g5
NtRp3899
(dp3900
g8
S'LEESVILLE'
p3901
sg10
VNP
p3902
sg12
I6
sg13
Nsbag3
(g4
g5
NtRp3903
(dp3904
g8
g3901
sg10
VNP
p3905
sg12
I8
sg13
Nsbag3
(g4
g5
NtRp3906
(dp3907
g8
g3901
sg10
VNNP
p3908
sg12
I9
sg13
VLEESVILLE
p3909
sbag3
(g4
g5
NtRp3910
(dp3911
g8
S'HIGH'
p3912
sg10
VNNP
p3913
sg12
I9
sg13
VHIGH
p3914
sbag3
(g4
g5
NtRp3915
(dp3916
g8
S'SCHOOL'
p3917
sg10
VNNP
p3918
sg12
I9
sg13
VSCHOOL
p3919
sbag3
(g4
g5
NtRp3920
(dp3921
g8
S'IN'
p3922
sg10
VPP
p3923
sg12
I8
sg13
Nsbag3
(g4
g5
NtRp3924
(dp3925
g8
g3922
sg10
VIN
p3926
sg12
I13
sg13
VIN
p3927
sbag3
(g4
g5
NtRp3928
(dp3929
g8
S'1951'
p3930
sg10
VNP
p3931
sg12
I13
sg13
V1951
p3932
sbag3
(g4
g5
NtRp3933
(dp3934
g8
g3930
sg10
VCD
p3935
sg12
I15
sg13
V1951
p3936
sbag3
(g4
g5
NtRp3937
(dp3938
g8
S'.'
sg10
V.
sg12
I1
sg13
V.
sba(lp3939
(lp3940
I1
aa(lp3941
I2
aI4
aI17
aa(lp3942
I3
aa(lp3943
a(lp3944
I5
aI6
aa(lp3945
a(lp3946
I7
aI8
aa(lp3947
a(lp3948
I9
aI13
aa(lp3949
I10
aI11
aI12
aa(lp3950
a(lp3951
a(lp3952
a(lp3953
I14
aI15
aa(lp3954
a(lp3955
I16
aa(lp3956
a(lp3957
a(lp3958
NaNag121
aNaNaNaNaNaNaNag122
aNaNaNaNaNaNaNaI1
tp3959
a(g3868
g3939
(lp3960
NaNaNaNaNaNaNaNag121
aNag122
aNaNaNaNaNaNaNaI8
tp3961
a(g3868
g3939
(lp3962
NaNaNaNaNaNaNaNaNaNag122
aNaNaNaNag121
aNaNaI8
tp3963
a((lp3964
g3
(g4
g5
NtRp3965
(dp3966
g8
V THOMAS WATSON WAS EDUCATED AT WINCHESTER COLLEGE AND OXFORD UNIVERSITY .
p3967
sg10
VROOT
p3968
sg12
Nsg13
Nsbag3
(g4
g5
NtRp3969
(dp3970
g8
V THOMAS WATSON WAS EDUCATED AT WINCHESTER COLLEGE AND OXFORD UNIVERSITY .
p3971
sg10
VS
sg12
I0
sg13
Nsbag3
(g4
g5
NtRp3972
(dp3973
g8
VTHOMAS
p3974
sg10
VNP
p3975
sg12
I1
sg13
Nsbag3
(g4
g5
NtRp3976
(dp3977
g8
g3974
sg10
VNNP
p3978
sg12
I2
sg13
Nsbag3
(g4
g5
NtRp3979
(dp3980
g8
S'WATSON'
p3981
sg10
VNNP
p3982
sg12
I2
sg13
VWATSON
p3983
sbag3
(g4
g5
NtRp3984
(dp3985
g8
S'BE'
p3986
sg10
VVP
p3987
sg12
I1
sg13
Nsbag3
(g4
g5
NtRp3988
(dp3989
g8
g3986
sg10
VVBD
p3990
sg12
I5
sg13
VWAS
p3991
sbag3
(g4
g5
NtRp3992
(dp3993
g8
S'EDUCATE'
p3994
sg10
VVP
p3995
sg12
I5
sg13
Nsbag3
(g4
g5
NtRp3996
(dp3997
g8
g3994
sg10
VVBN
p3998
sg12
I7
sg13
VEDUCATED
p3999
sbag3
(g4
g5
NtRp4000
(dp4001
g8
S'AT'
p4002
sg10
VPP
p4003
sg12
I7
sg13
Nsbag3
(g4
g5
NtRp4004
(dp4005
g8
g4002
sg10
VIN
p4006
sg12
I9
sg13
VAT
p4007
sbag3
(g4
g5
NtRp4008
(dp4009
g8
S'WINCHESTER'
p4010
sg10
VNP
p4011
sg12
I9
sg13
Nsbag3
(g4
g5
NtRp4012
(dp4013
g8
g4010
sg10
VNP
p4014
sg12
I11
sg13
Nsbag3
(g4
g5
NtRp4015
(dp4016
g8
g4010
sg10
VNNP
p4017
sg12
I12
sg13
VWINCHESTER
p4018
sbag3
(g4
g5
NtRp4019
(dp4020
g8
S'COLLEGE'
p4021
sg10
VNNP
p4022
sg12
I12
sg13
VCOLLEGE
p4023
sbag3
(g4
g5
NtRp4024
(dp4025
g8
S'AND'
p4026
sg10
VCC
p4027
sg12
I11
sg13
VAND
p4028
sbag3
(g4
g5
NtRp4029
(dp4030
g8
S'OXFORD'
p4031
sg10
VNP
p4032
sg12
I11
sg13
Nsbag3
(g4
g5
NtRp4033
(dp4034
g8
g4031
sg10
VNNP
p4035
sg12
I16
sg13
VOXFORD
p4036
sbag3
(g4
g5
NtRp4037
(dp4038
g8
S'UNIVERSITY'
p4039
sg10
VNNP
p4040
sg12
I16
sg13
VUNIVERSITY
p4041
sbag3
(g4
g5
NtRp4042
(dp4043
g8
S'.'
sg10
V.
sg12
I1
sg13
V.
sba(lp4044
(lp4045
I1
aa(lp4046
I2
aI5
aI19
aa(lp4047
I3
aI4
aa(lp4048
a(lp4049
a(lp4050
I6
aI7
aa(lp4051
a(lp4052
I8
aI9
aa(lp4053
a(lp4054
I10
aI11
aa(lp4055
a(lp4056
I12
aI15
aI16
aa(lp4057
I13
aI14
aa(lp4058
a(lp4059
a(lp4060
a(lp4061
I17
aI18
aa(lp4062
a(lp4063
a(lp4064
a(lp4065
NaNag121
aNaNaNaNaNaNaNaNaNaNag122
aNaNaNaNaNaNaI1
tp4066
a(g3964
g4044
(lp4067
NaNaNaNaNaNaNaNaNaNaNag121
aNag122
aNaNaNaNaNaNaI11
tp4068
a(g3964
g4044
(lp4069
NaNag121
aNaNaNaNaNaNaNaNaNaNaNaNaNaNag122
aNaNaI1
tp4070
a(g3964
g4044
(lp4071
NaNaNaNaNaNaNaNaNaNaNag121
aNaNaNaNaNag122
aNaNaI11
tp4072
a((lp4073
g3
(g4
g5
NtRp4074
(dp4075
g8
V AMOS K. HADLEY GRADUATED FROM HAMILTON COLLEGE .
p4076
sg10
VROOT
p4077
sg12
Nsg13
Nsbag3
(g4
g5
NtRp4078
(dp4079
g8
V AMOS K. HADLEY GRADUATED FROM HAMILTON COLLEGE .
p4080
sg10
VS
sg12
I0
sg13
Nsbag3
(g4
g5
NtRp4081
(dp4082
g8
VAMOS
p4083
sg10
VNP
p4084
sg12
I1
sg13
Nsbag3
(g4
g5
NtRp4085
(dp4086
g8
g4083
sg10
VNNP
p4087
sg12
I2
sg13
Nsbag3
(g4
g5
NtRp4088
(dp4089
g8
S'K.'
p4090
sg10
VNNP
p4091
sg12
I2
sg13
VK.
p4092
sbag3
(g4
g5
NtRp4093
(dp4094
g8
S'HADLEY'
p4095
sg10
VNNP
p4096
sg12
I2
sg13
VHADLEY
p4097
sbag3
(g4
g5
NtRp4098
(dp4099
g8
S'GRADUATE'
p4100
sg10
VVP
p4101
sg12
I1
sg13
Nsbag3
(g4
g5
NtRp4102
(dp4103
g8
g4100
sg10
VVBD
p4104
sg12
I6
sg13
VGRADUATED
p4105
sbag3
(g4
g5
NtRp4106
(dp4107
g8
S'FROM'
p4108
sg10
VPP
p4109
sg12
I6
sg13
Nsbag3
(g4
g5
NtRp4110
(dp4111
g8
g4108
sg10
VIN
p4112
sg12
I8
sg13
VFROM
p4113
sbag3
(g4
g5
NtRp4114
(dp4115
g8
S'HAMILTON'
p4116
sg10
VNP
p4117
sg12
I8
sg13
Nsbag3
(g4
g5
NtRp4118
(dp4119
g8
g4116
sg10
VNNP
p4120
sg12
I10
sg13
VHAMILTON
p4121
sbag3
(g4
g5
NtRp4122
(dp4123
g8
S'COLLEGE'
p4124
sg10
VNNP
p4125
sg12
I10
sg13
VCOLLEGE
p4126
sbag3
(g4
g5
NtRp4127
(dp4128
g8
S'.'
sg10
V.
sg12
I1
sg13
V.
sba(lp4129
(lp4130
I1
aa(lp4131
I2
aI6
aI13
aa(lp4132
I3
aI4
aI5
aa(lp4133
a(lp4134
a(lp4135
a(lp4136
I7
aI8
aa(lp4137
a(lp4138
I9
aI10
aa(lp4139
a(lp4140
I11
aI12
aa(lp4141
a(lp4142
a(lp4143
a(lp4144
NaNag121
aNaNaNaNaNaNaNaNag122
aNaNaI1
tp4145
a((lp4146
g3
(g4
g5
NtRp4147
(dp4148
g8
V YU RECEIVED HIS PH.D. FROM PRINCETON UNIVERSITY 'S DEPARTMENT OF RELIGION IN 2008 .
p4149
sg10
VROOT
p4150
sg12
Nsg13
Nsbag3
(g4
g5
NtRp4151
(dp4152
g8
V YU RECEIVED HIS PH.D. FROM PRINCETON UNIVERSITY 'S DEPARTMENT OF RELIGION IN 2008 .
p4153
sg10
VS
sg12
I0
sg13
Nsbag3
(g4
g5
NtRp4154
(dp4155
g8
VYU
p4156
sg10
VNP
p4157
sg12
I1
sg13
Nsbag3
(g4
g5
NtRp4158
(dp4159
g8
g4156
sg10
VNNP
p4160
sg12
I2
sg13
Nsbag3
(g4
g5
NtRp4161
(dp4162
g8
S'RECEIVE'
p4163
sg10
VVP
p4164
sg12
I1
sg13
Nsbag3
(g4
g5
NtRp4165
(dp4166
g8
g4163
sg10
VVBD
p4167
sg12
I4
sg13
VRECEIVED
p4168
sbag3
(g4
g5
NtRp4169
(dp4170
g8
S'PH.D.'
p4171
sg10
VNP
p4172
sg12
I4
sg13
Nsbag3
(g4
g5
NtRp4173
(dp4174
g8
S'HE'
p4175
sg10
VPRP$
p4176
sg12
I6
sg13
VHIS
p4177
sbag3
(g4
g5
NtRp4178
(dp4179
g8
g4171
sg10
VNN
p4180
sg12
I6
sg13
VPH.D.
p4181
sbag3
(g4
g5
NtRp4182
(dp4183
g8
S'FROM'
p4184
sg10
VPP
p4185
sg12
I4
sg13
Nsbag3
(g4
g5
NtRp4186
(dp4187
g8
g4184
sg10
VIN
p4188
sg12
I9
sg13
VFROM
p4189
sbag3
(g4
g5
NtRp4190
(dp4191
g8
S'PRINCETON'
p4192
sg10
VNP
p4193
sg12
I9
sg13
Nsbag3
(g4
g5
NtRp4194
(dp4195
g8
g4192
sg10
VNP
p4196
sg12
I11
sg13
Nsbag3
(g4
g5
NtRp4197
(dp4198
g8
g4192
sg10
VNP
p4199
sg12
I12
sg13
Nsbag3
(g4
g5
NtRp4200
(dp4201
g8
g4192
sg10
VNNP
p4202
sg12
I13
sg13
VPRINCETON
p4203
sbag3
(g4
g5
NtRp4204
(dp4205
g8
S'UNIVERSITY'
p4206
sg10
VNNP
p4207
sg12
I13
sg13
VUNIVERSITY
p4208
sbag3
(g4
g5
NtRp4209
(dp4210
g8
S"'S"
p4211
sg10
VPOS
p4212
sg12
I13
sg13
V'S
p4213
sbag3
(g4
g5
NtRp4214
(dp4215
g8
S'DEPARTMENT'
p4216
sg10
VNNP
p4217
sg12
I12
sg13
VDEPARTMENT
p4218
sbag3
(g4
g5
NtRp4219
(dp4220
g8
S'OF'
p4221
sg10
VPP
p4222
sg12
I11
sg13
Nsbag3
(g4
g5
NtRp4223
(dp4224
g8
g4221
sg10
VIN
p4225
sg12
I18
sg13
VOF
p4226
sbag3
(g4
g5
NtRp4227
(dp4228
g8
S'RELIGION'
p4229
sg10
VNP
p4230
sg12
I18
sg13
VRELIGION
p4231
sbag3
(g4
g5
NtRp4232
(dp4233
g8
g4229
sg10
VNNP
p4234
sg12
I20
sg13
VRELIGION
p4235
sbag3
(g4
g5
NtRp4236
(dp4237
g8
S'IN'
p4238
sg10
VPP
p4239
sg12
I4
sg13
Nsbag3
(g4
g5
NtRp4240
(dp4241
g8
g4238
sg10
VIN
p4242
sg12
I22
sg13
VIN
p4243
sbag3
(g4
g5
NtRp4244
(dp4245
g8
S'2008'
p4246
sg10
VNP
p4247
sg12
I22
sg13
V2008
p4248
sbag3
(g4
g5
NtRp4249
(dp4250
g8
g4246
sg10
VCD
p4251
sg12
I24
sg13
V2008
p4252
sbag3
(g4
g5
NtRp4253
(dp4254
g8
S'.'
sg10
V.
sg12
I1
sg13
V.
sba(lp4255
(lp4256
I1
aa(lp4257
I2
aI4
aI26
aa(lp4258
I3
aa(lp4259
a(lp4260
I5
aI6
aI9
aI22
aa(lp4261
a(lp4262
I7
aI8
aa(lp4263
a(lp4264
a(lp4265
I10
aI11
aa(lp4266
a(lp4267
I12
aI18
aa(lp4268
I13
aI17
aa(lp4269
I14
aI15
aI16
aa(lp4270
a(lp4271
a(lp4272
a(lp4273
a(lp4274
I19
aI20
aa(lp4275
a(lp4276
I21
aa(lp4277
a(lp4278
I23
aI24
aa(lp4279
a(lp4280
I25
aa(lp4281
a(lp4282
a(lp4283
NaNag121
aNaNaNaNaNaNaNaNaNaNaNag122
aNaNaNaNaNaNaNaNaNaNaNaNaI1
tp4284
a(g4146
g4255
(lp4285
NaNaNaNaNaNag121
aNaNaNaNaNaNaNag122
aNaNaNaNaNaNaNaNaNaNaNaNaI4
tp4286
a(g4146
g4255
(lp4287
NaNaNaNaNaNaNaNag121
aNaNaNaNaNag122
aNaNaNaNaNaNaNaNaNaNaNaNaI4
tp4288
a(g4146
g4255
(lp4289
NaNaNaNaNaNaNaNaNaNaNag121
aNaNag122
aNaNaNaNaNaNaNaNaNaNaNaNaI11
tp4290
a(g4146
g4255
(lp4291
NaNaNaNaNaNaNaNaNaNaNaNaNaNag122
aNaNaNaNaNaNaNaNaNag121
aNaNaI4
tp4292
a((lp4293
g3
(g4
g5
NtRp4294
(dp4295
g8
V HUGH BARKER WAS EDUCATED AT NEW COLLEGE , OXFORD .
p4296
sg10
VROOT
p4297
sg12
Nsg13
Nsbag3
(g4
g5
NtRp4298
(dp4299
g8
V HUGH BARKER WAS EDUCATED AT NEW COLLEGE , OXFORD .
p4300
sg10
VS
sg12
I0
sg13
Nsbag3
(g4
g5
NtRp4301
(dp4302
g8
VHUGH
p4303
sg10
VNP
p4304
sg12
I1
sg13
Nsbag3
(g4
g5
NtRp4305
(dp4306
g8
g4303
sg10
VNNP
p4307
sg12
I2
sg13
Nsbag3
(g4
g5
NtRp4308
(dp4309
g8
S'BARKER'
p4310
sg10
VNNP
p4311
sg12
I2
sg13
VBARKER
p4312
sbag3
(g4
g5
NtRp4313
(dp4314
g8
S'BE'
p4315
sg10
VVP
p4316
sg12
I1
sg13
Nsbag3
(g4
g5
NtRp4317
(dp4318
g8
g4315
sg10
VVBD
p4319
sg12
I5
sg13
VWAS
p4320
sbag3
(g4
g5
NtRp4321
(dp4322
g8
S'EDUCATE'
p4323
sg10
VVP
p4324
sg12
I5
sg13
Nsbag3
(g4
g5
NtRp4325
(dp4326
g8
g4323
sg10
VVBN
p4327
sg12
I7
sg13
VEDUCATED
p4328
sbag3
(g4
g5
NtRp4329
(dp4330
g8
S'AT'
p4331
sg10
VPP
p4332
sg12
I7
sg13
Nsbag3
(g4
g5
NtRp4333
(dp4334
g8
g4331
sg10
VIN
p4335
sg12
I9
sg13
VAT
p4336
sbag3
(g4
g5
NtRp4337
(dp4338
g8
S'NEW'
p4339
sg10
VNP
p4340
sg12
I9
sg13
Nsbag3
(g4
g5
NtRp4341
(dp4342
g8
g4339
sg10
VNP
p4343
sg12
I11
sg13
Nsbag3
(g4
g5
NtRp4344
(dp4345
g8
g4339
sg10
VNNP
p4346
sg12
I12
sg13
VNEW
p4347
sbag3
(g4
g5
NtRp4348
(dp4349
g8
S'COLLEGE'
p4350
sg10
VNNP
p4351
sg12
I12
sg13
VCOLLEGE
p4352
sbag3
(g4
g5
NtRp4353
(dp4354
g8
S','
sg10
V,
sg12
I11
sg13
V,
sbag3
(g4
g5
NtRp4355
(dp4356
g8
S'OXFORD'
p4357
sg10
VNP
p4358
sg12
I11
sg13
VOXFORD
p4359
sbag3
(g4
g5
NtRp4360
(dp4361
g8
g4357
sg10
VNNP
p4362
sg12
I16
sg13
VOXFORD
p4363
sbag3
(g4
g5
NtRp4364
(dp4365
g8
S'.'
sg10
V.
sg12
I1
sg13
V.
sba(lp4366
(lp4367
I1
aa(lp4368
I2
aI5
aI18
aa(lp4369
I3
aI4
aa(lp4370
a(lp4371
a(lp4372
I6
aI7
aa(lp4373
a(lp4374
I8
aI9
aa(lp4375
a(lp4376
I10
aI11
aa(lp4377
a(lp4378
I12
aI15
aI16
aa(lp4379
I13
aI14
aa(lp4380
a(lp4381
a(lp4382
a(lp4383
I17
aa(lp4384
a(lp4385
a(lp4386
NaNag121
aNaNaNaNaNaNaNaNaNaNag122
aNaNaNaNaNaI1
tp4387
a(g4293
g4366
(lp4388
NaNaNaNaNaNaNaNaNaNaNag121
aNag122
aNaNaNaNaNaI11
tp4389
a(g4293
g4366
(lp4390
NaNaNaNaNaNaNaNaNaNaNaNaNag122
aNaNag121
aNaNaI11
tp4391
a((lp4392
g3
(g4
g5
NtRp4393
(dp4394
g8
V IAN ATTENDED BURLINGTON CENTRAL HIGH SCHOOL FROM 1968 TO 1971 .
p4395
sg10
VROOT
p4396
sg12
Nsg13
Nsbag3
(g4
g5
NtRp4397
(dp4398
g8
V IAN ATTENDED BURLINGTON CENTRAL HIGH SCHOOL FROM 1968 TO 1971 .
p4399
sg10
VS
sg12
I0
sg13
Nsbag3
(g4
g5
NtRp4400
(dp4401
g8
VIAN
p4402
sg10
VNP
p4403
sg12
I1
sg13
Nsbag3
(g4
g5
NtRp4404
(dp4405
g8
g4402
sg10
VNNP
p4406
sg12
I2
sg13
Nsbag3
(g4
g5
NtRp4407
(dp4408
g8
S'ATTEND'
p4409
sg10
VVP
p4410
sg12
I1
sg13
Nsbag3
(g4
g5
NtRp4411
(dp4412
g8
g4409
sg10
VVBD
p4413
sg12
I4
sg13
VATTENDED
p4414
sbag3
(g4
g5
NtRp4415
(dp4416
g8
S'BURLINGTON'
p4417
sg10
VNP
p4418
sg12
I4
sg13
Nsbag3
(g4
g5
NtRp4419
(dp4420
g8
g4417
sg10
VNNP
p4421
sg12
I6
sg13
VBURLINGTON
p4422
sbag3
(g4
g5
NtRp4423
(dp4424
g8
S'CENTRAL'
p4425
sg10
VNNP
p4426
sg12
I6
sg13
VCENTRAL
p4427
sbag3
(g4
g5
NtRp4428
(dp4429
g8
S'HIGH'
p4430
sg10
VNNP
p4431
sg12
I6
sg13
VHIGH
p4432
sbag3
(g4
g5
NtRp4433
(dp4434
g8
S'SCHOOL'
p4435
sg10
VNNP
p4436
sg12
I6
sg13
VSCHOOL
p4437
sbag3
(g4
g5
NtRp4438
(dp4439
g8
S'FROM'
p4440
sg10
VPP
p4441
sg12
I4
sg13
Nsbag3
(g4
g5
NtRp4442
(dp4443
g8
g4440
sg10
VIN
p4444
sg12
I11
sg13
VFROM
p4445
sbag3
(g4
g5
NtRp4446
(dp4447
g8
S'1968'
p4448
sg10
VNP
p4449
sg12
I11
sg13
V1968
p4450
sbag3
(g4
g5
NtRp4451
(dp4452
g8
g4448
sg10
VCD
p4453
sg12
I13
sg13
V1968
p4454
sbag3
(g4
g5
NtRp4455
(dp4456
g8
S'TO'
p4457
sg10
VPP
p4458
sg12
I4
sg13
Nsbag3
(g4
g5
NtRp4459
(dp4460
g8
g4457
sg10
VTO
p4461
sg12
I15
sg13
VTO
p4462
sbag3
(g4
g5
NtRp4463
(dp4464
g8
S'1971'
p4465
sg10
VNP
p4466
sg12
I15
sg13
V1971
p4467
sbag3
(g4
g5
NtRp4468
(dp4469
g8
g4465
sg10
VCD
p4470
sg12
I17
sg13
V1971
p4471
sbag3
(g4
g5
NtRp4472
(dp4473
g8
S'.'
sg10
V.
sg12
I1
sg13
V.
sba(lp4474
(lp4475
I1
aa(lp4476
I2
aI4
aI19
aa(lp4477
I3
aa(lp4478
a(lp4479
I5
aI6
aI11
aI15
aa(lp4480
a(lp4481
I7
aI8
aI9
aI10
aa(lp4482
a(lp4483
a(lp4484
a(lp4485
a(lp4486
I12
aI13
aa(lp4487
a(lp4488
I14
aa(lp4489
a(lp4490
I16
aI17
aa(lp4491
a(lp4492
I18
aa(lp4493
a(lp4494
a(lp4495
NaNag121
aNaNaNaNag122
aNaNaNaNaNaNaNaNaNaNaNaNaI1
tp4496
a(g4392
g4474
(lp4497
NaNaNaNaNaNaNag122
aNaNaNaNaNag121
aNaNaNaNaNaNaI4
tp4498
a(g4392
g4474
(lp4499
NaNaNaNaNaNaNag122
aNaNaNaNaNaNaNaNaNag121
aNaNaI4
tp4500
a((lp4501
g3
(g4
g5
NtRp4502
(dp4503
g8
V LARRY HART ALSO PLAYED AT HOLMES COMMUNITY COLLEGE .
p4504
sg10
VROOT
p4505
sg12
Nsg13
Nsbag3
(g4
g5
NtRp4506
(dp4507
g8
V LARRY HART ALSO PLAYED AT HOLMES COMMUNITY COLLEGE .
p4508
sg10
VS
sg12
I0
sg13
Nsbag3
(g4
g5
NtRp4509
(dp4510
g8
VLARRY
p4511
sg10
VNP
p4512
sg12
I1
sg13
Nsbag3
(g4
g5
NtRp4513
(dp4514
g8
g4511
sg10
VNNP
p4515
sg12
I2
sg13
Nsbag3
(g4
g5
NtRp4516
(dp4517
g8
S'HART'
p4518
sg10
VNNP
p4519
sg12
I2
sg13
VHART
p4520
sbag3
(g4
g5
NtRp4521
(dp4522
g8
S'ALSO'
p4523
sg10
VADVP
p4524
sg12
I1
sg13
VALSO
p4525
sbag3
(g4
g5
NtRp4526
(dp4527
g8
g4523
sg10
VRB
p4528
sg12
I5
sg13
VALSO
p4529
sbag3
(g4
g5
NtRp4530
(dp4531
g8
S'PLAY'
p4532
sg10
VVP
p4533
sg12
I1
sg13
Nsbag3
(g4
g5
NtRp4534
(dp4535
g8
g4532
sg10
VVBD
p4536
sg12
I7
sg13
VPLAYED
p4537
sbag3
(g4
g5
NtRp4538
(dp4539
g8
S'AT'
p4540
sg10
VPP
p4541
sg12
I7
sg13
Nsbag3
(g4
g5
NtRp4542
(dp4543
g8
g4540
sg10
VIN
p4544
sg12
I9
sg13
VAT
p4545
sbag3
(g4
g5
NtRp4546
(dp4547
g8
S'HOLMES'
p4548
sg10
VNP
p4549
sg12
I9
sg13
Nsbag3
(g4
g5
NtRp4550
(dp4551
g8
g4548
sg10
VNNP
p4552
sg12
I11
sg13
VHOLMES
p4553
sbag3
(g4
g5
NtRp4554
(dp4555
g8
S'COMMUNITY'
p4556
sg10
VNNP
p4557
sg12
I11
sg13
VCOMMUNITY
p4558
sbag3
(g4
g5
NtRp4559
(dp4560
g8
S'COLLEGE'
p4561
sg10
VNNP
p4562
sg12
I11
sg13
VCOLLEGE
p4563
sbag3
(g4
g5
NtRp4564
(dp4565
g8
S'.'
sg10
V.
sg12
I1
sg13
V.
sba(lp4566
(lp4567
I1
aa(lp4568
I2
aI5
aI7
aI15
aa(lp4569
I3
aI4
aa(lp4570
a(lp4571
a(lp4572
I6
aa(lp4573
a(lp4574
I8
aI9
aa(lp4575
a(lp4576
I10
aI11
aa(lp4577
a(lp4578
I12
aI13
aI14
aa(lp4579
a(lp4580
a(lp4581
a(lp4582
a(lp4583
NaNag121
aNaNaNaNaNaNaNaNaNag122
aNaNaNaI1
tp4584
a((lp4585
g3
(g4
g5
NtRp4586
(dp4587
g8
V ABEL BUCKLEY WAS EDUCATED AT MILL HILL SCHOOL AND OWEN 'S COLLEGE .
p4588
sg10
VROOT
p4589
sg12
Nsg13
Nsbag3
(g4
g5
NtRp4590
(dp4591
g8
V ABEL BUCKLEY WAS EDUCATED AT MILL HILL SCHOOL AND OWEN 'S COLLEGE .
p4592
sg10
VS
sg12
I0
sg13
Nsbag3
(g4
g5
NtRp4593
(dp4594
g8
VABEL
p4595
sg10
VNP
p4596
sg12
I1
sg13
Nsbag3
(g4
g5
NtRp4597
(dp4598
g8
g4595
sg10
VNNP
p4599
sg12
I2
sg13
Nsbag3
(g4
g5
NtRp4600
(dp4601
g8
S'BUCKLEY'
p4602
sg10
VNNP
p4603
sg12
I2
sg13
VBUCKLEY
p4604
sbag3
(g4
g5
NtRp4605
(dp4606
g8
S'BE'
p4607
sg10
VVP
p4608
sg12
I1
sg13
Nsbag3
(g4
g5
NtRp4609
(dp4610
g8
g4607
sg10
VVBD
p4611
sg12
I5
sg13
VWAS
p4612
sbag3
(g4
g5
NtRp4613
(dp4614
g8
S'EDUCATE'
p4615
sg10
VVP
p4616
sg12
I5
sg13
Nsbag3
(g4
g5
NtRp4617
(dp4618
g8
g4615
sg10
VVBN
p4619
sg12
I7
sg13
VEDUCATED
p4620
sbag3
(g4
g5
NtRp4621
(dp4622
g8
S'AT'
p4623
sg10
VPP
p4624
sg12
I7
sg13
Nsbag3
(g4
g5
NtRp4625
(dp4626
g8
g4623
sg10
VIN
p4627
sg12
I9
sg13
VAT
p4628
sbag3
(g4
g5
NtRp4629
(dp4630
g8
S'MILL'
p4631
sg10
VNP
p4632
sg12
I9
sg13
Nsbag3
(g4
g5
NtRp4633
(dp4634
g8
g4631
sg10
VNP
p4635
sg12
I11
sg13
Nsbag3
(g4
g5
NtRp4636
(dp4637
g8
g4631
sg10
VNNP
p4638
sg12
I12
sg13
VMILL
p4639
sbag3
(g4
g5
NtRp4640
(dp4641
g8
S'HILL'
p4642
sg10
VNNP
p4643
sg12
I12
sg13
VHILL
p4644
sbag3
(g4
g5
NtRp4645
(dp4646
g8
S'SCHOOL'
p4647
sg10
VNNP
p4648
sg12
I12
sg13
VSCHOOL
p4649
sbag3
(g4
g5
NtRp4650
(dp4651
g8
S'AND'
p4652
sg10
VCC
p4653
sg12
I11
sg13
VAND
p4654
sbag3
(g4
g5
NtRp4655
(dp4656
g8
S'OWEN'
p4657
sg10
VNP
p4658
sg12
I11
sg13
Nsbag3
(g4
g5
NtRp4659
(dp4660
g8
g4657
sg10
VNP
p4661
sg12
I17
sg13
Nsbag3
(g4
g5
NtRp4662
(dp4663
g8
g4657
sg10
VNNP
p4664
sg12
I18
sg13
VOWEN
p4665
sbag3
(g4
g5
NtRp4666
(dp4667
g8
S"'S"
p4668
sg10
VPOS
p4669
sg12
I18
sg13
V'S
p4670
sbag3
(g4
g5
NtRp4671
(dp4672
g8
S'COLLEGE'
p4673
sg10
VNNP
p4674
sg12
I17
sg13
VCOLLEGE
p4675
sbag3
(g4
g5
NtRp4676
(dp4677
g8
S'.'
sg10
V.
sg12
I1
sg13
V.
sba(lp4678
(lp4679
I1
aa(lp4680
I2
aI5
aI22
aa(lp4681
I3
aI4
aa(lp4682
a(lp4683
a(lp4684
I6
aI7
aa(lp4685
a(lp4686
I8
aI9
aa(lp4687
a(lp4688
I10
aI11
aa(lp4689
a(lp4690
I12
aI16
aI17
aa(lp4691
I13
aI14
aI15
aa(lp4692
a(lp4693
a(lp4694
a(lp4695
a(lp4696
I18
aI21
aa(lp4697
I19
aI20
aa(lp4698
a(lp4699
a(lp4700
a(lp4701
a(lp4702
NaNag121
aNaNaNaNaNaNaNaNaNaNag122
aNaNaNaNaNaNaNaNaNaI1
tp4703
a(g4585
g4678
(lp4704
NaNaNaNaNaNaNaNaNaNaNag121
aNag122
aNaNaNaNaNaNaNaNaNaI11
tp4705
a(g4585
g4678
(lp4706
NaNag121
aNaNaNaNaNaNaNaNaNaNaNaNaNaNaNaNag122
aNaNaNaI1
tp4707
a(g4585
g4678
(lp4708
NaNaNaNaNaNaNaNaNaNaNag121
aNaNaNaNaNaNaNag122
aNaNaNaI11
tp4709
a((lp4710
g3
(g4
g5
NtRp4711
(dp4712
g8
V WILLIAM MILLER ATTENDED LOUISIANA COLLEGE .
p4713
sg10
VROOT
p4714
sg12
Nsg13
Nsbag3
(g4
g5
NtRp4715
(dp4716
g8
V WILLIAM MILLER ATTENDED LOUISIANA COLLEGE .
p4717
sg10
VS
sg12
I0
sg13
Nsbag3
(g4
g5
NtRp4718
(dp4719
g8
VWILLIAM
p4720
sg10
VNP
p4721
sg12
I1
sg13
Nsbag3
(g4
g5
NtRp4722
(dp4723
g8
g4720
sg10
VNNP
p4724
sg12
I2
sg13
Nsbag3
(g4
g5
NtRp4725
(dp4726
g8
S'MILLER'
p4727
sg10
VNNP
p4728
sg12
I2
sg13
VMILLER
p4729
sbag3
(g4
g5
NtRp4730
(dp4731
g8
S'ATTEND'
p4732
sg10
VVP
p4733
sg12
I1
sg13
Nsbag3
(g4
g5
NtRp4734
(dp4735
g8
g4732
sg10
VVBD
p4736
sg12
I5
sg13
VATTENDED
p4737
sbag3
(g4
g5
NtRp4738
(dp4739
g8
S'LOUISIANA'
p4740
sg10
VNP
p4741
sg12
I5
sg13
Nsbag3
(g4
g5
NtRp4742
(dp4743
g8
g4740
sg10
VNNP
p4744
sg12
I7
sg13
VLOUISIANA
p4745
sbag3
(g4
g5
NtRp4746
(dp4747
g8
S'COLLEGE'
p4748
sg10
VNNP
p4749
sg12
I7
sg13
VCOLLEGE
p4750
sbag3
(g4
g5
NtRp4751
(dp4752
g8
S'.'
sg10
V.
sg12
I1
sg13
V.
sba(lp4753
(lp4754
I1
aa(lp4755
I2
aI5
aI10
aa(lp4756
I3
aI4
aa(lp4757
a(lp4758
a(lp4759
I6
aI7
aa(lp4760
a(lp4761
I8
aI9
aa(lp4762
a(lp4763
a(lp4764
a(lp4765
NaNag121
aNaNaNaNaNag122
aNaNaI1
tp4766
a((lp4767
g3
(g4
g5
NtRp4768
(dp4769
g8
V JONATHAN EIG ATTENDED NORTHWESTERN UNIVERSITY 'S MEDILL SCHOOL OF JOURNALISM , GRADUATING IN 1986 .
p4770
sg10
VROOT
p4771
sg12
Nsg13
Nsbag3
(g4
g5
NtRp4772
(dp4773
g8
V JONATHAN EIG ATTENDED NORTHWESTERN UNIVERSITY 'S MEDILL SCHOOL OF JOURNALISM , GRADUATING IN 1986 .
p4774
sg10
VS
sg12
I0
sg13
Nsbag3
(g4
g5
NtRp4775
(dp4776
g8
VJONATHAN
p4777
sg10
VNP
p4778
sg12
I1
sg13
Nsbag3
(g4
g5
NtRp4779
(dp4780
g8
g4777
sg10
VNNP
p4781
sg12
I2
sg13
Nsbag3
(g4
g5
NtRp4782
(dp4783
g8
S'EIG'
p4784
sg10
VNNP
p4785
sg12
I2
sg13
VEIG
p4786
sbag3
(g4
g5
NtRp4787
(dp4788
g8
S'ATTEND'
p4789
sg10
VVP
p4790
sg12
I1
sg13
Nsbag3
(g4
g5
NtRp4791
(dp4792
g8
g4789
sg10
VVBD
p4793
sg12
I5
sg13
VATTENDED
p4794
sbag3
(g4
g5
NtRp4795
(dp4796
g8
S'NORTHWESTERN'
p4797
sg10
VNP
p4798
sg12
I5
sg13
Nsbag3
(g4
g5
NtRp4799
(dp4800
g8
g4797
sg10
VNP
p4801
sg12
I7
sg13
Nsbag3
(g4
g5
NtRp4802
(dp4803
g8
g4797
sg10
VNP
p4804
sg12
I8
sg13
Nsbag3
(g4
g5
NtRp4805
(dp4806
g8
g4797
sg10
VNNP
p4807
sg12
I9
sg13
VNORTHWESTERN
p4808
sbag3
(g4
g5
NtRp4809
(dp4810
g8
S'UNIVERSITY'
p4811
sg10
VNNP
p4812
sg12
I9
sg13
VUNIVERSITY
p4813
sbag3
(g4
g5
NtRp4814
(dp4815
g8
S"'S"
p4816
sg10
VPOS
p4817
sg12
I9
sg13
V'S
p4818
sbag3
(g4
g5
NtRp4819
(dp4820
g8
S'MEDILL'
p4821
sg10
VNNP
p4822
sg12
I8
sg13
VMEDILL
p4823
sbag3
(g4
g5
NtRp4824
(dp4825
g8
S'SCHOOL'
p4826
sg10
VNNP
p4827
sg12
I8
sg13
VSCHOOL
p4828
sbag3
(g4
g5
NtRp4829
(dp4830
g8
S'OF'
p4831
sg10
VPP
p4832
sg12
I7
sg13
Nsbag3
(g4
g5
NtRp4833
(dp4834
g8
g4831
sg10
VIN
p4835
sg12
I15
sg13
VOF
p4836
sbag3
(g4
g5
NtRp4837
(dp4838
g8
S'JOURNALISM'
p4839
sg10
VNP
p4840
sg12
I15
sg13
VJOURNALISM
p4841
sbag3
(g4
g5
NtRp4842
(dp4843
g8
g4839
sg10
VNNP
p4844
sg12
I17
sg13
VJOURNALISM
p4845
sbag3
(g4
g5
NtRp4846
(dp4847
g8
S','
sg10
V,
sg12
I5
sg13
V,
sbag3
(g4
g5
NtRp4848
(dp4849
g8
S'GRADUATE'
p4850
sg10
VS
sg12
I5
sg13
Nsbag3
(g4
g5
NtRp4851
(dp4852
g8
g4850
sg10
VVP
p4853
sg12
I20
sg13
Nsbag3
(g4
g5
NtRp4854
(dp4855
g8
g4850
sg10
VVBG
p4856
sg12
I21
sg13
VGRADUATING
p4857
sbag3
(g4
g5
NtRp4858
(dp4859
g8
S'IN'
p4860
sg10
VPP
p4861
sg12
I21
sg13
Nsbag3
(g4
g5
NtRp4862
(dp4863
g8
g4860
sg10
VIN
p4864
sg12
I23
sg13
VIN
p4865
sbag3
(g4
g5
NtRp4866
(dp4867
g8
S'1986'
p4868
sg10
VNP
p4869
sg12
I23
sg13
V1986
p4870
sbag3
(g4
g5
NtRp4871
(dp4872
g8
g4868
sg10
VCD
p4873
sg12
I25
sg13
V1986
p4874
sbag3
(g4
g5
NtRp4875
(dp4876
g8
S'.'
sg10
V.
sg12
I1
sg13
V.
sba(lp4877
(lp4878
I1
aa(lp4879
I2
aI5
aI27
aa(lp4880
I3
aI4
aa(lp4881
a(lp4882
a(lp4883
I6
aI7
aI19
aI20
aa(lp4884
a(lp4885
I8
aI15
aa(lp4886
I9
aI13
aI14
aa(lp4887
I10
aI11
aI12
aa(lp4888
a(lp4889
a(lp4890
a(lp4891
a(lp4892
a(lp4893
I16
aI17
aa(lp4894
a(lp4895
I18
aa(lp4896
a(lp4897
a(lp4898
I21
aa(lp4899
I22
aI23
aa(lp4900
a(lp4901
I24
aI25
aa(lp4902
a(lp4903
I26
aa(lp4904
a(lp4905
a(lp4906
NaNag121
aNaNaNaNaNaNaNag122
aNaNaNaNaNaNaNaNaNaNaNaNaNaNaNaNaNaI1
tp4907
a(g4767
g4877
(lp4908
NaNaNaNaNaNaNag121
aNaNag122
aNaNaNaNaNaNaNaNaNaNaNaNaNaNaNaNaNaI7
tp4909
a(g4767
g4877
(lp4910
NaNaNaNaNaNaNaNaNaNag122
aNaNaNaNaNaNaNaNaNaNaNaNaNaNag121
aNaNaI5
tp4911
a((lp4912
g3
(g4
g5
NtRp4913
(dp4914
g8
V MYKOLAS BIR\u017dI\u0160KA GRADUATED FROM LAW SCHOOL AT THE UNIVERSITY OF MOSCOW IN 1907 .
p4915
sg10
VROOT
p4916
sg12
Nsg13
Nsbag3
(g4
g5
NtRp4917
(dp4918
g8
V MYKOLAS BIR\u017dI\u0160KA GRADUATED FROM LAW SCHOOL AT THE UNIVERSITY OF MOSCOW IN 1907 .
p4919
sg10
VS
sg12
I0
sg13
Nsbag3
(g4
g5
NtRp4920
(dp4921
g8
VMYKOLAS
p4922
sg10
VNP
p4923
sg12
I1
sg13
Nsbag3
(g4
g5
NtRp4924
(dp4925
g8
g4922
sg10
VNNP
p4926
sg12
I2
sg13
Nsbag3
(g4
g5
NtRp4927
(dp4928
g8
VBIR\u017dI\u0160KA
p4929
sg10
VNNP
p4930
sg12
I2
sg13
Nsbag3
(g4
g5
NtRp4931
(dp4932
g8
S'GRADUATE'
p4933
sg10
VVP
p4934
sg12
I1
sg13
Nsbag3
(g4
g5
NtRp4935
(dp4936
g8
g4933
sg10
VVBD
p4937
sg12
I5
sg13
VGRADUATED
p4938
sbag3
(g4
g5
NtRp4939
(dp4940
g8
S'FROM'
p4941
sg10
VPP
p4942
sg12
I5
sg13
Nsbag3
(g4
g5
NtRp4943
(dp4944
g8
g4941
sg10
VIN
p4945
sg12
I7
sg13
VFROM
p4946
sbag3
(g4
g5
NtRp4947
(dp4948
g8
S'LAW'
p4949
sg10
VNP
p4950
sg12
I7
sg13
Nsbag3
(g4
g5
NtRp4951
(dp4952
g8
g4949
sg10
VNN
p4953
sg12
I9
sg13
VLAW
p4954
sbag3
(g4
g5
NtRp4955
(dp4956
g8
S'SCHOOL'
p4957
sg10
VNN
p4958
sg12
I9
sg13
VSCHOOL
p4959
sbag3
(g4
g5
NtRp4960
(dp4961
g8
S'AT'
p4962
sg10
VPP
p4963
sg12
I5
sg13
Nsbag3
(g4
g5
NtRp4964
(dp4965
g8
g4962
sg10
VIN
p4966
sg12
I12
sg13
VAT
p4967
sbag3
(g4
g5
NtRp4968
(dp4969
g8
S'UNIVERSITY'
p4970
sg10
VNP
p4971
sg12
I12
sg13
Nsbag3
(g4
g5
NtRp4972
(dp4973
g8
g4970
sg10
VNP
p4974
sg12
I14
sg13
Nsbag3
(g4
g5
NtRp4975
(dp4976
g8
S'THE'
p4977
sg10
VDT
p4978
sg12
I15
sg13
VTHE
p4979
sbag3
(g4
g5
NtRp4980
(dp4981
g8
g4970
sg10
VNNP
p4982
sg12
I15
sg13
VUNIVERSITY
p4983
sbag3
(g4
g5
NtRp4984
(dp4985
g8
S'OF'
p4986
sg10
VPP
p4987
sg12
I14
sg13
Nsbag3
(g4
g5
NtRp4988
(dp4989
g8
g4986
sg10
VIN
p4990
sg12
I18
sg13
VOF
p4991
sbag3
(g4
g5
NtRp4992
(dp4993
g8
S'MOSCOW'
p4994
sg10
VNP
p4995
sg12
I18
sg13
VMOSCOW
p4996
sbag3
(g4
g5
NtRp4997
(dp4998
g8
g4994
sg10
VNNP
p4999
sg12
I20
sg13
VMOSCOW
p5000
sbag3
(g4
g5
NtRp5001
(dp5002
g8
S'IN'
p5003
sg10
VPP
p5004
sg12
I5
sg13
Nsbag3
(g4
g5
NtRp5005
(dp5006
g8
g5003
sg10
VIN
p5007
sg12
I22
sg13
VIN
p5008
sbag3
(g4
g5
NtRp5009
(dp5010
g8
S'1907'
p5011
sg10
VNP
p5012
sg12
I22
sg13
V1907
p5013
sbag3
(g4
g5
NtRp5014
(dp5015
g8
g5011
sg10
VCD
p5016
sg12
I24
sg13
V1907
p5017
sbag3
(g4
g5
NtRp5018
(dp5019
g8
S'.'
sg10
V.
sg12
I1
sg13
V.
sba(lp5020
(lp5021
I1
aa(lp5022
I2
aI5
aI26
aa(lp5023
I3
aI4
aa(lp5024
a(lp5025
a(lp5026
I6
aI7
aI12
aI22
aa(lp5027
a(lp5028
I8
aI9
aa(lp5029
a(lp5030
I10
aI11
aa(lp5031
a(lp5032
a(lp5033
I13
aI14
aa(lp5034
a(lp5035
I15
aI18
aa(lp5036
I16
aI17
aa(lp5037
a(lp5038
a(lp5039
I19
aI20
aa(lp5040
a(lp5041
I21
aa(lp5042
a(lp5043
I23
aI24
aa(lp5044
a(lp5045
I25
aa(lp5046
a(lp5047
a(lp5048
NaNag121
aNaNaNaNaNaNaNaNaNaNaNaNaNaNag122
aNaNaNaNaNaNaNaNaNaI1
tp5049
a(g4912
g5020
(lp5050
NaNaNaNaNaNaNaNaNag121
aNaNaNaNaNaNaNag122
aNaNaNaNaNaNaNaNaNaI5
tp5051
a(g4912
g5020
(lp5052
NaNaNaNaNaNaNaNaNaNag121
aNaNaNaNaNaNag122
aNaNaNaNaNaNaNaNaNaI5
tp5053
a(g4912
g5020
(lp5054
NaNaNaNaNaNaNaNaNaNaNag121
aNaNaNaNaNag122
aNaNaNaNaNaNaNaNaNaI5
tp5055
a(g4912
g5020
(lp5056
NaNaNaNaNaNaNaNaNaNaNaNaNaNag121
aNaNag122
aNaNaNaNaNaNaNaNaNaI14
tp5057
a(g4912
g5020
(lp5058
NaNaNaNaNaNaNaNaNaNaNaNaNaNaNaNaNag122
aNaNaNaNaNaNag121
aNaNaI5
tp5059
a((lp5060
g3
(g4
g5
NtRp5061
(dp5062
g8
V WALKER ATTENDED AUSTIN HIGH SCHOOL IN AUSTIN , TEXAS , GRADUATING IN 1999 .
p5063
sg10
VROOT
p5064
sg12
Nsg13
Nsbag3
(g4
g5
NtRp5065
(dp5066
g8
V WALKER ATTENDED AUSTIN HIGH SCHOOL IN AUSTIN , TEXAS , GRADUATING IN 1999 .
p5067
sg10
VS
sg12
I0
sg13
Nsbag3
(g4
g5
NtRp5068
(dp5069
g8
VWALKER
p5070
sg10
VNP
p5071
sg12
I1
sg13
Nsbag3
(g4
g5
NtRp5072
(dp5073
g8
g5070
sg10
VNNP
p5074
sg12
I2
sg13
Nsbag3
(g4
g5
NtRp5075
(dp5076
g8
S'ATTEND'
p5077
sg10
VVP
p5078
sg12
I1
sg13
Nsbag3
(g4
g5
NtRp5079
(dp5080
g8
g5077
sg10
VVBD
p5081
sg12
I4
sg13
VATTENDED
p5082
sbag3
(g4
g5
NtRp5083
(dp5084
g8
S'AUSTIN'
p5085
sg10
VNP
p5086
sg12
I4
sg13
Nsbag3
(g4
g5
NtRp5087
(dp5088
g8
g5085
sg10
VNP
p5089
sg12
I6
sg13
Nsbag3
(g4
g5
NtRp5090
(dp5091
g8
g5085
sg10
VNNP
p5092
sg12
I7
sg13
VAUSTIN
p5093
sbag3
(g4
g5
NtRp5094
(dp5095
g8
S'HIGH'
p5096
sg10
VNNP
p5097
sg12
I7
sg13
VHIGH
p5098
sbag3
(g4
g5
NtRp5099
(dp5100
g8
S'SCHOOL'
p5101
sg10
VNNP
p5102
sg12
I7
sg13
VSCHOOL
p5103
sbag3
(g4
g5
NtRp5104
(dp5105
g8
S'IN'
p5106
sg10
VPP
p5107
sg12
I6
sg13
Nsbag3
(g4
g5
NtRp5108
(dp5109
g8
g5106
sg10
VIN
p5110
sg12
I11
sg13
VIN
p5111
sbag3
(g4
g5
NtRp5112
(dp5113
g8
g5085
sg10
VNP
p5114
sg12
I11
sg13
Nsbag3
(g4
g5
NtRp5115
(dp5116
g8
g5085
sg10
VNNP
p5117
sg12
I13
sg13
VAUSTIN
p5118
sbag3
(g4
g5
NtRp5119
(dp5120
g8
S','
sg10
V,
sg12
I13
sg13
V,
sbag3
(g4
g5
NtRp5121
(dp5122
g8
S'TEXAS'
p5123
sg10
VNNP
p5124
sg12
I13
sg13
VTEXAS
p5125
sbag3
(g4
g5
NtRp5126
(dp5127
g8
S','
sg10
V,
sg12
I4
sg13
V,
sbag3
(g4
g5
NtRp5128
(dp5129
g8
S'GRADUATE'
p5130
sg10
VS
sg12
I4
sg13
Nsbag3
(g4
g5
NtRp5131
(dp5132
g8
g5130
sg10
VVP
p5133
sg12
I18
sg13
Nsbag3
(g4
g5
NtRp5134
(dp5135
g8
g5130
sg10
VVBG
p5136
sg12
I19
sg13
VGRADUATING
p5137
sbag3
(g4
g5
NtRp5138
(dp5139
g8
g5106
sg10
VPP
p5140
sg12
I19
sg13
Nsbag3
(g4
g5
NtRp5141
(dp5142
g8
g5106
sg10
VIN
p5143
sg12
I21
sg13
VIN
p5144
sbag3
(g4
g5
NtRp5145
(dp5146
g8
S'1999'
p5147
sg10
VNP
p5148
sg12
I21
sg13
V1999
p5149
sbag3
(g4
g5
NtRp5150
(dp5151
g8
g5147
sg10
VCD
p5152
sg12
I23
sg13
V1999
p5153
sbag3
(g4
g5
NtRp5154
(dp5155
g8
S'.'
sg10
V.
sg12
I1
sg13
V.
sba(lp5156
(lp5157
I1
aa(lp5158
I2
aI4
aI25
aa(lp5159
I3
aa(lp5160
a(lp5161
I5
aI6
aI17
aI18
aa(lp5162
a(lp5163
I7
aI11
aa(lp5164
I8
aI9
aI10
aa(lp5165
a(lp5166
a(lp5167
a(lp5168
I12
aI13
aa(lp5169
a(lp5170
I14
aI15
aI16
aa(lp5171
a(lp5172
a(lp5173
a(lp5174
a(lp5175
I19
aa(lp5176
I20
aI21
aa(lp5177
a(lp5178
I22
aI23
aa(lp5179
a(lp5180
I24
aa(lp5181
a(lp5182
a(lp5183
NaNag121
aNaNaNaNaNaNag122
aNaNaNaNaNaNaNaNaNaNaNaNaNaNaNaNaI1
tp5184
a(g5060
g5156
(lp5185
NaNaNaNaNaNag121
aNaNag122
aNaNaNaNaNaNaNaNaNaNaNaNaNaNaNaNaI6
tp5186
a(g5060
g5156
(lp5187
NaNaNaNaNaNaNaNaNag122
aNaNaNag121
aNaNaNaNaNaNaNaNaNaNaNaNaI6
tp5188
a(g5060
g5156
(lp5189
NaNaNaNaNaNaNaNaNag122
aNaNaNaNaNaNaNaNaNaNaNaNaNag121
aNaNaI4
tp5190
a((lp5191
g3
(g4
g5
NtRp5192
(dp5193
g8
V PELAYO WAS EDUCATED AT FAR EASTERN UNIVERSITY IN MANILA , PHILIPPINES .
p5194
sg10
VROOT
p5195
sg12
Nsg13
Nsbag3
(g4
g5
NtRp5196
(dp5197
g8
V PELAYO WAS EDUCATED AT FAR EASTERN UNIVERSITY IN MANILA , PHILIPPINES .
p5198
sg10
VS
sg12
I0
sg13
Nsbag3
(g4
g5
NtRp5199
(dp5200
g8
VPELAYO
p5201
sg10
VNP
p5202
sg12
I1
sg13
Nsbag3
(g4
g5
NtRp5203
(dp5204
g8
g5201
sg10
VNNP
p5205
sg12
I2
sg13
Nsbag3
(g4
g5
NtRp5206
(dp5207
g8
S'BE'
p5208
sg10
VVP
p5209
sg12
I1
sg13
Nsbag3
(g4
g5
NtRp5210
(dp5211
g8
g5208
sg10
VVBD
p5212
sg12
I4
sg13
VWAS
p5213
sbag3
(g4
g5
NtRp5214
(dp5215
g8
S'EDUCATE'
p5216
sg10
VVP
p5217
sg12
I4
sg13
Nsbag3
(g4
g5
NtRp5218
(dp5219
g8
g5216
sg10
VVBN
p5220
sg12
I6
sg13
VEDUCATED
p5221
sbag3
(g4
g5
NtRp5222
(dp5223
g8
S'AT'
p5224
sg10
VPP
p5225
sg12
I6
sg13
Nsbag3
(g4
g5
NtRp5226
(dp5227
g8
g5224
sg10
VIN
p5228
sg12
I8
sg13
VAT
p5229
sbag3
(g4
g5
NtRp5230
(dp5231
g8
S'FAR'
p5232
sg10
VNP
p5233
sg12
I8
sg13
Nsbag3
(g4
g5
NtRp5234
(dp5235
g8
g5232
sg10
VNP
p5236
sg12
I10
sg13
Nsbag3
(g4
g5
NtRp5237
(dp5238
g8
g5232
sg10
VNNP
p5239
sg12
I11
sg13
VFAR
p5240
sbag3
(g4
g5
NtRp5241
(dp5242
g8
S'EASTERN'
p5243
sg10
VNNP
p5244
sg12
I11
sg13
VEASTERN
p5245
sbag3
(g4
g5
NtRp5246
(dp5247
g8
S'UNIVERSITY'
p5248
sg10
VNNP
p5249
sg12
I11
sg13
VUNIVERSITY
p5250
sbag3
(g4
g5
NtRp5251
(dp5252
g8
S'IN'
p5253
sg10
VPP
p5254
sg12
I10
sg13
Nsbag3
(g4
g5
NtRp5255
(dp5256
g8
g5253
sg10
VIN
p5257
sg12
I15
sg13
VIN
p5258
sbag3
(g4
g5
NtRp5259
(dp5260
g8
S'MANILA'
p5261
sg10
VNP
p5262
sg12
I15
sg13
Nsbag3
(g4
g5
NtRp5263
(dp5264
g8
g5261
sg10
VNNP
p5265
sg12
I17
sg13
VMANILA
p5266
sbag3
(g4
g5
NtRp5267
(dp5268
g8
S','
sg10
V,
sg12
I17
sg13
V,
sbag3
(g4
g5
NtRp5269
(dp5270
g8
S'PHILIPPINES'
p5271
sg10
VNNP
p5272
sg12
I17
sg13
VPHILIPPINES
p5273
sbag3
(g4
g5
NtRp5274
(dp5275
g8
S'.'
sg10
V.
sg12
I1
sg13
V.
sba(lp5276
(lp5277
I1
aa(lp5278
I2
aI4
aI21
aa(lp5279
I3
aa(lp5280
a(lp5281
I5
aI6
aa(lp5282
a(lp5283
I7
aI8
aa(lp5284
a(lp5285
I9
aI10
aa(lp5286
a(lp5287
I11
aI15
aa(lp5288
I12
aI13
aI14
aa(lp5289
a(lp5290
a(lp5291
a(lp5292
I16
aI17
aa(lp5293
a(lp5294
I18
aI19
aI20
aa(lp5295
a(lp5296
a(lp5297
a(lp5298
a(lp5299
NaNag121
aNaNaNaNaNaNaNaNaNag122
aNaNaNaNaNaNaNaNaNaI1
tp5300
a(g5191
g5276
(lp5301
NaNaNaNaNaNaNaNaNaNag121
aNag122
aNaNaNaNaNaNaNaNaNaI10
tp5302
a(g5191
g5276
(lp5303
NaNaNaNaNaNaNaNaNaNaNaNag122
aNaNaNaNag121
aNaNaNaNaI10
tp5304
a((lp5305
g3
(g4
g5
NtRp5306
(dp5307
g8
V ATKINSON ATTENDED PRESBYTERIAN LADIES ' COLLEGE , PERTH .
p5308
sg10
VROOT
p5309
sg12
Nsg13
Nsbag3
(g4
g5
NtRp5310
(dp5311
g8
V ATKINSON ATTENDED PRESBYTERIAN LADIES ' COLLEGE , PERTH .
p5312
sg10
VS
sg12
I0
sg13
Nsbag3
(g4
g5
NtRp5313
(dp5314
g8
VATKINSON
p5315
sg10
VNP
p5316
sg12
I1
sg13
Nsbag3
(g4
g5
NtRp5317
(dp5318
g8
g5315
sg10
VNNP
p5319
sg12
I2
sg13
Nsbag3
(g4
g5
NtRp5320
(dp5321
g8
S'ATTEND'
p5322
sg10
VVP
p5323
sg12
I1
sg13
Nsbag3
(g4
g5
NtRp5324
(dp5325
g8
g5322
sg10
VVBD
p5326
sg12
I4
sg13
VATTENDED
p5327
sbag3
(g4
g5
NtRp5328
(dp5329
g8
S'PRESBYTERIAN'
p5330
sg10
VNP
p5331
sg12
I4
sg13
Nsbag3
(g4
g5
NtRp5332
(dp5333
g8
g5330
sg10
VNP
p5334
sg12
I6
sg13
Nsbag3
(g4
g5
NtRp5335
(dp5336
g8
g5330
sg10
VNP
p5337
sg12
I7
sg13
Nsbag3
(g4
g5
NtRp5338
(dp5339
g8
g5330
sg10
VNNP
p5340
sg12
I8
sg13
VPRESBYTERIAN
p5341
sbag3
(g4
g5
NtRp5342
(dp5343
g8
S'LADIES'
p5344
sg10
VNNP
p5345
sg12
I8
sg13
VLADIES
p5346
sbag3
(g4
g5
NtRp5347
(dp5348
g8
S"'"
sg10
VPOS
p5349
sg12
I8
sg13
V'
sbag3
(g4
g5
NtRp5350
(dp5351
g8
S'COLLEGE'
p5352
sg10
VNNP
p5353
sg12
I7
sg13
VCOLLEGE
p5354
sbag3
(g4
g5
NtRp5355
(dp5356
g8
S','
sg10
V,
sg12
I6
sg13
V,
sbag3
(g4
g5
NtRp5357
(dp5358
g8
S'PERTH'
p5359
sg10
VNP
p5360
sg12
I6
sg13
VPERTH
p5361
sbag3
(g4
g5
NtRp5362
(dp5363
g8
g5359
sg10
VNNP
p5364
sg12
I14
sg13
VPERTH
p5365
sbag3
(g4
g5
NtRp5366
(dp5367
g8
S'.'
sg10
V.
sg12
I1
sg13
V.
sba(lp5368
(lp5369
I1
aa(lp5370
I2
aI4
aI16
aa(lp5371
I3
aa(lp5372
a(lp5373
I5
aI6
aa(lp5374
a(lp5375
I7
aI13
aI14
aa(lp5376
I8
aI12
aa(lp5377
I9
aI10
aI11
aa(lp5378
a(lp5379
a(lp5380
a(lp5381
a(lp5382
a(lp5383
I15
aa(lp5384
a(lp5385
a(lp5386
NaNag121
aNaNaNaNaNaNag122
aNaNaNaNaNaNaNaI1
tp5387
a(g5305
g5368
(lp5388
NaNaNaNaNaNag121
aNaNag122
aNaNaNaNaNaNaNaI6
tp5389
a(g5305
g5368
(lp5390
NaNaNaNaNaNaNaNaNag122
aNaNaNaNag121
aNaNaI6
tp5391
a((lp5392
g3
(g4
g5
NtRp5393
(dp5394
g8
V NIRMAL RANJITH DEWASIRI READ HIS PHD FROM LEIDEN UNIVERSITY IN THE NETHERLANDS .
p5395
sg10
VROOT
p5396
sg12
Nsg13
Nsbag3
(g4
g5
NtRp5397
(dp5398
g8
V NIRMAL RANJITH DEWASIRI READ HIS PHD FROM LEIDEN UNIVERSITY IN THE NETHERLANDS .
p5399
sg10
VS
sg12
I0
sg13
Nsbag3
(g4
g5
NtRp5400
(dp5401
g8
VNIRMAL
p5402
sg10
VNP
p5403
sg12
I1
sg13
Nsbag3
(g4
g5
NtRp5404
(dp5405
g8
g5402
sg10
VNNP
p5406
sg12
I2
sg13
Nsbag3
(g4
g5
NtRp5407
(dp5408
g8
S'RANJITH'
p5409
sg10
VNNP
p5410
sg12
I2
sg13
VRANJITH
p5411
sbag3
(g4
g5
NtRp5412
(dp5413
g8
S'DEWASIRI'
p5414
sg10
VNNP
p5415
sg12
I2
sg13
VDEWASIRI
p5416
sbag3
(g4
g5
NtRp5417
(dp5418
g8
S'READ'
p5419
sg10
VVP
p5420
sg12
I1
sg13
Nsbag3
(g4
g5
NtRp5421
(dp5422
g8
g5419
sg10
VVBD
p5423
sg12
I6
sg13
VREAD
p5424
sbag3
(g4
g5
NtRp5425
(dp5426
g8
S'PHD'
p5427
sg10
VNP
p5428
sg12
I6
sg13
Nsbag3
(g4
g5
NtRp5429
(dp5430
g8
S'HE'
p5431
sg10
VPRP$
p5432
sg12
I8
sg13
VHIS
p5433
sbag3
(g4
g5
NtRp5434
(dp5435
g8
g5427
sg10
VNN
p5436
sg12
I8
sg13
VPHD
p5437
sbag3
(g4
g5
NtRp5438
(dp5439
g8
S'FROM'
p5440
sg10
VPP
p5441
sg12
I6
sg13
Nsbag3
(g4
g5
NtRp5442
(dp5443
g8
g5440
sg10
VIN
p5444
sg12
I11
sg13
VFROM
p5445
sbag3
(g4
g5
NtRp5446
(dp5447
g8
S'LEIDEN'
p5448
sg10
VNP
p5449
sg12
I11
sg13
Nsbag3
(g4
g5
NtRp5450
(dp5451
g8
g5448
sg10
VNNP
p5452
sg12
I13
sg13
VLEIDEN
p5453
sbag3
(g4
g5
NtRp5454
(dp5455
g8
S'UNIVERSITY'
p5456
sg10
VNNP
p5457
sg12
I13
sg13
VUNIVERSITY
p5458
sbag3
(g4
g5
NtRp5459
(dp5460
g8
S'IN'
p5461
sg10
VPP
p5462
sg12
I6
sg13
Nsbag3
(g4
g5
NtRp5463
(dp5464
g8
g5461
sg10
VIN
p5465
sg12
I16
sg13
VIN
p5466
sbag3
(g4
g5
NtRp5467
(dp5468
g8
S'NETHERLANDS'
p5469
sg10
VNP
p5470
sg12
I16
sg13
Nsbag3
(g4
g5
NtRp5471
(dp5472
g8
S'THE'
p5473
sg10
VDT
p5474
sg12
I18
sg13
VTHE
p5475
sbag3
(g4
g5
NtRp5476
(dp5477
g8
g5469
sg10
VNNPS
p5478
sg12
I18
sg13
VNETHERLANDS
p5479
sbag3
(g4
g5
NtRp5480
(dp5481
g8
S'.'
sg10
V.
sg12
I1
sg13
V.
sba(lp5482
(lp5483
I1
aa(lp5484
I2
aI6
aI21
aa(lp5485
I3
aI4
aI5
aa(lp5486
a(lp5487
a(lp5488
a(lp5489
I7
aI8
aI11
aI16
aa(lp5490
a(lp5491
I9
aI10
aa(lp5492
a(lp5493
a(lp5494
I12
aI13
aa(lp5495
a(lp5496
I14
aI15
aa(lp5497
a(lp5498
a(lp5499
I17
aI18
aa(lp5500
a(lp5501
I19
aI20
aa(lp5502
a(lp5503
a(lp5504
a(lp5505
NaNag121
aNaNaNaNaNaNaNaNaNaNaNag122
aNaNaNaNaNaNaNaI1
tp5506
a(g5392
g5482
(lp5507
NaNaNaNaNaNaNaNag121
aNaNaNaNaNag122
aNaNaNaNaNaNaNaI6
tp5508
a(g5392
g5482
(lp5509
NaNaNaNaNaNaNaNaNaNag121
aNaNaNag122
aNaNaNaNaNaNaNaI6
tp5510
a(g5392
g5482
(lp5511
NaNaNaNaNaNaNaNaNaNaNaNaNaNag122
aNaNaNag121
aNaNaNaI6
tp5512
a((lp5513
g3
(g4
g5
NtRp5514
(dp5515
g8
V JENDRICK GRADUATED FROM EMERALD RIDGE HIGH SCHOOL IN PUYALLUP , WASHINGTON .
p5516
sg10
VROOT
p5517
sg12
Nsg13
Nsbag3
(g4
g5
NtRp5518
(dp5519
g8
V JENDRICK GRADUATED FROM EMERALD RIDGE HIGH SCHOOL IN PUYALLUP , WASHINGTON .
p5520
sg10
VS
sg12
I0
sg13
Nsbag3
(g4
g5
NtRp5521
(dp5522
g8
VJENDRICK
p5523
sg10
VNP
p5524
sg12
I1
sg13
Nsbag3
(g4
g5
NtRp5525
(dp5526
g8
g5523
sg10
VNNP
p5527
sg12
I2
sg13
Nsbag3
(g4
g5
NtRp5528
(dp5529
g8
S'GRADUATE'
p5530
sg10
VVP
p5531
sg12
I1
sg13
Nsbag3
(g4
g5
NtRp5532
(dp5533
g8
g5530
sg10
VVBD
p5534
sg12
I4
sg13
VGRADUATED
p5535
sbag3
(g4
g5
NtRp5536
(dp5537
g8
S'FROM'
p5538
sg10
VPP
p5539
sg12
I4
sg13
Nsbag3
(g4
g5
NtRp5540
(dp5541
g8
g5538
sg10
VIN
p5542
sg12
I6
sg13
VFROM
p5543
sbag3
(g4
g5
NtRp5544
(dp5545
g8
S'EMERALD'
p5546
sg10
VNP
p5547
sg12
I6
sg13
Nsbag3
(g4
g5
NtRp5548
(dp5549
g8
g5546
sg10
VNNP
p5550
sg12
I8
sg13
VEMERALD
p5551
sbag3
(g4
g5
NtRp5552
(dp5553
g8
S'RIDGE'
p5554
sg10
VNNP
p5555
sg12
I8
sg13
VRIDGE
p5556
sbag3
(g4
g5
NtRp5557
(dp5558
g8
S'HIGH'
p5559
sg10
VNNP
p5560
sg12
I8
sg13
VHIGH
p5561
sbag3
(g4
g5
NtRp5562
(dp5563
g8
S'SCHOOL'
p5564
sg10
VNNP
p5565
sg12
I8
sg13
VSCHOOL
p5566
sbag3
(g4
g5
NtRp5567
(dp5568
g8
S'IN'
p5569
sg10
VPP
p5570
sg12
I4
sg13
Nsbag3
(g4
g5
NtRp5571
(dp5572
g8
g5569
sg10
VIN
p5573
sg12
I13
sg13
VIN
p5574
sbag3
(g4
g5
NtRp5575
(dp5576
g8
S'PUYALLUP'
p5577
sg10
VNP
p5578
sg12
I13
sg13
Nsbag3
(g4
g5
NtRp5579
(dp5580
g8
g5577
sg10
VNNP
p5581
sg12
I15
sg13
VPUYALLUP
p5582
sbag3
(g4
g5
NtRp5583
(dp5584
g8
S','
sg10
V,
sg12
I15
sg13
V,
sbag3
(g4
g5
NtRp5585
(dp5586
g8
S'WASHINGTON'
p5587
sg10
VNNP
p5588
sg12
I15
sg13
VWASHINGTON
p5589
sbag3
(g4
g5
NtRp5590
(dp5591
g8
S'.'
sg10
V.
sg12
I1
sg13
V.
sba(lp5592
(lp5593
I1
aa(lp5594
I2
aI4
aI19
aa(lp5595
I3
aa(lp5596
a(lp5597
I5
aI6
aI13
aa(lp5598
a(lp5599
I7
aI8
aa(lp5600
a(lp5601
I9
aI10
aI11
aI12
aa(lp5602
a(lp5603
a(lp5604
a(lp5605
a(lp5606
I14
aI15
aa(lp5607
a(lp5608
I16
aI17
aI18
aa(lp5609
a(lp5610
a(lp5611
a(lp5612
a(lp5613
NaNag121
aNaNaNaNaNaNag122
aNaNaNaNaNaNaNaNaNaNaI1
tp5614
a(g5513
g5592
(lp5615
NaNaNaNaNaNaNaNaNag122
aNaNaNaNaNag121
aNaNaNaNaI4
tp5616
a((lp5617
g3
(g4
g5
NtRp5618
(dp5619
g8
V REINHOLD AND RUTH BENESCH GRADUATED FROM LEEDS UNIVERSITY IN 1941 .
p5620
sg10
VROOT
p5621
sg12
Nsg13
Nsbag3
(g4
g5
NtRp5622
(dp5623
g8
V REINHOLD AND RUTH BENESCH GRADUATED FROM LEEDS UNIVERSITY IN 1941 .
p5624
sg10
VS
sg12
I0
sg13
Nsbag3
(g4
g5
NtRp5625
(dp5626
g8
VREINHOLD
p5627
sg10
VNP
p5628
sg12
I1
sg13
Nsbag3
(g4
g5
NtRp5629
(dp5630
g8
g5627
sg10
VNP
p5631
sg12
I2
sg13
Nsbag3
(g4
g5
NtRp5632
(dp5633
g8
g5627
sg10
VNNP
p5634
sg12
I3
sg13
Nsbag3
(g4
g5
NtRp5635
(dp5636
g8
S'AND'
p5637
sg10
VCC
p5638
sg12
I2
sg13
VAND
p5639
sbag3
(g4
g5
NtRp5640
(dp5641
g8
S'RUTH'
p5642
sg10
VNP
p5643
sg12
I2
sg13
Nsbag3
(g4
g5
NtRp5644
(dp5645
g8
g5642
sg10
VNNP
p5646
sg12
I6
sg13
VRUTH
p5647
sbag3
(g4
g5
NtRp5648
(dp5649
g8
S'BENESCH'
p5650
sg10
VNNP
p5651
sg12
I6
sg13
VBENESCH
p5652
sbag3
(g4
g5
NtRp5653
(dp5654
g8
S'GRADUATE'
p5655
sg10
VVP
p5656
sg12
I1
sg13
Nsbag3
(g4
g5
NtRp5657
(dp5658
g8
g5655
sg10
VVBD
p5659
sg12
I9
sg13
VGRADUATED
p5660
sbag3
(g4
g5
NtRp5661
(dp5662
g8
S'FROM'
p5663
sg10
VPP
p5664
sg12
I9
sg13
Nsbag3
(g4
g5
NtRp5665
(dp5666
g8
g5663
sg10
VIN
p5667
sg12
I11
sg13
VFROM
p5668
sbag3
(g4
g5
NtRp5669
(dp5670
g8
S'LEEDS'
p5671
sg10
VNP
p5672
sg12
I11
sg13
Nsbag3
(g4
g5
NtRp5673
(dp5674
g8
g5671
sg10
VNNP
p5675
sg12
I13
sg13
VLEEDS
p5676
sbag3
(g4
g5
NtRp5677
(dp5678
g8
S'UNIVERSITY'
p5679
sg10
VNNP
p5680
sg12
I13
sg13
VUNIVERSITY
p5681
sbag3
(g4
g5
NtRp5682
(dp5683
g8
S'IN'
p5684
sg10
VPP
p5685
sg12
I9
sg13
Nsbag3
(g4
g5
NtRp5686
(dp5687
g8
g5684
sg10
VIN
p5688
sg12
I16
sg13
VIN
p5689
sbag3
(g4
g5
NtRp5690
(dp5691
g8
S'1941'
p5692
sg10
VNP
p5693
sg12
I16
sg13
V1941
p5694
sbag3
(g4
g5
NtRp5695
(dp5696
g8
g5692
sg10
VCD
p5697
sg12
I18
sg13
V1941
p5698
sbag3
(g4
g5
NtRp5699
(dp5700
g8
S'.'
sg10
V.
sg12
I1
sg13
V.
sba(lp5701
(lp5702
I1
aa(lp5703
I2
aI9
aI20
aa(lp5704
I3
aI5
aI6
aa(lp5705
I4
aa(lp5706
a(lp5707
a(lp5708
I7
aI8
aa(lp5709
a(lp5710
a(lp5711
I10
aI11
aI16
aa(lp5712
a(lp5713
I12
aI13
aa(lp5714
a(lp5715
I14
aI15
aa(lp5716
a(lp5717
a(lp5718
I17
aI18
aa(lp5719
a(lp5720
I19
aa(lp5721
a(lp5722
a(lp5723
NaNag121
aNaNaNaNaNaNaNaNaNaNaNag122
aNaNaNaNaNaNaI1
tp5724
a(g5617
g5701
(lp5725
NaNaNag121
aNaNaNaNaNaNaNaNaNaNag122
aNaNaNaNaNaNaI1
tp5726
a(g5617
g5701
(lp5727
NaNaNaNaNaNag121
aNaNaNaNaNaNaNag122
aNaNaNaNaNaNaI1
tp5728
a(g5617
g5701
(lp5729
NaNaNaNaNaNaNaNaNaNaNaNaNaNag122
aNaNaNag121
aNaNaI9
tp5730
a((lp5731
g3
(g4
g5
NtRp5732
(dp5733
g8
V JUDY KUHN ATTENDED GEORGETOWN DAY SCHOOL IN WASHINGTON , D.C.
p5734
sg10
VROOT
p5735
sg12
Nsg13
Nsbag3
(g4
g5
NtRp5736
(dp5737
g8
V JUDY KUHN ATTENDED GEORGETOWN DAY SCHOOL IN WASHINGTON , D.C.
p5738
sg10
VS
sg12
I0
sg13
Nsbag3
(g4
g5
NtRp5739
(dp5740
g8
VJUDY
p5741
sg10
VNP
p5742
sg12
I1
sg13
Nsbag3
(g4
g5
NtRp5743
(dp5744
g8
g5741
sg10
VNNP
p5745
sg12
I2
sg13
Nsbag3
(g4
g5
NtRp5746
(dp5747
g8
S'KUHN'
p5748
sg10
VNNP
p5749
sg12
I2
sg13
VKUHN
p5750
sbag3
(g4
g5
NtRp5751
(dp5752
g8
S'ATTEND'
p5753
sg10
VVP
p5754
sg12
I1
sg13
Nsbag3
(g4
g5
NtRp5755
(dp5756
g8
g5753
sg10
VVBD
p5757
sg12
I5
sg13
VATTENDED
p5758
sbag3
(g4
g5
NtRp5759
(dp5760
g8
S'GEORGETOWN'
p5761
sg10
VNP
p5762
sg12
I5
sg13
Nsbag3
(g4
g5
NtRp5763
(dp5764
g8
g5761
sg10
VNP
p5765
sg12
I7
sg13
Nsbag3
(g4
g5
NtRp5766
(dp5767
g8
g5761
sg10
VNNP
p5768
sg12
I8
sg13
VGEORGETOWN
p5769
sbag3
(g4
g5
NtRp5770
(dp5771
g8
S'DAY'
p5772
sg10
VNNP
p5773
sg12
I8
sg13
VDAY
p5774
sbag3
(g4
g5
NtRp5775
(dp5776
g8
S'SCHOOL'
p5777
sg10
VNNP
p5778
sg12
I8
sg13
VSCHOOL
p5779
sbag3
(g4
g5
NtRp5780
(dp5781
g8
S'IN'
p5782
sg10
VPP
p5783
sg12
I7
sg13
Nsbag3
(g4
g5
NtRp5784
(dp5785
g8
g5782
sg10
VIN
p5786
sg12
I12
sg13
VIN
p5787
sbag3
(g4
g5
NtRp5788
(dp5789
g8
S'WASHINGTON'
p5790
sg10
VNP
p5791
sg12
I12
sg13
Nsbag3
(g4
g5
NtRp5792
(dp5793
g8
g5790
sg10
VNNP
p5794
sg12
I14
sg13
VWASHINGTON
p5795
sbag3
(g4
g5
NtRp5796
(dp5797
g8
S','
sg10
V,
sg12
I14
sg13
V,
sbag3
(g4
g5
NtRp5798
(dp5799
g8
S'D.C.'
p5800
sg10
VNNP
p5801
sg12
I14
sg13
VD.C.
p5802
sba(lp5803
(lp5804
I1
aa(lp5805
I2
aI5
aa(lp5806
I3
aI4
aa(lp5807
a(lp5808
a(lp5809
I6
aI7
aa(lp5810
a(lp5811
I8
aI12
aa(lp5812
I9
aI10
aI11
aa(lp5813
a(lp5814
a(lp5815
a(lp5816
I13
aI14
aa(lp5817
a(lp5818
I15
aI16
aI17
aa(lp5819
a(lp5820
a(lp5821
a(lp5822
NaNag121
aNaNaNaNaNaNag122
aNaNaNaNaNaNaNaNaI1
tp5823
a(g5731
g5803
(lp5824
NaNaNaNaNaNaNag121
aNag122
aNaNaNaNaNaNaNaNaI7
tp5825
a(g5731
g5803
(lp5826
NaNaNaNaNaNaNaNaNag122
aNaNaNaNag121
aNaNaNaI7
tp5827
a((lp5828
g3
(g4
g5
NtRp5829
(dp5830
g8
V DUNPHY ATTENDED MALVERN PREPARATORY SCHOOL IN MALVERN , PENNSYLVANIA .
p5831
sg10
VROOT
p5832
sg12
Nsg13
Nsbag3
(g4
g5
NtRp5833
(dp5834
g8
V DUNPHY ATTENDED MALVERN PREPARATORY SCHOOL IN MALVERN , PENNSYLVANIA .
p5835
sg10
VS
sg12
I0
sg13
Nsbag3
(g4
g5
NtRp5836
(dp5837
g8
VDUNPHY
p5838
sg10
VNP
p5839
sg12
I1
sg13
Nsbag3
(g4
g5
NtRp5840
(dp5841
g8
g5838
sg10
VNNP
p5842
sg12
I2
sg13
Nsbag3
(g4
g5
NtRp5843
(dp5844
g8
S'ATTEND'
p5845
sg10
VVP
p5846
sg12
I1
sg13
Nsbag3
(g4
g5
NtRp5847
(dp5848
g8
g5845
sg10
VVBD
p5849
sg12
I4
sg13
VATTENDED
p5850
sbag3
(g4
g5
NtRp5851
(dp5852
g8
S'MALVERN'
p5853
sg10
VNP
p5854
sg12
I4
sg13
Nsbag3
(g4
g5
NtRp5855
(dp5856
g8
g5853
sg10
VNP
p5857
sg12
I6
sg13
Nsbag3
(g4
g5
NtRp5858
(dp5859
g8
g5853
sg10
VNNP
p5860
sg12
I7
sg13
VMALVERN
p5861
sbag3
(g4
g5
NtRp5862
(dp5863
g8
S'PREPARATORY'
p5864
sg10
VNNP
p5865
sg12
I7
sg13
VPREPARATORY
p5866
sbag3
(g4
g5
NtRp5867
(dp5868
g8
S'SCHOOL'
p5869
sg10
VNNP
p5870
sg12
I7
sg13
VSCHOOL
p5871
sbag3
(g4
g5
NtRp5872
(dp5873
g8
S'IN'
p5874
sg10
VPP
p5875
sg12
I6
sg13
Nsbag3
(g4
g5
NtRp5876
(dp5877
g8
g5874
sg10
VIN
p5878
sg12
I11
sg13
VIN
p5879
sbag3
(g4
g5
NtRp5880
(dp5881
g8
g5853
sg10
VNP
p5882
sg12
I11
sg13
Nsbag3
(g4
g5
NtRp5883
(dp5884
g8
g5853
sg10
VNNP
p5885
sg12
I13
sg13
VMALVERN
p5886
sbag3
(g4
g5
NtRp5887
(dp5888
g8
S','
sg10
V,
sg12
I13
sg13
V,
sbag3
(g4
g5
NtRp5889
(dp5890
g8
S'PENNSYLVANIA'
p5891
sg10
VNNP
p5892
sg12
I13
sg13
VPENNSYLVANIA
p5893
sbag3
(g4
g5
NtRp5894
(dp5895
g8
S'.'
sg10
V.
sg12
I1
sg13
V.
sba(lp5896
(lp5897
I1
aa(lp5898
I2
aI4
aI17
aa(lp5899
I3
aa(lp5900
a(lp5901
I5
aI6
aa(lp5902
a(lp5903
I7
aI11
aa(lp5904
I8
aI9
aI10
aa(lp5905
a(lp5906
a(lp5907
a(lp5908
I12
aI13
aa(lp5909
a(lp5910
I14
aI15
aI16
aa(lp5911
a(lp5912
a(lp5913
a(lp5914
a(lp5915
NaNag121
aNaNaNaNaNaNag122
aNaNaNaNaNaNaNaNaI1
tp5916
a(g5828
g5896
(lp5917
NaNaNaNaNaNag121
aNaNag122
aNaNaNaNaNaNaNaNaI6
tp5918
a(g5828
g5896
(lp5919
NaNaNaNaNaNaNaNaNag122
aNaNaNag121
aNaNaNaNaI6
tp5920
a((lp5921
g3
(g4
g5
NtRp5922
(dp5923
g8
V RICHARD PASCO WAS EDUCATED AT THE KING 'S COLLEGE SCHOOL , WIMBLEDON .
p5924
sg10
VROOT
p5925
sg12
Nsg13
Nsbag3
(g4
g5
NtRp5926
(dp5927
g8
V RICHARD PASCO WAS EDUCATED AT THE KING 'S COLLEGE SCHOOL , WIMBLEDON .
p5928
sg10
VS
sg12
I0
sg13
Nsbag3
(g4
g5
NtRp5929
(dp5930
g8
VRICHARD
p5931
sg10
VNP
p5932
sg12
I1
sg13
Nsbag3
(g4
g5
NtRp5933
(dp5934
g8
g5931
sg10
VNNP
p5935
sg12
I2
sg13
Nsbag3
(g4
g5
NtRp5936
(dp5937
g8
S'PASCO'
p5938
sg10
VNNP
p5939
sg12
I2
sg13
VPASCO
p5940
sbag3
(g4
g5
NtRp5941
(dp5942
g8
S'BE'
p5943
sg10
VVP
p5944
sg12
I1
sg13
Nsbag3
(g4
g5
NtRp5945
(dp5946
g8
g5943
sg10
VVBD
p5947
sg12
I5
sg13
VWAS
p5948
sbag3
(g4
g5
NtRp5949
(dp5950
g8
S'EDUCATE'
p5951
sg10
VVP
p5952
sg12
I5
sg13
Nsbag3
(g4
g5
NtRp5953
(dp5954
g8
g5951
sg10
VVBN
p5955
sg12
I7
sg13
VEDUCATED
p5956
sbag3
(g4
g5
NtRp5957
(dp5958
g8
S'AT'
p5959
sg10
VPP
p5960
sg12
I7
sg13
Nsbag3
(g4
g5
NtRp5961
(dp5962
g8
g5959
sg10
VIN
p5963
sg12
I9
sg13
VAT
p5964
sbag3
(g4
g5
NtRp5965
(dp5966
g8
S'KING'
p5967
sg10
VNP
p5968
sg12
I9
sg13
Nsbag3
(g4
g5
NtRp5969
(dp5970
g8
g5967
sg10
VNP
p5971
sg12
I11
sg13
Nsbag3
(g4
g5
NtRp5972
(dp5973
g8
g5967
sg10
VNP
p5974
sg12
I12
sg13
Nsbag3
(g4
g5
NtRp5975
(dp5976
g8
S'THE'
p5977
sg10
VDT
p5978
sg12
I13
sg13
VTHE
p5979
sbag3
(g4
g5
NtRp5980
(dp5981
g8
g5967
sg10
VNNP
p5982
sg12
I13
sg13
VKING
p5983
sbag3
(g4
g5
NtRp5984
(dp5985
g8
S"'S"
p5986
sg10
VPOS
p5987
sg12
I13
sg13
V'S
p5988
sbag3
(g4
g5
NtRp5989
(dp5990
g8
S'COLLEGE'
p5991
sg10
VNNP
p5992
sg12
I12
sg13
VCOLLEGE
p5993
sbag3
(g4
g5
NtRp5994
(dp5995
g8
S'SCHOOL'
p5996
sg10
VNNP
p5997
sg12
I12
sg13
VSCHOOL
p5998
sbag3
(g4
g5
NtRp5999
(dp6000
g8
S','
sg10
V,
sg12
I11
sg13
V,
sbag3
(g4
g5
NtRp6001
(dp6002
g8
S'WIMBLEDON'
p6003
sg10
VNP
p6004
sg12
I11
sg13
VWIMBLEDON
p6005
sbag3
(g4
g5
NtRp6006
(dp6007
g8
g6003
sg10
VNNP
p6008
sg12
I20
sg13
VWIMBLEDON
p6009
sbag3
(g4
g5
NtRp6010
(dp6011
g8
S'.'
sg10
V.
sg12
I1
sg13
V.
sba(lp6012
(lp6013
I1
aa(lp6014
I2
aI5
aI22
aa(lp6015
I3
aI4
aa(lp6016
a(lp6017
a(lp6018
I6
aI7
aa(lp6019
a(lp6020
I8
aI9
aa(lp6021
a(lp6022
I10
aI11
aa(lp6023
a(lp6024
I12
aI19
aI20
aa(lp6025
I13
aI17
aI18
aa(lp6026
I14
aI15
aI16
aa(lp6027
a(lp6028
a(lp6029
a(lp6030
a(lp6031
a(lp6032
a(lp6033
I21
aa(lp6034
a(lp6035
a(lp6036
NaNag121
aNaNaNaNaNaNaNaNaNaNaNaNag122
aNaNaNaNaNaNaNaI1
tp6037
a(g5921
g6012
(lp6038
NaNaNaNaNaNaNaNaNaNaNag121
aNaNaNag122
aNaNaNaNaNaNaNaI11
tp6039
a(g5921
g6012
(lp6040
NaNaNaNaNaNaNaNaNaNaNaNaNaNaNag122
aNaNaNaNag121
aNaNaI11
tp6041
a((lp6042
g3
(g4
g5
NtRp6043
(dp6044
g8
V SANDERS ATTENDED COLLEGE AT VANDERBILT UNIVERSITY .
p6045
sg10
VROOT
p6046
sg12
Nsg13
Nsbag3
(g4
g5
NtRp6047
(dp6048
g8
V SANDERS ATTENDED COLLEGE AT VANDERBILT UNIVERSITY .
p6049
sg10
VS
sg12
I0
sg13
Nsbag3
(g4
g5
NtRp6050
(dp6051
g8
VSANDERS
p6052
sg10
VNP
p6053
sg12
I1
sg13
Nsbag3
(g4
g5
NtRp6054
(dp6055
g8
g6052
sg10
VNNP
p6056
sg12
I2
sg13
Nsbag3
(g4
g5
NtRp6057
(dp6058
g8
S'ATTEND'
p6059
sg10
VVP
p6060
sg12
I1
sg13
Nsbag3
(g4
g5
NtRp6061
(dp6062
g8
g6059
sg10
VVBD
p6063
sg12
I4
sg13
VATTENDED
p6064
sbag3
(g4
g5
NtRp6065
(dp6066
g8
S'COLLEGE'
p6067
sg10
VNP
p6068
sg12
I4
sg13
VCOLLEGE
p6069
sbag3
(g4
g5
NtRp6070
(dp6071
g8
g6067
sg10
VNN
p6072
sg12
I6
sg13
VCOLLEGE
p6073
sbag3
(g4
g5
NtRp6074
(dp6075
g8
S'AT'
p6076
sg10
VPP
p6077
sg12
I4
sg13
Nsbag3
(g4
g5
NtRp6078
(dp6079
g8
g6076
sg10
VIN
p6080
sg12
I8
sg13
VAT
p6081
sbag3
(g4
g5
NtRp6082
(dp6083
g8
S'VANDERBILT'
p6084
sg10
VNP
p6085
sg12
I8
sg13
Nsbag3
(g4
g5
NtRp6086
(dp6087
g8
g6084
sg10
VNNP
p6088
sg12
I10
sg13
VVANDERBILT
p6089
sbag3
(g4
g5
NtRp6090
(dp6091
g8
S'UNIVERSITY'
p6092
sg10
VNNP
p6093
sg12
I10
sg13
VUNIVERSITY
p6094
sbag3
(g4
g5
NtRp6095
(dp6096
g8
S'.'
sg10
V.
sg12
I1
sg13
V.
sba(lp6097
(lp6098
I1
aa(lp6099
I2
aI4
aI13
aa(lp6100
I3
aa(lp6101
a(lp6102
I5
aI6
aI8
aa(lp6103
a(lp6104
I7
aa(lp6105
a(lp6106
I9
aI10
aa(lp6107
a(lp6108
I11
aI12
aa(lp6109
a(lp6110
a(lp6111
a(lp6112
NaNag121
aNaNaNaNaNaNaNaNag122
aNaNaI1
tp6113
a(g6042
g6097
(lp6114
NaNaNaNaNaNag121
aNaNaNaNag122
aNaNaI4
tp6115
a(g6042
g6097
(lp6116
NaNaNaNaNaNaNag121
aNaNaNag122
aNaNaI4
tp6117
a((lp6118
g3
(g4
g5
NtRp6119
(dp6120
g8
V ROBERT SCHWENTKE WAS A GRADUATE OF COLUMBIA COLLEGE HOLLYWOOD IN 1992 .
p6121
sg10
VROOT
p6122
sg12
Nsg13
Nsbag3
(g4
g5
NtRp6123
(dp6124
g8
V ROBERT SCHWENTKE WAS A GRADUATE OF COLUMBIA COLLEGE HOLLYWOOD IN 1992 .
p6125
sg10
VS
sg12
I0
sg13
Nsbag3
(g4
g5
NtRp6126
(dp6127
g8
VROBERT
p6128
sg10
VNP
p6129
sg12
I1
sg13
Nsbag3
(g4
g5
NtRp6130
(dp6131
g8
g6128
sg10
VNNP
p6132
sg12
I2
sg13
Nsbag3
(g4
g5
NtRp6133
(dp6134
g8
S'SCHWENTKE'
p6135
sg10
VNNP
p6136
sg12
I2
sg13
VSCHWENTKE
p6137
sbag3
(g4
g5
NtRp6138
(dp6139
g8
S'BE'
p6140
sg10
VVP
p6141
sg12
I1
sg13
Nsbag3
(g4
g5
NtRp6142
(dp6143
g8
g6140
sg10
VVBD
p6144
sg12
I5
sg13
VWAS
p6145
sbag3
(g4
g5
NtRp6146
(dp6147
g8
S'GRADUATE'
p6148
sg10
VNP
p6149
sg12
I5
sg13
Nsbag3
(g4
g5
NtRp6150
(dp6151
g8
g6148
sg10
VNP
p6152
sg12
I7
sg13
Nsbag3
(g4
g5
NtRp6153
(dp6154
g8
S'A'
sg10
VDT
p6155
sg12
I8
sg13
VA
sbag3
(g4
g5
NtRp6156
(dp6157
g8
g6148
sg10
VNN
p6158
sg12
I8
sg13
VGRADUATE
p6159
sbag3
(g4
g5
NtRp6160
(dp6161
g8
S'OF'
p6162
sg10
VPP
p6163
sg12
I7
sg13
Nsbag3
(g4
g5
NtRp6164
(dp6165
g8
g6162
sg10
VIN
p6166
sg12
I11
sg13
VOF
p6167
sbag3
(g4
g5
NtRp6168
(dp6169
g8
S'COLUMBIA'
p6170
sg10
VNP
p6171
sg12
I11
sg13
Nsbag3
(g4
g5
NtRp6172
(dp6173
g8
g6170
sg10
VNP
p6174
sg12
I13
sg13
Nsbag3
(g4
g5
NtRp6175
(dp6176
g8
g6170
sg10
VNNP
p6177
sg12
I14
sg13
VCOLUMBIA
p6178
sbag3
(g4
g5
NtRp6179
(dp6180
g8
S'COLLEGE'
p6181
sg10
VNNP
p6182
sg12
I14
sg13
VCOLLEGE
p6183
sbag3
(g4
g5
NtRp6184
(dp6185
g8
S'HOLLYWOOD'
p6186
sg10
VNNP
p6187
sg12
I14
sg13
VHOLLYWOOD
p6188
sbag3
(g4
g5
NtRp6189
(dp6190
g8
S'IN'
p6191
sg10
VPP
p6192
sg12
I13
sg13
Nsbag3
(g4
g5
NtRp6193
(dp6194
g8
g6191
sg10
VIN
p6195
sg12
I18
sg13
VIN
p6196
sbag3
(g4
g5
NtRp6197
(dp6198
g8
S'1992'
p6199
sg10
VNP
p6200
sg12
I18
sg13
V1992
p6201
sbag3
(g4
g5
NtRp6202
(dp6203
g8
g6199
sg10
VCD
p6204
sg12
I20
sg13
V1992
p6205
sbag3
(g4
g5
NtRp6206
(dp6207
g8
S'.'
sg10
V.
sg12
I1
sg13
V.
sba(lp6208
(lp6209
I1
aa(lp6210
I2
aI5
aI22
aa(lp6211
I3
aI4
aa(lp6212
a(lp6213
a(lp6214
I6
aI7
aa(lp6215
a(lp6216
I8
aI11
aa(lp6217
I9
aI10
aa(lp6218
a(lp6219
a(lp6220
I12
aI13
aa(lp6221
a(lp6222
I14
aI18
aa(lp6223
I15
aI16
aI17
aa(lp6224
a(lp6225
a(lp6226
a(lp6227
I19
aI20
aa(lp6228
a(lp6229
I21
aa(lp6230
a(lp6231
a(lp6232
NaNag121
aNaNaNaNaNaNaNaNaNaNaNaNag122
aNaNaNaNaNaNaNaI1
tp6233
a(g6118
g6208
(lp6234
NaNaNaNaNaNaNag121
aNaNaNaNaNaNaNag122
aNaNaNaNaNaNaNaI7
tp6235
a(g6118
g6208
(lp6236
NaNaNaNaNaNaNaNag121
aNaNaNaNaNaNag122
aNaNaNaNaNaNaNaI7
tp6237
a(g6118
g6208
(lp6238
NaNaNaNaNaNaNaNaNaNag121
aNaNaNaNag122
aNaNaNaNaNaNaNaI7
tp6239
a(g6118
g6208
(lp6240
NaNaNaNaNaNaNaNaNaNaNaNaNag121
aNag122
aNaNaNaNaNaNaNaI13
tp6241
a(g6118
g6208
(lp6242
NaNaNaNaNaNaNaNaNaNaNaNaNaNaNag122
aNaNaNaNag121
aNaNaI13
tp6243
a((lp6244
g3
(g4
g5
NtRp6245
(dp6246
g8
V REINHARDT GRADUATED FROM UNIVERSITY HIGH SCHOOL IN LOS ANGELES .
p6247
sg10
VROOT
p6248
sg12
Nsg13
Nsbag3
(g4
g5
NtRp6249
(dp6250
g8
V REINHARDT GRADUATED FROM UNIVERSITY HIGH SCHOOL IN LOS ANGELES .
p6251
sg10
VS
sg12
I0
sg13
Nsbag3
(g4
g5
NtRp6252
(dp6253
g8
VREINHARDT
p6254
sg10
VNP
p6255
sg12
I1
sg13
Nsbag3
(g4
g5
NtRp6256
(dp6257
g8
g6254
sg10
VNNP
p6258
sg12
I2
sg13
Nsbag3
(g4
g5
NtRp6259
(dp6260
g8
S'GRADUATE'
p6261
sg10
VVP
p6262
sg12
I1
sg13
Nsbag3
(g4
g5
NtRp6263
(dp6264
g8
g6261
sg10
VVBD
p6265
sg12
I4
sg13
VGRADUATED
p6266
sbag3
(g4
g5
NtRp6267
(dp6268
g8
S'FROM'
p6269
sg10
VPP
p6270
sg12
I4
sg13
Nsbag3
(g4
g5
NtRp6271
(dp6272
g8
g6269
sg10
VIN
p6273
sg12
I6
sg13
VFROM
p6274
sbag3
(g4
g5
NtRp6275
(dp6276
g8
S'UNIVERSITY'
p6277
sg10
VNP
p6278
sg12
I6
sg13
Nsbag3
(g4
g5
NtRp6279
(dp6280
g8
g6277
sg10
VNP
p6281
sg12
I8
sg13
Nsbag3
(g4
g5
NtRp6282
(dp6283
g8
g6277
sg10
VNNP
p6284
sg12
I9
sg13
VUNIVERSITY
p6285
sbag3
(g4
g5
NtRp6286
(dp6287
g8
S'HIGH'
p6288
sg10
VNNP
p6289
sg12
I9
sg13
VHIGH
p6290
sbag3
(g4
g5
NtRp6291
(dp6292
g8
S'SCHOOL'
p6293
sg10
VNNP
p6294
sg12
I9
sg13
VSCHOOL
p6295
sbag3
(g4
g5
NtRp6296
(dp6297
g8
S'IN'
p6298
sg10
VPP
p6299
sg12
I8
sg13
Nsbag3
(g4
g5
NtRp6300
(dp6301
g8
g6298
sg10
VIN
p6302
sg12
I13
sg13
VIN
p6303
sbag3
(g4
g5
NtRp6304
(dp6305
g8
S'LOS'
p6306
sg10
VNP
p6307
sg12
I13
sg13
Nsbag3
(g4
g5
NtRp6308
(dp6309
g8
g6306
sg10
VNNP
p6310
sg12
I15
sg13
VLOS
p6311
sbag3
(g4
g5
NtRp6312
(dp6313
g8
S'ANGELES'
p6314
sg10
VNNP
p6315
sg12
I15
sg13
VANGELES
p6316
sbag3
(g4
g5
NtRp6317
(dp6318
g8
S'.'
sg10
V.
sg12
I1
sg13
V.
sba(lp6319
(lp6320
I1
aa(lp6321
I2
aI4
aI18
aa(lp6322
I3
aa(lp6323
a(lp6324
I5
aI6
aa(lp6325
a(lp6326
I7
aI8
aa(lp6327
a(lp6328
I9
aI13
aa(lp6329
I10
aI11
aI12
aa(lp6330
a(lp6331
a(lp6332
a(lp6333
I14
aI15
aa(lp6334
a(lp6335
I16
aI17
aa(lp6336
a(lp6337
a(lp6338
a(lp6339
NaNag121
aNaNaNaNaNaNaNag122
aNaNaNaNaNaNaNaNaI1
tp6340
a(g6244
g6319
(lp6341
NaNaNaNaNaNaNaNag121
aNag122
aNaNaNaNaNaNaNaNaI8
tp6342
a(g6244
g6319
(lp6343
NaNaNaNaNaNaNaNaNaNag122
aNaNaNaNag121
aNaNaNaI8
tp6344
a((lp6345
g3
(g4
g5
NtRp6346
(dp6347
g8
V KEVIN BARON GRADUATED FROM THE UNIVERSITY OF RICHMOND IN 1997 , WITH A B.A.
p6348
sg10
VROOT
p6349
sg12
Nsg13
Nsbag3
(g4
g5
NtRp6350
(dp6351
g8
V KEVIN BARON GRADUATED FROM THE UNIVERSITY OF RICHMOND IN 1997 , WITH A B.A.
p6352
sg10
VS
sg12
I0
sg13
Nsbag3
(g4
g5
NtRp6353
(dp6354
g8
VKEVIN
p6355
sg10
VNP
p6356
sg12
I1
sg13
Nsbag3
(g4
g5
NtRp6357
(dp6358
g8
g6355
sg10
VNNP
p6359
sg12
I2
sg13
Nsbag3
(g4
g5
NtRp6360
(dp6361
g8
S'BARON'
p6362
sg10
VNNP
p6363
sg12
I2
sg13
VBARON
p6364
sbag3
(g4
g5
NtRp6365
(dp6366
g8
S'GRADUATE'
p6367
sg10
VVP
p6368
sg12
I1
sg13
Nsbag3
(g4
g5
NtRp6369
(dp6370
g8
g6367
sg10
VVBD
p6371
sg12
I5
sg13
VGRADUATED
p6372
sbag3
(g4
g5
NtRp6373
(dp6374
g8
S'FROM'
p6375
sg10
VPP
p6376
sg12
I5
sg13
Nsbag3
(g4
g5
NtRp6377
(dp6378
g8
g6375
sg10
VIN
p6379
sg12
I7
sg13
VFROM
p6380
sbag3
(g4
g5
NtRp6381
(dp6382
g8
S'UNIVERSITY'
p6383
sg10
VNP
p6384
sg12
I7
sg13
Nsbag3
(g4
g5
NtRp6385
(dp6386
g8
g6383
sg10
VNP
p6387
sg12
I9
sg13
Nsbag3
(g4
g5
NtRp6388
(dp6389
g8
S'THE'
p6390
sg10
VDT
p6391
sg12
I10
sg13
VTHE
p6392
sbag3
(g4
g5
NtRp6393
(dp6394
g8
g6383
sg10
VNNP
p6395
sg12
I10
sg13
VUNIVERSITY
p6396
sbag3
(g4
g5
NtRp6397
(dp6398
g8
S'OF'
p6399
sg10
VPP
p6400
sg12
I9
sg13
Nsbag3
(g4
g5
NtRp6401
(dp6402
g8
g6399
sg10
VIN
p6403
sg12
I13
sg13
VOF
p6404
sbag3
(g4
g5
NtRp6405
(dp6406
g8
S'RICHMOND'
p6407
sg10
VNP
p6408
sg12
I13
sg13
VRICHMOND
p6409
sbag3
(g4
g5
NtRp6410
(dp6411
g8
g6407
sg10
VNNP
p6412
sg12
I15
sg13
VRICHMOND
p6413
sbag3
(g4
g5
NtRp6414
(dp6415
g8
S'IN'
p6416
sg10
VPP
p6417
sg12
I5
sg13
Nsbag3
(g4
g5
NtRp6418
(dp6419
g8
g6416
sg10
VIN
p6420
sg12
I17
sg13
VIN
p6421
sbag3
(g4
g5
NtRp6422
(dp6423
g8
S'1997'
p6424
sg10
VNP
p6425
sg12
I17
sg13
V1997
p6426
sbag3
(g4
g5
NtRp6427
(dp6428
g8
g6424
sg10
VCD
p6429
sg12
I19
sg13
V1997
p6430
sbag3
(g4
g5
NtRp6431
(dp6432
g8
S','
sg10
V,
sg12
I5
sg13
V,
sbag3
(g4
g5
NtRp6433
(dp6434
g8
S'WITH'
p6435
sg10
VPP
p6436
sg12
I5
sg13
Nsbag3
(g4
g5
NtRp6437
(dp6438
g8
g6435
sg10
VIN
p6439
sg12
I22
sg13
VWITH
p6440
sbag3
(g4
g5
NtRp6441
(dp6442
g8
S'B.A.'
p6443
sg10
VNP
p6444
sg12
I22
sg13
Nsbag3
(g4
g5
NtRp6445
(dp6446
g8
S'A'
sg10
VDT
p6447
sg12
I24
sg13
VA
sbag3
(g4
g5
NtRp6448
(dp6449
g8
g6443
sg10
VNN
p6450
sg12
I24
sg13
VB.A.
p6451
sba(lp6452
(lp6453
I1
aa(lp6454
I2
aI5
aa(lp6455
I3
aI4
aa(lp6456
a(lp6457
a(lp6458
I6
aI7
aI17
aI21
aI22
aa(lp6459
a(lp6460
I8
aI9
aa(lp6461
a(lp6462
I10
aI13
aa(lp6463
I11
aI12
aa(lp6464
a(lp6465
a(lp6466
I14
aI15
aa(lp6467
a(lp6468
I16
aa(lp6469
a(lp6470
I18
aI19
aa(lp6471
a(lp6472
I20
aa(lp6473
a(lp6474
a(lp6475
I23
aI24
aa(lp6476
a(lp6477
I25
aI26
aa(lp6478
a(lp6479
a(lp6480
NaNag121
aNaNaNaNaNaNaNaNaNag122
aNaNaNaNaNaNaNaNaNaNaNaNaNaNaI1
tp6481
a(g6345
g6452
(lp6482
NaNaNaNaNaNaNaNaNag121
aNaNag122
aNaNaNaNaNaNaNaNaNaNaNaNaNaNaI9
tp6483
a(g6345
g6452
(lp6484
NaNaNaNaNaNaNaNaNaNaNaNag122
aNaNaNaNaNaNag121
aNaNaNaNaNaNaNaI5
tp6485
a(g6345
g6452
(lp6486
NaNaNaNaNaNaNaNaNaNaNaNag122
aNaNaNaNaNaNaNaNaNaNaNag121
aNaNaI5
tp6487
a(g6345
g6452
(lp6488
NaNaNaNaNaNaNaNaNaNaNaNag122
aNaNaNaNaNaNaNaNaNaNaNaNaNag121
aI5
tp6489
a((lp6490
g3
(g4
g5
NtRp6491
(dp6492
g8
V GOURLAY WAS EDUCATED AT KIRKCALDY HIGH SCHOOL AND WAS A VEHICLES EXAMINER .
p6493
sg10
VROOT
p6494
sg12
Nsg13
Nsbag3
(g4
g5
NtRp6495
(dp6496
g8
V GOURLAY WAS EDUCATED AT KIRKCALDY HIGH SCHOOL AND WAS A VEHICLES EXAMINER .
p6497
sg10
VS
sg12
I0
sg13
Nsbag3
(g4
g5
NtRp6498
(dp6499
g8
VGOURLAY
p6500
sg10
VNP
p6501
sg12
I1
sg13
Nsbag3
(g4
g5
NtRp6502
(dp6503
g8
g6500
sg10
VNNP
p6504
sg12
I2
sg13
Nsbag3
(g4
g5
NtRp6505
(dp6506
g8
S'BE'
p6507
sg10
VVP
p6508
sg12
I1
sg13
Nsbag3
(g4
g5
NtRp6509
(dp6510
g8
g6507
sg10
VVP
p6511
sg12
I4
sg13
Nsbag3
(g4
g5
NtRp6512
(dp6513
g8
g6507
sg10
VVBD
p6514
sg12
I5
sg13
VWAS
p6515
sbag3
(g4
g5
NtRp6516
(dp6517
g8
S'EDUCATE'
p6518
sg10
VVP
p6519
sg12
I5
sg13
Nsbag3
(g4
g5
NtRp6520
(dp6521
g8
g6518
sg10
VVBN
p6522
sg12
I7
sg13
VEDUCATED
p6523
sbag3
(g4
g5
NtRp6524
(dp6525
g8
S'AT'
p6526
sg10
VPP
p6527
sg12
I7
sg13
Nsbag3
(g4
g5
NtRp6528
(dp6529
g8
g6526
sg10
VIN
p6530
sg12
I9
sg13
VAT
p6531
sbag3
(g4
g5
NtRp6532
(dp6533
g8
S'KIRKCALDY'
p6534
sg10
VNP
p6535
sg12
I9
sg13
Nsbag3
(g4
g5
NtRp6536
(dp6537
g8
g6534
sg10
VNNP
p6538
sg12
I11
sg13
VKIRKCALDY
p6539
sbag3
(g4
g5
NtRp6540
(dp6541
g8
S'HIGH'
p6542
sg10
VNNP
p6543
sg12
I11
sg13
VHIGH
p6544
sbag3
(g4
g5
NtRp6545
(dp6546
g8
S'SCHOOL'
p6547
sg10
VNNP
p6548
sg12
I11
sg13
VSCHOOL
p6549
sbag3
(g4
g5
NtRp6550
(dp6551
g8
S'AND'
p6552
sg10
VCC
p6553
sg12
I4
sg13
VAND
p6554
sbag3
(g4
g5
NtRp6555
(dp6556
g8
g6507
sg10
VVP
p6557
sg12
I4
sg13
Nsbag3
(g4
g5
NtRp6558
(dp6559
g8
g6507
sg10
VVBD
p6560
sg12
I16
sg13
VWAS
p6561
sbag3
(g4
g5
NtRp6562
(dp6563
g8
S'VEHICLE'
p6564
sg10
VNP
p6565
sg12
I16
sg13
Nsbag3
(g4
g5
NtRp6566
(dp6567
g8
S'A'
sg10
VDT
p6568
sg12
I18
sg13
VA
sbag3
(g4
g5
NtRp6569
(dp6570
g8
g6564
sg10
VNNS
p6571
sg12
I18
sg13
VVEHICLES
p6572
sbag3
(g4
g5
NtRp6573
(dp6574
g8
S'EXAMINER'
p6575
sg10
VNN
p6576
sg12
I18
sg13
VEXAMINER
p6577
sbag3
(g4
g5
NtRp6578
(dp6579
g8
S'.'
sg10
V.
sg12
I1
sg13
V.
sba(lp6580
(lp6581
I1
aa(lp6582
I2
aI4
aI22
aa(lp6583
I3
aa(lp6584
a(lp6585
I5
aI15
aI16
aa(lp6586
I6
aI7
aa(lp6587
a(lp6588
I8
aI9
aa(lp6589
a(lp6590
I10
aI11
aa(lp6591
a(lp6592
I12
aI13
aI14
aa(lp6593
a(lp6594
a(lp6595
a(lp6596
a(lp6597
I17
aI18
aa(lp6598
a(lp6599
I19
aI20
aI21
aa(lp6600
a(lp6601
a(lp6602
a(lp6603
a(lp6604
NaNag121
aNaNaNaNaNaNaNaNaNag122
aNaNaNaNaNaNaNaNaNaNaI1
tp6605
a(g6490
g6580
(lp6606
NaNaNaNaNaNaNaNaNaNaNaNag122
aNaNaNaNaNag121
aNaNaNaNaI4
tp6607
a(g6490
g6580
(lp6608
NaNaNaNaNaNaNaNaNaNaNaNag122
aNaNaNaNaNaNaNag121
aNaNaI4
tp6609
a(g6490
g6580
(lp6610
NaNaNaNaNaNaNaNaNaNaNaNag122
aNaNaNaNaNaNaNaNag121
aNaI4
tp6611
a((lp6612
g3
(g4
g5
NtRp6613
(dp6614
g8
V KENNETH CAMPBELL WAS EDUCATED AT SEDBERGH SCHOOL AND CLARE COLLEGE , CAMBRIDGE
p6615
sg10
VROOT
p6616
sg12
Nsg13
Nsbag3
(g4
g5
NtRp6617
(dp6618
g8
V KENNETH CAMPBELL WAS EDUCATED AT SEDBERGH SCHOOL AND CLARE COLLEGE , CAMBRIDGE
p6619
sg10
VS
sg12
I0
sg13
Nsbag3
(g4
g5
NtRp6620
(dp6621
g8
VKENNETH
p6622
sg10
VNP
p6623
sg12
I1
sg13
Nsbag3
(g4
g5
NtRp6624
(dp6625
g8
g6622
sg10
VNNP
p6626
sg12
I2
sg13
Nsbag3
(g4
g5
NtRp6627
(dp6628
g8
S'CAMPBELL'
p6629
sg10
VNNP
p6630
sg12
I2
sg13
VCAMPBELL
p6631
sbag3
(g4
g5
NtRp6632
(dp6633
g8
S'BE'
p6634
sg10
VVP
p6635
sg12
I1
sg13
Nsbag3
(g4
g5
NtRp6636
(dp6637
g8
g6634
sg10
VVBD
p6638
sg12
I5
sg13
VWAS
p6639
sbag3
(g4
g5
NtRp6640
(dp6641
g8
S'EDUCATE'
p6642
sg10
VVP
p6643
sg12
I5
sg13
Nsbag3
(g4
g5
NtRp6644
(dp6645
g8
g6642
sg10
VVBN
p6646
sg12
I7
sg13
VEDUCATED
p6647
sbag3
(g4
g5
NtRp6648
(dp6649
g8
S'AT'
p6650
sg10
VPP
p6651
sg12
I7
sg13
Nsbag3
(g4
g5
NtRp6652
(dp6653
g8
g6650
sg10
VIN
p6654
sg12
I9
sg13
VAT
p6655
sbag3
(g4
g5
NtRp6656
(dp6657
g8
S'SEDBERGH'
p6658
sg10
VNP
p6659
sg12
I9
sg13
Nsbag3
(g4
g5
NtRp6660
(dp6661
g8
g6658
sg10
VNP
p6662
sg12
I11
sg13
Nsbag3
(g4
g5
NtRp6663
(dp6664
g8
g6658
sg10
VNNP
p6665
sg12
I12
sg13
VSEDBERGH
p6666
sbag3
(g4
g5
NtRp6667
(dp6668
g8
S'SCHOOL'
p6669
sg10
VNNP
p6670
sg12
I12
sg13
VSCHOOL
p6671
sbag3
(g4
g5
NtRp6672
(dp6673
g8
S'AND'
p6674
sg10
VCC
p6675
sg12
I11
sg13
VAND
p6676
sbag3
(g4
g5
NtRp6677
(dp6678
g8
S'CLARE'
p6679
sg10
VNP
p6680
sg12
I11
sg13
Nsbag3
(g4
g5
NtRp6681
(dp6682
g8
g6679
sg10
VNNP
p6683
sg12
I16
sg13
VCLARE
p6684
sbag3
(g4
g5
NtRp6685
(dp6686
g8
S'COLLEGE'
p6687
sg10
VNNP
p6688
sg12
I16
sg13
VCOLLEGE
p6689
sbag3
(g4
g5
NtRp6690
(dp6691
g8
S','
sg10
V,
sg12
I16
sg13
V,
sbag3
(g4
g5
NtRp6692
(dp6693
g8
S'CAMBRIDGE'
p6694
sg10
VNNP
p6695
sg12
I16
sg13
VCAMBRIDGE
p6696
sba(lp6697
(lp6698
I1
aa(lp6699
I2
aI5
aa(lp6700
I3
aI4
aa(lp6701
a(lp6702
a(lp6703
I6
aI7
aa(lp6704
a(lp6705
I8
aI9
aa(lp6706
a(lp6707
I10
aI11
aa(lp6708
a(lp6709
I12
aI15
aI16
aa(lp6710
I13
aI14
aa(lp6711
a(lp6712
a(lp6713
a(lp6714
I17
aI18
aI19
aI20
aa(lp6715
a(lp6716
a(lp6717
a(lp6718
a(lp6719
NaNag121
aNaNaNaNaNaNaNaNaNaNag122
aNaNaNaNaNaNaNaI1
tp6720
a(g6612
g6697
(lp6721
NaNaNaNaNaNaNaNaNaNaNag121
aNag122
aNaNaNaNaNaNaNaI11
tp6722
a(g6612
g6697
(lp6723
NaNag121
aNaNaNaNaNaNaNaNaNaNaNaNaNaNag122
aNaNaNaI1
tp6724
a(g6612
g6697
(lp6725
NaNaNaNaNaNaNaNaNaNaNag121
aNaNaNaNaNag122
aNaNaNaI11
tp6726
a((lp6727
g3
(g4
g5
NtRp6728
(dp6729
g8
V ANTONY HEWISH ATTENDED KING 'S COLLEGE , TAUNTON .
p6730
sg10
VROOT
p6731
sg12
Nsg13
Nsbag3
(g4
g5
NtRp6732
(dp6733
g8
V ANTONY HEWISH ATTENDED KING 'S COLLEGE , TAUNTON .
p6734
sg10
VS
sg12
I0
sg13
Nsbag3
(g4
g5
NtRp6735
(dp6736
g8
VANTONY
p6737
sg10
VNP
p6738
sg12
I1
sg13
Nsbag3
(g4
g5
NtRp6739
(dp6740
g8
g6737
sg10
VNNP
p6741
sg12
I2
sg13
Nsbag3
(g4
g5
NtRp6742
(dp6743
g8
S'HEWISH'
p6744
sg10
VNNP
p6745
sg12
I2
sg13
VHEWISH
p6746
sbag3
(g4
g5
NtRp6747
(dp6748
g8
S'ATTEND'
p6749
sg10
VVP
p6750
sg12
I1
sg13
Nsbag3
(g4
g5
NtRp6751
(dp6752
g8
g6749
sg10
VVBD
p6753
sg12
I5
sg13
VATTENDED
p6754
sbag3
(g4
g5
NtRp6755
(dp6756
g8
S'KING'
p6757
sg10
VNP
p6758
sg12
I5
sg13
Nsbag3
(g4
g5
NtRp6759
(dp6760
g8
g6757
sg10
VNP
p6761
sg12
I7
sg13
Nsbag3
(g4
g5
NtRp6762
(dp6763
g8
g6757
sg10
VNP
p6764
sg12
I8
sg13
Nsbag3
(g4
g5
NtRp6765
(dp6766
g8
g6757
sg10
VNNP
p6767
sg12
I9
sg13
VKING
p6768
sbag3
(g4
g5
NtRp6769
(dp6770
g8
S"'S"
p6771
sg10
VPOS
p6772
sg12
I9
sg13
V'S
p6773
sbag3
(g4
g5
NtRp6774
(dp6775
g8
S'COLLEGE'
p6776
sg10
VNNP
p6777
sg12
I8
sg13
VCOLLEGE
p6778
sbag3
(g4
g5
NtRp6779
(dp6780
g8
S','
sg10
V,
sg12
I7
sg13
V,
sbag3
(g4
g5
NtRp6781
(dp6782
g8
S'TAUNTON'
p6783
sg10
VNP
p6784
sg12
I7
sg13
VTAUNTON
p6785
sbag3
(g4
g5
NtRp6786
(dp6787
g8
g6783
sg10
VNNP
p6788
sg12
I14
sg13
VTAUNTON
p6789
sbag3
(g4
g5
NtRp6790
(dp6791
g8
S'.'
sg10
V.
sg12
I1
sg13
V.
sba(lp6792
(lp6793
I1
aa(lp6794
I2
aI5
aI16
aa(lp6795
I3
aI4
aa(lp6796
a(lp6797
a(lp6798
I6
aI7
aa(lp6799
a(lp6800
I8
aI13
aI14
aa(lp6801
I9
aI12
aa(lp6802
I10
aI11
aa(lp6803
a(lp6804
a(lp6805
a(lp6806
a(lp6807
I15
aa(lp6808
a(lp6809
a(lp6810
NaNag121
aNaNaNaNaNaNaNag122
aNaNaNaNaNaNaI1
tp6811
a(g6727
g6792
(lp6812
NaNaNaNaNaNaNag121
aNaNag122
aNaNaNaNaNaNaI7
tp6813
a(g6727
g6792
(lp6814
NaNaNaNaNaNaNaNaNaNag122
aNaNaNag121
aNaNaI7
tp6815
a((lp6816
g3
(g4
g5
NtRp6817
(dp6818
g8
V ZEISLER GRADUATED FROM NORTHWESTERN UNIVERSITY LAW SCHOOL IN 1884 .
p6819
sg10
VROOT
p6820
sg12
Nsg13
Nsbag3
(g4
g5
NtRp6821
(dp6822
g8
V ZEISLER GRADUATED FROM NORTHWESTERN UNIVERSITY LAW SCHOOL IN 1884 .
p6823
sg10
VS
sg12
I0
sg13
Nsbag3
(g4
g5
NtRp6824
(dp6825
g8
VZEISLER
p6826
sg10
VNP
p6827
sg12
I1
sg13
Nsbag3
(g4
g5
NtRp6828
(dp6829
g8
g6826
sg10
VNNP
p6830
sg12
I2
sg13
Nsbag3
(g4
g5
NtRp6831
(dp6832
g8
S'GRADUATE'
p6833
sg10
VVP
p6834
sg12
I1
sg13
Nsbag3
(g4
g5
NtRp6835
(dp6836
g8
g6833
sg10
VVBD
p6837
sg12
I4
sg13
VGRADUATED
p6838
sbag3
(g4
g5
NtRp6839
(dp6840
g8
S'FROM'
p6841
sg10
VPP
p6842
sg12
I4
sg13
Nsbag3
(g4
g5
NtRp6843
(dp6844
g8
g6841
sg10
VIN
p6845
sg12
I6
sg13
VFROM
p6846
sbag3
(g4
g5
NtRp6847
(dp6848
g8
S'NORTHWESTERN'
p6849
sg10
VNP
p6850
sg12
I6
sg13
Nsbag3
(g4
g5
NtRp6851
(dp6852
g8
g6849
sg10
VNNP
p6853
sg12
I8
sg13
VNORTHWESTERN
p6854
sbag3
(g4
g5
NtRp6855
(dp6856
g8
S'UNIVERSITY'
p6857
sg10
VNNP
p6858
sg12
I8
sg13
VUNIVERSITY
p6859
sbag3
(g4
g5
NtRp6860
(dp6861
g8
S'LAW'
p6862
sg10
VNNP
p6863
sg12
I8
sg13
VLAW
p6864
sbag3
(g4
g5
NtRp6865
(dp6866
g8
S'SCHOOL'
p6867
sg10
VNNP
p6868
sg12
I8
sg13
VSCHOOL
p6869
sbag3
(g4
g5
NtRp6870
(dp6871
g8
S'IN'
p6872
sg10
VPP
p6873
sg12
I4
sg13
Nsbag3
(g4
g5
NtRp6874
(dp6875
g8
g6872
sg10
VIN
p6876
sg12
I13
sg13
VIN
p6877
sbag3
(g4
g5
NtRp6878
(dp6879
g8
S'1884'
p6880
sg10
VNP
p6881
sg12
I13
sg13
V1884
p6882
sbag3
(g4
g5
NtRp6883
(dp6884
g8
g6880
sg10
VCD
p6885
sg12
I15
sg13
V1884
p6886
sbag3
(g4
g5
NtRp6887
(dp6888
g8
S'.'
sg10
V.
sg12
I1
sg13
V.
sba(lp6889
(lp6890
I1
aa(lp6891
I2
aI4
aI17
aa(lp6892
I3
aa(lp6893
a(lp6894
I5
aI6
aI13
aa(lp6895
a(lp6896
I7
aI8
aa(lp6897
a(lp6898
I9
aI10
aI11
aI12
aa(lp6899
a(lp6900
a(lp6901
a(lp6902
a(lp6903
I14
aI15
aa(lp6904
a(lp6905
I16
aa(lp6906
a(lp6907
a(lp6908
NaNag121
aNaNaNaNaNaNag122
aNaNaNaNaNaNaNaNaI1
tp6909
a(g6816
g6889
(lp6910
NaNaNaNaNaNaNaNaNag122
aNaNaNaNaNag121
aNaNaI4
tp6911
a((lp6912
g3
(g4
g5
NtRp6913
(dp6914
g8
V HARRY ESCOTT STUDIED MUSIC AT THE ROYAL COLLEGE OF MUSIC AND OXFORD UNIVERSITY .
p6915
sg10
VROOT
p6916
sg12
Nsg13
Nsbag3
(g4
g5
NtRp6917
(dp6918
g8
V HARRY ESCOTT STUDIED MUSIC AT THE ROYAL COLLEGE OF MUSIC AND OXFORD UNIVERSITY .
p6919
sg10
VS
sg12
I0
sg13
Nsbag3
(g4
g5
NtRp6920
(dp6921
g8
VHARRY
p6922
sg10
VNP
p6923
sg12
I1
sg13
Nsbag3
(g4
g5
NtRp6924
(dp6925
g8
g6922
sg10
VNNP
p6926
sg12
I2
sg13
Nsbag3
(g4
g5
NtRp6927
(dp6928
g8
S'ESCOTT'
p6929
sg10
VNNP
p6930
sg12
I2
sg13
VESCOTT
p6931
sbag3
(g4
g5
NtRp6932
(dp6933
g8
S'STUDY'
p6934
sg10
VVP
p6935
sg12
I1
sg13
Nsbag3
(g4
g5
NtRp6936
(dp6937
g8
g6934
sg10
VVBD
p6938
sg12
I5
sg13
VSTUDIED
p6939
sbag3
(g4
g5
NtRp6940
(dp6941
g8
S'MUSIC'
p6942
sg10
VNP
p6943
sg12
I5
sg13
VMUSIC
p6944
sbag3
(g4
g5
NtRp6945
(dp6946
g8
g6942
sg10
VNN
p6947
sg12
I7
sg13
VMUSIC
p6948
sbag3
(g4
g5
NtRp6949
(dp6950
g8
S'AT'
p6951
sg10
VPP
p6952
sg12
I5
sg13
Nsbag3
(g4
g5
NtRp6953
(dp6954
g8
g6951
sg10
VIN
p6955
sg12
I9
sg13
VAT
p6956
sbag3
(g4
g5
NtRp6957
(dp6958
g8
S'ROYAL'
p6959
sg10
VNP
p6960
sg12
I9
sg13
Nsbag3
(g4
g5
NtRp6961
(dp6962
g8
g6959
sg10
VNP
p6963
sg12
I11
sg13
Nsbag3
(g4
g5
NtRp6964
(dp6965
g8
S'THE'
p6966
sg10
VDT
p6967
sg12
I12
sg13
VTHE
p6968
sbag3
(g4
g5
NtRp6969
(dp6970
g8
g6959
sg10
VNNP
p6971
sg12
I12
sg13
VROYAL
p6972
sbag3
(g4
g5
NtRp6973
(dp6974
g8
S'COLLEGE'
p6975
sg10
VNNP
p6976
sg12
I12
sg13
VCOLLEGE
p6977
sbag3
(g4
g5
NtRp6978
(dp6979
g8
S'OF'
p6980
sg10
VPP
p6981
sg12
I11
sg13
Nsbag3
(g4
g5
NtRp6982
(dp6983
g8
g6980
sg10
VIN
p6984
sg12
I16
sg13
VOF
p6985
sbag3
(g4
g5
NtRp6986
(dp6987
g8
g6942
sg10
VNP
p6988
sg12
I16
sg13
Nsbag3
(g4
g5
NtRp6989
(dp6990
g8
g6942
sg10
VNNP
p6991
sg12
I18
sg13
VMUSIC
p6992
sbag3
(g4
g5
NtRp6993
(dp6994
g8
S'AND'
p6995
sg10
VCC
p6996
sg12
I18
sg13
VAND
p6997
sbag3
(g4
g5
NtRp6998
(dp6999
g8
S'OXFORD'
p7000
sg10
VNNP
p7001
sg12
I18
sg13
VOXFORD
p7002
sbag3
(g4
g5
NtRp7003
(dp7004
g8
S'UNIVERSITY'
p7005
sg10
VNNP
p7006
sg12
I18
sg13
VUNIVERSITY
p7007
sbag3
(g4
g5
NtRp7008
(dp7009
g8
S'.'
sg10
V.
sg12
I1
sg13
V.
sba(lp7010
(lp7011
I1
aa(lp7012
I2
aI5
aI23
aa(lp7013
I3
aI4
aa(lp7014
a(lp7015
a(lp7016
I6
aI7
aI9
aa(lp7017
a(lp7018
I8
aa(lp7019
a(lp7020
I10
aI11
aa(lp7021
a(lp7022
I12
aI16
aa(lp7023
I13
aI14
aI15
aa(lp7024
a(lp7025
a(lp7026
a(lp7027
I17
aI18
aa(lp7028
a(lp7029
I19
aI20
aI21
aI22
aa(lp7030
a(lp7031
a(lp7032
a(lp7033
a(lp7034
a(lp7035
NaNag121
aNaNaNaNag122
aNaNaNaNaNaNaNaNaNaNaNaNaNaNaNaNaI1
tp7036
a(g6912
g7010
(lp7037
NaNaNaNaNaNaNag122
aNaNaNag121
aNaNaNaNaNaNaNaNaNaNaNaNaI5
tp7038
a(g6912
g7010
(lp7039
NaNag121
aNaNaNaNaNaNaNaNaNaNaNaNaNaNaNaNag122
aNaNaNaNaI1
tp7040
a(g6912
g7010
(lp7041
NaNaNaNaNaNaNaNaNaNaNag121
aNaNaNaNaNaNaNag122
aNaNaNaNaI11
tp7042
a(g6912
g7010
(lp7043
NaNag121
aNaNaNaNaNaNaNaNaNaNaNaNaNaNaNaNaNaNag122
aNaNaI1
tp7044
a(g6912
g7010
(lp7045
NaNaNaNaNaNaNaNaNaNaNag121
aNaNaNaNaNaNaNaNaNag122
aNaNaI11
tp7046
a((lp7047
g3
(g4
g5
NtRp7048
(dp7049
g8
V BORN IN LONDON , RICHARD CAUSTON ATTENDED QUINTIN KYNASTON SCHOOL AND WILLIAM ELLIS SCHOOLS .
p7050
sg10
VROOT
p7051
sg12
Nsg13
Nsbag3
(g4
g5
NtRp7052
(dp7053
g8
V BORN IN LONDON , RICHARD CAUSTON ATTENDED QUINTIN KYNASTON SCHOOL AND WILLIAM ELLIS SCHOOLS .
p7054
sg10
VS
sg12
I0
sg13
Nsbag3
(g4
g5
NtRp7055
(dp7056
g8
VBORN
p7057
sg10
VS
sg12
I1
sg13
Nsbag3
(g4
g5
NtRp7058
(dp7059
g8
g7057
sg10
VVP
p7060
sg12
I2
sg13
Nsbag3
(g4
g5
NtRp7061
(dp7062
g8
g7057
sg10
VVBN
p7063
sg12
I3
sg13
Nsbag3
(g4
g5
NtRp7064
(dp7065
g8
S'IN'
p7066
sg10
VPP
p7067
sg12
I3
sg13
Nsbag3
(g4
g5
NtRp7068
(dp7069
g8
g7066
sg10
VIN
p7070
sg12
I5
sg13
VIN
p7071
sbag3
(g4
g5
NtRp7072
(dp7073
g8
S'LONDON'
p7074
sg10
VNP
p7075
sg12
I5
sg13
VLONDON
p7076
sbag3
(g4
g5
NtRp7077
(dp7078
g8
g7074
sg10
VNNP
p7079
sg12
I7
sg13
VLONDON
p7080
sbag3
(g4
g5
NtRp7081
(dp7082
g8
S','
sg10
V,
sg12
I1
sg13
V,
sbag3
(g4
g5
NtRp7083
(dp7084
g8
S'RICHARD'
p7085
sg10
VNP
p7086
sg12
I1
sg13
Nsbag3
(g4
g5
NtRp7087
(dp7088
g8
g7085
sg10
VNNP
p7089
sg12
I10
sg13
VRICHARD
p7090
sbag3
(g4
g5
NtRp7091
(dp7092
g8
S'CAUSTON'
p7093
sg10
VNNP
p7094
sg12
I10
sg13
VCAUSTON
p7095
sbag3
(g4
g5
NtRp7096
(dp7097
g8
S'ATTEND'
p7098
sg10
VVP
p7099
sg12
I1
sg13
Nsbag3
(g4
g5
NtRp7100
(dp7101
g8
g7098
sg10
VVBD
p7102
sg12
I13
sg13
VATTENDED
p7103
sbag3
(g4
g5
NtRp7104
(dp7105
g8
S'QUINTIN'
p7106
sg10
VNP
p7107
sg12
I13
sg13
Nsbag3
(g4
g5
NtRp7108
(dp7109
g8
g7106
sg10
VNP
p7110
sg12
I15
sg13
Nsbag3
(g4
g5
NtRp7111
(dp7112
g8
g7106
sg10
VNNP
p7113
sg12
I16
sg13
VQUINTIN
p7114
sbag3
(g4
g5
NtRp7115
(dp7116
g8
S'KYNASTON'
p7117
sg10
VNNP
p7118
sg12
I16
sg13
VKYNASTON
p7119
sbag3
(g4
g5
NtRp7120
(dp7121
g8
S'SCHOOL'
p7122
sg10
VNNP
p7123
sg12
I16
sg13
VSCHOOL
p7124
sbag3
(g4
g5
NtRp7125
(dp7126
g8
S'AND'
p7127
sg10
VCC
p7128
sg12
I15
sg13
VAND
p7129
sbag3
(g4
g5
NtRp7130
(dp7131
g8
S'WILLIAM'
p7132
sg10
VNP
p7133
sg12
I15
sg13
Nsbag3
(g4
g5
NtRp7134
(dp7135
g8
g7132
sg10
VNNP
p7136
sg12
I21
sg13
VWILLIAM
p7137
sbag3
(g4
g5
NtRp7138
(dp7139
g8
S'ELLIS'
p7140
sg10
VNNP
p7141
sg12
I21
sg13
VELLIS
p7142
sbag3
(g4
g5
NtRp7143
(dp7144
g8
S'SCHOOLS'
p7145
sg10
VNNP
p7146
sg12
I21
sg13
VSCHOOLS
p7147
sbag3
(g4
g5
NtRp7148
(dp7149
g8
S'.'
sg10
V.
sg12
I1
sg13
V.
sba(lp7150
(lp7151
I1
aa(lp7152
I2
aI9
aI10
aI13
aI25
aa(lp7153
I3
aa(lp7154
I4
aI5
aa(lp7155
a(lp7156
I6
aI7
aa(lp7157
a(lp7158
I8
aa(lp7159
a(lp7160
a(lp7161
I11
aI12
aa(lp7162
a(lp7163
a(lp7164
I14
aI15
aa(lp7165
a(lp7166
I16
aI20
aI21
aa(lp7167
I17
aI18
aI19
aa(lp7168
a(lp7169
a(lp7170
a(lp7171
a(lp7172
I22
aI23
aI24
aa(lp7173
a(lp7174
a(lp7175
a(lp7176
a(lp7177
NaNaNaNaNaNaNag121
aNaNaNaNaNaNaNaNaNag122
aNaNaNaNaNaNaNaNaI1
tp7178
a(g7047
g7150
(lp7179
NaNaNaNaNaNaNaNaNaNag121
aNaNaNaNaNaNag122
aNaNaNaNaNaNaNaNaI1
tp7180
a(g7047
g7150
(lp7181
NaNaNaNaNaNaNaNaNaNaNaNaNaNaNag121
aNag122
aNaNaNaNaNaNaNaNaI15
tp7182
a(g7047
g7150
(lp7183
NaNaNaNaNaNaNaNaNaNaNaNaNaNaNaNaNag122
aNaNaNag121
aNaNaNaNaI15
tp7184
a((lp7185
g3
(g4
g5
NtRp7186
(dp7187
g8
V MEHMET ZHASEKI COMPLETED HIS EDUCATION AT THE ISTANBUL UNIVERSITY FACULTY OF LAW .
p7188
sg10
VROOT
p7189
sg12
Nsg13
Nsbag3
(g4
g5
NtRp7190
(dp7191
g8
V MEHMET ZHASEKI COMPLETED HIS EDUCATION AT THE ISTANBUL UNIVERSITY FACULTY OF LAW .
p7192
sg10
VS
sg12
I0
sg13
Nsbag3
(g4
g5
NtRp7193
(dp7194
g8
VMEHMET
p7195
sg10
VNP
p7196
sg12
I1
sg13
Nsbag3
(g4
g5
NtRp7197
(dp7198
g8
g7195
sg10
VNNP
p7199
sg12
I2
sg13
Nsbag3
(g4
g5
NtRp7200
(dp7201
g8
VZHASEKI
p7202
sg10
VNNP
p7203
sg12
I2
sg13
Nsbag3
(g4
g5
NtRp7204
(dp7205
g8
S'COMPLETE'
p7206
sg10
VVP
p7207
sg12
I1
sg13
Nsbag3
(g4
g5
NtRp7208
(dp7209
g8
g7206
sg10
VVBD
p7210
sg12
I5
sg13
VCOMPLETED
p7211
sbag3
(g4
g5
NtRp7212
(dp7213
g8
S'EDUCATION'
p7214
sg10
VNP
p7215
sg12
I5
sg13
Nsbag3
(g4
g5
NtRp7216
(dp7217
g8
S'HE'
p7218
sg10
VPRP$
p7219
sg12
I7
sg13
VHIS
p7220
sbag3
(g4
g5
NtRp7221
(dp7222
g8
g7214
sg10
VNN
p7223
sg12
I7
sg13
VEDUCATION
p7224
sbag3
(g4
g5
NtRp7225
(dp7226
g8
S'AT'
p7227
sg10
VPP
p7228
sg12
I5
sg13
Nsbag3
(g4
g5
NtRp7229
(dp7230
g8
g7227
sg10
VIN
p7231
sg12
I10
sg13
VAT
p7232
sbag3
(g4
g5
NtRp7233
(dp7234
g8
S'ISTANBUL'
p7235
sg10
VNP
p7236
sg12
I10
sg13
Nsbag3
(g4
g5
NtRp7237
(dp7238
g8
g7235
sg10
VNP
p7239
sg12
I12
sg13
Nsbag3
(g4
g5
NtRp7240
(dp7241
g8
S'THE'
p7242
sg10
VDT
p7243
sg12
I13
sg13
VTHE
p7244
sbag3
(g4
g5
NtRp7245
(dp7246
g8
g7235
sg10
VNNP
p7247
sg12
I13
sg13
VISTANBUL
p7248
sbag3
(g4
g5
NtRp7249
(dp7250
g8
S'UNIVERSITY'
p7251
sg10
VNNP
p7252
sg12
I13
sg13
VUNIVERSITY
p7253
sbag3
(g4
g5
NtRp7254
(dp7255
g8
S'FACULTY'
p7256
sg10
VNNP
p7257
sg12
I13
sg13
VFACULTY
p7258
sbag3
(g4
g5
NtRp7259
(dp7260
g8
S'OF'
p7261
sg10
VPP
p7262
sg12
I12
sg13
Nsbag3
(g4
g5
NtRp7263
(dp7264
g8
g7261
sg10
VIN
p7265
sg12
I18
sg13
VOF
p7266
sbag3
(g4
g5
NtRp7267
(dp7268
g8
S'LAW'
p7269
sg10
VNP
p7270
sg12
I18
sg13
VLAW
p7271
sbag3
(g4
g5
NtRp7272
(dp7273
g8
g7269
sg10
VNNP
p7274
sg12
I20
sg13
VLAW
p7275
sbag3
(g4
g5
NtRp7276
(dp7277
g8
S'.'
sg10
V.
sg12
I1
sg13
V.
sba(lp7278
(lp7279
I1
aa(lp7280
I2
aI5
aI22
aa(lp7281
I3
aI4
aa(lp7282
a(lp7283
a(lp7284
I6
aI7
aI10
aa(lp7285
a(lp7286
I8
aI9
aa(lp7287
a(lp7288
a(lp7289
I11
aI12
aa(lp7290
a(lp7291
I13
aI18
aa(lp7292
I14
aI15
aI16
aI17
aa(lp7293
a(lp7294
a(lp7295
a(lp7296
a(lp7297
I19
aI20
aa(lp7298
a(lp7299
I21
aa(lp7300
a(lp7301
a(lp7302
NaNag121
aNaNaNaNaNaNaNaNaNaNaNaNag122
aNaNaNaNaNaNaNaI1
tp7303
a(g7185
g7278
(lp7304
NaNaNaNaNaNaNag121
aNaNaNaNaNaNaNag122
aNaNaNaNaNaNaNaI5
tp7305
a(g7185
g7278
(lp7306
NaNaNaNaNaNaNaNaNag121
aNaNaNaNaNag122
aNaNaNaNaNaNaNaI5
tp7307
a(g7185
g7278
(lp7308
NaNaNaNaNaNaNaNaNaNaNaNag121
aNaNag122
aNaNaNaNaNaNaNaI12
tp7309
a((lp7310
g3
(g4
g5
NtRp7311
(dp7312
g8
V IN 1967 , FATIMA HAJAIG EARNED HER LLB FROM ETVS LORND UNIVERSITY IN HUNGARY .
p7313
sg10
VROOT
p7314
sg12
Nsg13
Nsbag3
(g4
g5
NtRp7315
(dp7316
g8
V IN 1967 , FATIMA HAJAIG EARNED HER LLB FROM ETVS LORND UNIVERSITY IN HUNGARY .
p7317
sg10
VS
sg12
I0
sg13
Nsbag3
(g4
g5
NtRp7318
(dp7319
g8
S'IN'
p7320
sg10
VPP
p7321
sg12
I1
sg13
Nsbag3
(g4
g5
NtRp7322
(dp7323
g8
g7320
sg10
VIN
p7324
sg12
I2
sg13
VIN
p7325
sbag3
(g4
g5
NtRp7326
(dp7327
g8
S'1967'
p7328
sg10
VNP
p7329
sg12
I2
sg13
V1967
p7330
sbag3
(g4
g5
NtRp7331
(dp7332
g8
g7328
sg10
VCD
p7333
sg12
I4
sg13
V1967
p7334
sbag3
(g4
g5
NtRp7335
(dp7336
g8
S','
sg10
V,
sg12
I1
sg13
V,
sbag3
(g4
g5
NtRp7337
(dp7338
g8
S'FATIMA'
p7339
sg10
VNP
p7340
sg12
I1
sg13
Nsbag3
(g4
g5
NtRp7341
(dp7342
g8
g7339
sg10
VNNP
p7343
sg12
I7
sg13
VFATIMA
p7344
sbag3
(g4
g5
NtRp7345
(dp7346
g8
S'HAJAIG'
p7347
sg10
VNNP
p7348
sg12
I7
sg13
VHAJAIG
p7349
sbag3
(g4
g5
NtRp7350
(dp7351
g8
S'EARN'
p7352
sg10
VVP
p7353
sg12
I1
sg13
Nsbag3
(g4
g5
NtRp7354
(dp7355
g8
g7352
sg10
VVBD
p7356
sg12
I10
sg13
VEARNED
p7357
sbag3
(g4
g5
NtRp7358
(dp7359
g8
S'LLB'
p7360
sg10
VNP
p7361
sg12
I10
sg13
Nsbag3
(g4
g5
NtRp7362
(dp7363
g8
S'SHE'
p7364
sg10
VPRP$
p7365
sg12
I12
sg13
VHER
p7366
sbag3
(g4
g5
NtRp7367
(dp7368
g8
g7360
sg10
VNN
p7369
sg12
I12
sg13
VLLB
p7370
sbag3
(g4
g5
NtRp7371
(dp7372
g8
S'FROM'
p7373
sg10
VPP
p7374
sg12
I10
sg13
Nsbag3
(g4
g5
NtRp7375
(dp7376
g8
g7373
sg10
VIN
p7377
sg12
I15
sg13
VFROM
p7378
sbag3
(g4
g5
NtRp7379
(dp7380
g8
VETVS
p7381
sg10
VNP
p7382
sg12
I15
sg13
Nsbag3
(g4
g5
NtRp7383
(dp7384
g8
g7381
sg10
VNP
p7385
sg12
I17
sg13
Nsbag3
(g4
g5
NtRp7386
(dp7387
g8
g7381
sg10
VNNP
p7388
sg12
I18
sg13
Nsbag3
(g4
g5
NtRp7389
(dp7390
g8
VLORND
p7391
sg10
VNNP
p7392
sg12
I18
sg13
Nsbag3
(g4
g5
NtRp7393
(dp7394
g8
S'UNIVERSITY'
p7395
sg10
VNNP
p7396
sg12
I18
sg13
VUNIVERSITY
p7397
sbag3
(g4
g5
NtRp7398
(dp7399
g8
g7320
sg10
VPP
p7400
sg12
I17
sg13
Nsbag3
(g4
g5
NtRp7401
(dp7402
g8
g7320
sg10
VIN
p7403
sg12
I22
sg13
VIN
p7404
sbag3
(g4
g5
NtRp7405
(dp7406
g8
S'HUNGARY'
p7407
sg10
VNP
p7408
sg12
I22
sg13
VHUNGARY
p7409
sbag3
(g4
g5
NtRp7410
(dp7411
g8
g7407
sg10
VNNP
p7412
sg12
I24
sg13
VHUNGARY
p7413
sbag3
(g4
g5
NtRp7414
(dp7415
g8
S'.'
sg10
V.
sg12
I1
sg13
V.
sba(lp7416
(lp7417
I1
aa(lp7418
I2
aI6
aI7
aI10
aI26
aa(lp7419
I3
aI4
aa(lp7420
a(lp7421
I5
aa(lp7422
a(lp7423
a(lp7424
I8
aI9
aa(lp7425
a(lp7426
a(lp7427
I11
aI12
aI15
aa(lp7428
a(lp7429
I13
aI14
aa(lp7430
a(lp7431
a(lp7432
I16
aI17
aa(lp7433
a(lp7434
I18
aI22
aa(lp7435
I19
aI20
aI21
aa(lp7436
a(lp7437
a(lp7438
a(lp7439
I23
aI24
aa(lp7440
a(lp7441
I25
aa(lp7442
a(lp7443
a(lp7444
NaNaNaNag121
aNaNaNaNaNaNaNaNaNaNaNaNaNaNaNaNag122
aNaNaNaNaNaI1
tp7445
a(g7310
g7416
(lp7446
NaNaNaNaNaNaNag121
aNaNaNaNaNaNaNaNaNaNaNaNaNag122
aNaNaNaNaNaI1
tp7447
a(g7310
g7416
(lp7448
NaNaNaNaNaNaNaNaNaNaNaNag121
aNaNaNaNaNaNaNaNag122
aNaNaNaNaNaI10
tp7449
a(g7310
g7416
(lp7450
NaNaNaNaNaNaNaNaNaNaNaNaNaNag121
aNaNaNaNaNaNag122
aNaNaNaNaNaI10
tp7451
a(g7310
g7416
(lp7452
NaNaNaNaNaNaNaNaNaNaNaNaNaNaNaNaNag121
aNaNaNag122
aNaNaNaNaNaI17
tp7453
a(g7310
g7416
(lp7454
NaNaNaNaNaNaNaNaNaNaNaNaNaNaNaNaNaNaNaNaNag122
aNaNag121
aNaNaI17
tp7455
a((lp7456
g3
(g4
g5
NtRp7457
(dp7458
g8
V RHODES GRADUATED FROM THE COMMAND AND GENERAL STAFF COLLEGE IN 1908 .
p7459
sg10
VROOT
p7460
sg12
Nsg13
Nsbag3
(g4
g5
NtRp7461
(dp7462
g8
V RHODES GRADUATED FROM THE COMMAND AND GENERAL STAFF COLLEGE IN 1908 .
p7463
sg10
VS
sg12
I0
sg13
Nsbag3
(g4
g5
NtRp7464
(dp7465
g8
VRHODES
p7466
sg10
VNP
p7467
sg12
I1
sg13
Nsbag3
(g4
g5
NtRp7468
(dp7469
g8
g7466
sg10
VNNP
p7470
sg12
I2
sg13
Nsbag3
(g4
g5
NtRp7471
(dp7472
g8
S'GRADUATE'
p7473
sg10
VVP
p7474
sg12
I1
sg13
Nsbag3
(g4
g5
NtRp7475
(dp7476
g8
g7473
sg10
VVBD
p7477
sg12
I4
sg13
VGRADUATED
p7478
sbag3
(g4
g5
NtRp7479
(dp7480
g8
S'FROM'
p7481
sg10
VPP
p7482
sg12
I4
sg13
Nsbag3
(g4
g5
NtRp7483
(dp7484
g8
g7481
sg10
VIN
p7485
sg12
I6
sg13
VFROM
p7486
sbag3
(g4
g5
NtRp7487
(dp7488
g8
S'COMMAND'
p7489
sg10
VNP
p7490
sg12
I6
sg13
Nsbag3
(g4
g5
NtRp7491
(dp7492
g8
g7489
sg10
VNP
p7493
sg12
I8
sg13
Nsbag3
(g4
g5
NtRp7494
(dp7495
g8
S'THE'
p7496
sg10
VDT
p7497
sg12
I9
sg13
VTHE
p7498
sbag3
(g4
g5
NtRp7499
(dp7500
g8
g7489
sg10
VNN
p7501
sg12
I9
sg13
VCOMMAND
p7502
sbag3
(g4
g5
NtRp7503
(dp7504
g8
S'AND'
p7505
sg10
VCC
p7506
sg12
I8
sg13
VAND
p7507
sbag3
(g4
g5
NtRp7508
(dp7509
g8
S'GENERAL'
p7510
sg10
VNP
p7511
sg12
I8
sg13
Nsbag3
(g4
g5
NtRp7512
(dp7513
g8
g7510
sg10
VNNP
p7514
sg12
I13
sg13
VGENERAL
p7515
sbag3
(g4
g5
NtRp7516
(dp7517
g8
S'STAFF'
p7518
sg10
VNNP
p7519
sg12
I13
sg13
VSTAFF
p7520
sbag3
(g4
g5
NtRp7521
(dp7522
g8
S'COLLEGE'
p7523
sg10
VNNP
p7524
sg12
I13
sg13
VCOLLEGE
p7525
sbag3
(g4
g5
NtRp7526
(dp7527
g8
S'IN'
p7528
sg10
VPP
p7529
sg12
I4
sg13
Nsbag3
(g4
g5
NtRp7530
(dp7531
g8
g7528
sg10
VIN
p7532
sg12
I17
sg13
VIN
p7533
sbag3
(g4
g5
NtRp7534
(dp7535
g8
S'1908'
p7536
sg10
VNP
p7537
sg12
I17
sg13
V1908
p7538
sbag3
(g4
g5
NtRp7539
(dp7540
g8
g7536
sg10
VCD
p7541
sg12
I19
sg13
V1908
p7542
sbag3
(g4
g5
NtRp7543
(dp7544
g8
S'.'
sg10
V.
sg12
I1
sg13
V.
sba(lp7545
(lp7546
I1
aa(lp7547
I2
aI4
aI21
aa(lp7548
I3
aa(lp7549
a(lp7550
I5
aI6
aI17
aa(lp7551
a(lp7552
I7
aI8
aa(lp7553
a(lp7554
I9
aI12
aI13
aa(lp7555
I10
aI11
aa(lp7556
a(lp7557
a(lp7558
a(lp7559
I14
aI15
aI16
aa(lp7560
a(lp7561
a(lp7562
a(lp7563
I18
aI19
aa(lp7564
a(lp7565
I20
aa(lp7566
a(lp7567
a(lp7568
NaNag121
aNaNaNaNaNaNaNaNag122
aNaNaNaNaNaNaNaNaNaNaI1
tp7569
a(g7456
g7545
(lp7570
NaNaNaNaNaNaNaNag121
aNaNag122
aNaNaNaNaNaNaNaNaNaNaI8
tp7571
a(g7456
g7545
(lp7572
NaNaNaNaNaNaNaNaNaNaNag122
aNaNaNaNaNaNaNag121
aNaNaI4
tp7573
a(g7456
g7545
(lp7574
NaNag121
aNaNaNaNaNaNaNaNaNaNaNag122
aNaNaNaNaNaNaNaI1
tp7575
a(g7456
g7545
(lp7576
NaNaNaNaNaNaNaNag121
aNaNaNaNaNag122
aNaNaNaNaNaNaNaI8
tp7577
a(g7456
g7545
(lp7578
NaNaNaNaNaNaNaNaNaNaNaNaNaNag122
aNaNaNaNag121
aNaNaI4
tp7579
a((lp7580
g3
(g4
g5
NtRp7581
(dp7582
g8
V MARIJON ANCICH ATTENDED SAN PEDRO HIGH SCHOOL , GRADUATING IN 1955 .
p7583
sg10
VROOT
p7584
sg12
Nsg13
Nsbag3
(g4
g5
NtRp7585
(dp7586
g8
V MARIJON ANCICH ATTENDED SAN PEDRO HIGH SCHOOL , GRADUATING IN 1955 .
p7587
sg10
VS
sg12
I0
sg13
Nsbag3
(g4
g5
NtRp7588
(dp7589
g8
VMARIJON
p7590
sg10
VNP
p7591
sg12
I1
sg13
Nsbag3
(g4
g5
NtRp7592
(dp7593
g8
g7590
sg10
VNNP
p7594
sg12
I2
sg13
Nsbag3
(g4
g5
NtRp7595
(dp7596
g8
S'ANCICH'
p7597
sg10
VNNP
p7598
sg12
I2
sg13
VANCICH
p7599
sbag3
(g4
g5
NtRp7600
(dp7601
g8
S'ATTEND'
p7602
sg10
VVP
p7603
sg12
I1
sg13
Nsbag3
(g4
g5
NtRp7604
(dp7605
g8
g7602
sg10
VVBD
p7606
sg12
I5
sg13
VATTENDED
p7607
sbag3
(g4
g5
NtRp7608
(dp7609
g8
S'SAN'
p7610
sg10
VNP
p7611
sg12
I5
sg13
Nsbag3
(g4
g5
NtRp7612
(dp7613
g8
g7610
sg10
VNNP
p7614
sg12
I7
sg13
VSAN
p7615
sbag3
(g4
g5
NtRp7616
(dp7617
g8
S'PEDRO'
p7618
sg10
VNNP
p7619
sg12
I7
sg13
VPEDRO
p7620
sbag3
(g4
g5
NtRp7621
(dp7622
g8
S'HIGH'
p7623
sg10
VNNP
p7624
sg12
I7
sg13
VHIGH
p7625
sbag3
(g4
g5
NtRp7626
(dp7627
g8
S'SCHOOL'
p7628
sg10
VNNP
p7629
sg12
I7
sg13
VSCHOOL
p7630
sbag3
(g4
g5
NtRp7631
(dp7632
g8
S','
sg10
V,
sg12
I5
sg13
V,
sbag3
(g4
g5
NtRp7633
(dp7634
g8
S'GRADUATE'
p7635
sg10
VS
sg12
I5
sg13
Nsbag3
(g4
g5
NtRp7636
(dp7637
g8
g7635
sg10
VVP
p7638
sg12
I13
sg13
Nsbag3
(g4
g5
NtRp7639
(dp7640
g8
g7635
sg10
VVBG
p7641
sg12
I14
sg13
VGRADUATING
p7642
sbag3
(g4
g5
NtRp7643
(dp7644
g8
S'IN'
p7645
sg10
VPP
p7646
sg12
I14
sg13
Nsbag3
(g4
g5
NtRp7647
(dp7648
g8
g7645
sg10
VIN
p7649
sg12
I16
sg13
VIN
p7650
sbag3
(g4
g5
NtRp7651
(dp7652
g8
S'1955'
p7653
sg10
VNP
p7654
sg12
I16
sg13
V1955
p7655
sbag3
(g4
g5
NtRp7656
(dp7657
g8
g7653
sg10
VCD
p7658
sg12
I18
sg13
V1955
p7659
sbag3
(g4
g5
NtRp7660
(dp7661
g8
S'.'
sg10
V.
sg12
I1
sg13
V.
sba(lp7662
(lp7663
I1
aa(lp7664
I2
aI5
aI20
aa(lp7665
I3
aI4
aa(lp7666
a(lp7667
a(lp7668
I6
aI7
aI12
aI13
aa(lp7669
a(lp7670
I8
aI9
aI10
aI11
aa(lp7671
a(lp7672
a(lp7673
a(lp7674
a(lp7675
a(lp7676
I14
aa(lp7677
I15
aI16
aa(lp7678
a(lp7679
I17
aI18
aa(lp7680
a(lp7681
I19
aa(lp7682
a(lp7683
a(lp7684
NaNag121
aNaNaNaNaNag122
aNaNaNaNaNaNaNaNaNaNaNaNaI1
tp7685
a(g7580
g7662
(lp7686
NaNaNaNaNaNaNaNag122
aNaNaNaNaNaNaNaNaNag121
aNaNaI5
tp7687
a((lp7688
g3
(g4
g5
NtRp7689
(dp7690
g8
V FROM 1956-1958 LAL MANI JOSHI STUDIED AT THE UNIVERSITY OF ALLAHABAD FOR B.A.
p7691
sg10
VROOT
p7692
sg12
Nsg13
Nsbag3
(g4
g5
NtRp7693
(dp7694
g8
V FROM 1956-1958 LAL MANI JOSHI STUDIED AT THE UNIVERSITY OF ALLAHABAD FOR B.A.
p7695
sg10
VPP
p7696
sg12
I0
sg13
Nsbag3
(g4
g5
NtRp7697
(dp7698
g8
VFROM
p7699
sg10
VIN
p7700
sg12
I1
sg13
Nsbag3
(g4
g5
NtRp7701
(dp7702
g8
S'LAL'
p7703
sg10
VNP
p7704
sg12
I1
sg13
Nsbag3
(g4
g5
NtRp7705
(dp7706
g8
g7703
sg10
VNP
p7707
sg12
I3
sg13
Nsbag3
(g4
g5
NtRp7708
(dp7709
g8
S'1956-1958'
p7710
sg10
VCD
p7711
sg12
I4
sg13
V1956-1958
p7712
sbag3
(g4
g5
NtRp7713
(dp7714
g8
g7703
sg10
VNNP
p7715
sg12
I4
sg13
VLAL
p7716
sbag3
(g4
g5
NtRp7717
(dp7718
g8
S'MANI'
p7719
sg10
VNNP
p7720
sg12
I4
sg13
VMANI
p7721
sbag3
(g4
g5
NtRp7722
(dp7723
g8
S'JOSHI'
p7724
sg10
VNNP
p7725
sg12
I4
sg13
VJOSHI
p7726
sbag3
(g4
g5
NtRp7727
(dp7728
g8
S'STUDY'
p7729
sg10
VVP
p7730
sg12
I3
sg13
Nsbag3
(g4
g5
NtRp7731
(dp7732
g8
g7729
sg10
VVBN
p7733
sg12
I9
sg13
VSTUDIED
p7734
sbag3
(g4
g5
NtRp7735
(dp7736
g8
S'AT'
p7737
sg10
VPP
p7738
sg12
I9
sg13
Nsbag3
(g4
g5
NtRp7739
(dp7740
g8
g7737
sg10
VIN
p7741
sg12
I11
sg13
VAT
p7742
sbag3
(g4
g5
NtRp7743
(dp7744
g8
S'UNIVERSITY'
p7745
sg10
VNP
p7746
sg12
I11
sg13
Nsbag3
(g4
g5
NtRp7747
(dp7748
g8
g7745
sg10
VNP
p7749
sg12
I13
sg13
Nsbag3
(g4
g5
NtRp7750
(dp7751
g8
S'THE'
p7752
sg10
VDT
p7753
sg12
I14
sg13
VTHE
p7754
sbag3
(g4
g5
NtRp7755
(dp7756
g8
g7745
sg10
VNNP
p7757
sg12
I14
sg13
VUNIVERSITY
p7758
sbag3
(g4
g5
NtRp7759
(dp7760
g8
S'OF'
p7761
sg10
VPP
p7762
sg12
I13
sg13
Nsbag3
(g4
g5
NtRp7763
(dp7764
g8
g7761
sg10
VIN
p7765
sg12
I17
sg13
VOF
p7766
sbag3
(g4
g5
NtRp7767
(dp7768
g8
S'ALLAHABAD'
p7769
sg10
VNP
p7770
sg12
I17
sg13
VALLAHABAD
p7771
sbag3
(g4
g5
NtRp7772
(dp7773
g8
g7769
sg10
VNNP
p7774
sg12
I19
sg13
VALLAHABAD
p7775
sbag3
(g4
g5
NtRp7776
(dp7777
g8
S'FOR'
p7778
sg10
VPP
p7779
sg12
I9
sg13
Nsbag3
(g4
g5
NtRp7780
(dp7781
g8
g7778
sg10
VIN
p7782
sg12
I21
sg13
VFOR
p7783
sbag3
(g4
g5
NtRp7784
(dp7785
g8
S'B.A.'
p7786
sg10
VNP
p7787
sg12
I21
sg13
VB.A.
p7788
sbag3
(g4
g5
NtRp7789
(dp7790
g8
g7786
sg10
VNNP
p7791
sg12
I23
sg13
VB.A.
p7792
sba(lp7793
(lp7794
I1
aa(lp7795
I2
aI3
aa(lp7796
a(lp7797
I4
aI9
aa(lp7798
I5
aI6
aI7
aI8
aa(lp7799
a(lp7800
a(lp7801
a(lp7802
a(lp7803
I10
aI11
aI21
aa(lp7804
a(lp7805
I12
aI13
aa(lp7806
a(lp7807
I14
aI17
aa(lp7808
I15
aI16
aa(lp7809
a(lp7810
a(lp7811
I18
aI19
aa(lp7812
a(lp7813
I20
aa(lp7814
a(lp7815
I22
aI23
aa(lp7816
a(lp7817
I24
aa(lp7818
a(lp7819
NaNaNag121
aNaNaNaNaNaNaNaNaNaNaNaNag122
aNaNaNaNaNaNaNaNaI3
tp7820
a(g7688
g7793
(lp7821
NaNaNaNag121
aNaNaNaNaNaNaNaNaNaNaNag122
aNaNaNaNaNaNaNaNaI3
tp7822
a(g7688
g7793
(lp7823
NaNaNaNaNaNaNaNaNaNaNaNaNag121
aNaNag122
aNaNaNaNaNaNaNaNaI13
tp7824
a((lp7825
g3
(g4
g5
NtRp7826
(dp7827
g8
V STROMME GRADUATED FROM LUTHER COLLEGE -LRB- IOWA -RRB- AND ATTENDED CONCORDIA THEOLOGICAL SEMINARY .
p7828
sg10
VROOT
p7829
sg12
Nsg13
Nsbag3
(g4
g5
NtRp7830
(dp7831
g8
V STROMME GRADUATED FROM LUTHER COLLEGE -LRB- IOWA -RRB- AND ATTENDED CONCORDIA THEOLOGICAL SEMINARY .
p7832
sg10
VS
sg12
I0
sg13
Nsbag3
(g4
g5
NtRp7833
(dp7834
g8
VSTROMME
p7835
sg10
VNP
p7836
sg12
I1
sg13
Nsbag3
(g4
g5
NtRp7837
(dp7838
g8
g7835
sg10
VNNP
p7839
sg12
I2
sg13
Nsbag3
(g4
g5
NtRp7840
(dp7841
g8
S'GRADUATE'
p7842
sg10
VVP
p7843
sg12
I1
sg13
Nsbag3
(g4
g5
NtRp7844
(dp7845
g8
g7842
sg10
VVP
p7846
sg12
I4
sg13
Nsbag3
(g4
g5
NtRp7847
(dp7848
g8
g7842
sg10
VVBD
p7849
sg12
I5
sg13
VGRADUATED
p7850
sbag3
(g4
g5
NtRp7851
(dp7852
g8
S'FROM'
p7853
sg10
VPP
p7854
sg12
I5
sg13
Nsbag3
(g4
g5
NtRp7855
(dp7856
g8
g7853
sg10
VIN
p7857
sg12
I7
sg13
VFROM
p7858
sbag3
(g4
g5
NtRp7859
(dp7860
g8
S'LUTHER'
p7861
sg10
VNP
p7862
sg12
I7
sg13
Nsbag3
(g4
g5
NtRp7863
(dp7864
g8
g7861
sg10
VNP
p7865
sg12
I9
sg13
Nsbag3
(g4
g5
NtRp7866
(dp7867
g8
g7861
sg10
VNNP
p7868
sg12
I10
sg13
VLUTHER
p7869
sbag3
(g4
g5
NtRp7870
(dp7871
g8
S'COLLEGE'
p7872
sg10
VNNP
p7873
sg12
I10
sg13
VCOLLEGE
p7874
sbag3
(g4
g5
NtRp7875
(dp7876
g8
S'-LRB-'
p7877
sg10
VPRN
p7878
sg12
I9
sg13
Nsbag3
(g4
g5
NtRp7879
(dp7880
g8
g7877
sg10
V-LRB-
p7881
sg12
I13
sg13
V-LRB-
p7882
sbag3
(g4
g5
NtRp7883
(dp7884
g8
S'IOWA'
p7885
sg10
VNP
p7886
sg12
I13
sg13
VIOWA
p7887
sbag3
(g4
g5
NtRp7888
(dp7889
g8
g7885
sg10
VNNP
p7890
sg12
I15
sg13
VIOWA
p7891
sbag3
(g4
g5
NtRp7892
(dp7893
g8
S'-RRB-'
p7894
sg10
V-RRB-
p7895
sg12
I13
sg13
V-RRB-
p7896
sbag3
(g4
g5
NtRp7897
(dp7898
g8
S'AND'
p7899
sg10
VCC
p7900
sg12
I4
sg13
VAND
p7901
sbag3
(g4
g5
NtRp7902
(dp7903
g8
S'ATTEND'
p7904
sg10
VVP
p7905
sg12
I4
sg13
Nsbag3
(g4
g5
NtRp7906
(dp7907
g8
g7904
sg10
VVBD
p7908
sg12
I19
sg13
VATTENDED
p7909
sbag3
(g4
g5
NtRp7910
(dp7911
g8
S'CONCORDIA'
p7912
sg10
VNP
p7913
sg12
I19
sg13
Nsbag3
(g4
g5
NtRp7914
(dp7915
g8
g7912
sg10
VNNP
p7916
sg12
I21
sg13
VCONCORDIA
p7917
sbag3
(g4
g5
NtRp7918
(dp7919
g8
S'THEOLOGICAL'
p7920
sg10
VNNP
p7921
sg12
I21
sg13
VTHEOLOGICAL
p7922
sbag3
(g4
g5
NtRp7923
(dp7924
g8
S'SEMINARY'
p7925
sg10
VNNP
p7926
sg12
I21
sg13
VSEMINARY
p7927
sbag3
(g4
g5
NtRp7928
(dp7929
g8
S'.'
sg10
V.
sg12
I1
sg13
V.
sba(lp7930
(lp7931
I1
aa(lp7932
I2
aI4
aI25
aa(lp7933
I3
aa(lp7934
a(lp7935
I5
aI18
aI19
aa(lp7936
I6
aI7
aa(lp7937
a(lp7938
I8
aI9
aa(lp7939
a(lp7940
I10
aI13
aa(lp7941
I11
aI12
aa(lp7942
a(lp7943
a(lp7944
I14
aI15
aI17
aa(lp7945
a(lp7946
I16
aa(lp7947
a(lp7948
a(lp7949
a(lp7950
I20
aI21
aa(lp7951
a(lp7952
I22
aI23
aI24
aa(lp7953
a(lp7954
a(lp7955
a(lp7956
a(lp7957
NaNag121
aNaNaNaNaNaNaNaNag122
aNaNaNaNaNaNaNaNaNaNaNaNaNaNaI1
tp7958
a(g7825
g7930
(lp7959
NaNaNaNaNaNaNaNaNag121
aNag122
aNaNaNaNaNaNaNaNaNaNaNaNaNaNaI9
tp7960
a(g7825
g7930
(lp7961
NaNaNaNaNaNaNaNaNaNaNag122
aNaNaNag121
aNaNaNaNaNaNaNaNaNaNaI9
tp7962
a(g7825
g7930
(lp7963
NaNag121
aNaNaNaNaNaNaNaNaNaNaNaNaNaNaNaNaNaNaNag122
aNaNaNaI1
tp7964
a(g7825
g7930
(lp7965
NaNaNaNaNaNaNaNaNag121
aNaNaNaNaNaNaNaNaNaNaNaNag122
aNaNaNaI4
tp7966
a(g7825
g7930
(lp7967
NaNaNaNaNaNaNaNaNaNaNaNaNaNaNag121
aNaNaNaNaNaNag122
aNaNaNaI4
tp7968
a((lp7969
g3
(g4
g5
NtRp7970
(dp7971
g8
V BEKIAN ATTENDED VENICE HIGH SCHOOL AND GRADUATED IN 1980 .
p7972
sg10
VROOT
p7973
sg12
Nsg13
Nsbag3
(g4
g5
NtRp7974
(dp7975
g8
V BEKIAN ATTENDED VENICE HIGH SCHOOL AND GRADUATED IN 1980 .
p7976
sg10
VS
sg12
I0
sg13
Nsbag3
(g4
g5
NtRp7977
(dp7978
g8
VBEKIAN
p7979
sg10
VNP
p7980
sg12
I1
sg13
Nsbag3
(g4
g5
NtRp7981
(dp7982
g8
g7979
sg10
VJJ
p7983
sg12
I2
sg13
Nsbag3
(g4
g5
NtRp7984
(dp7985
g8
S'ATTEND'
p7986
sg10
VVP
p7987
sg12
I1
sg13
Nsbag3
(g4
g5
NtRp7988
(dp7989
g8
g7986
sg10
VVP
p7990
sg12
I4
sg13
Nsbag3
(g4
g5
NtRp7991
(dp7992
g8
g7986
sg10
VVBD
p7993
sg12
I5
sg13
VATTENDED
p7994
sbag3
(g4
g5
NtRp7995
(dp7996
g8
S'VENICE'
p7997
sg10
VNP
p7998
sg12
I5
sg13
Nsbag3
(g4
g5
NtRp7999
(dp8000
g8
g7997
sg10
VNNP
p8001
sg12
I7
sg13
VVENICE
p8002
sbag3
(g4
g5
NtRp8003
(dp8004
g8
S'HIGH'
p8005
sg10
VNNP
p8006
sg12
I7
sg13
VHIGH
p8007
sbag3
(g4
g5
NtRp8008
(dp8009
g8
S'SCHOOL'
p8010
sg10
VNNP
p8011
sg12
I7
sg13
VSCHOOL
p8012
sbag3
(g4
g5
NtRp8013
(dp8014
g8
S'AND'
p8015
sg10
VCC
p8016
sg12
I4
sg13
VAND
p8017
sbag3
(g4
g5
NtRp8018
(dp8019
g8
S'GRADUATE'
p8020
sg10
VVP
p8021
sg12
I4
sg13
Nsbag3
(g4
g5
NtRp8022
(dp8023
g8
g8020
sg10
VVBN
p8024
sg12
I12
sg13
VGRADUATED
p8025
sbag3
(g4
g5
NtRp8026
(dp8027
g8
S'IN'
p8028
sg10
VPP
p8029
sg12
I12
sg13
Nsbag3
(g4
g5
NtRp8030
(dp8031
g8
g8028
sg10
VIN
p8032
sg12
I14
sg13
VIN
p8033
sbag3
(g4
g5
NtRp8034
(dp8035
g8
S'1980'
p8036
sg10
VNP
p8037
sg12
I14
sg13
V1980
p8038
sbag3
(g4
g5
NtRp8039
(dp8040
g8
g8036
sg10
VCD
p8041
sg12
I16
sg13
V1980
p8042
sbag3
(g4
g5
NtRp8043
(dp8044
g8
S'.'
sg10
V.
sg12
I1
sg13
V.
sba(lp8045
(lp8046
I1
aa(lp8047
I2
aI4
aI18
aa(lp8048
I3
aa(lp8049
a(lp8050
I5
aI11
aI12
aa(lp8051
I6
aI7
aa(lp8052
a(lp8053
I8
aI9
aI10
aa(lp8054
a(lp8055
a(lp8056
a(lp8057
a(lp8058
I13
aI14
aa(lp8059
a(lp8060
I15
aI16
aa(lp8061
a(lp8062
I17
aa(lp8063
a(lp8064
a(lp8065
NaNag121
aNaNaNaNaNag122
aNaNaNaNaNaNaNaNaNaNaI1
tp8066
a(g7969
g8045
(lp8067
NaNaNaNaNaNaNaNag122
aNaNaNaNaNaNaNag121
aNaNaI4
tp8068
a((lp8069
g3
(g4
g5
NtRp8070
(dp8071
g8
V RIZA HAD GRADUATED FROM GALATASARAY HIGH SCHOOL IN CONSTANTINOPLE .
p8072
sg10
VROOT
p8073
sg12
Nsg13
Nsbag3
(g4
g5
NtRp8074
(dp8075
g8
V RIZA HAD GRADUATED FROM GALATASARAY HIGH SCHOOL IN CONSTANTINOPLE .
p8076
sg10
VS
sg12
I0
sg13
Nsbag3
(g4
g5
NtRp8077
(dp8078
g8
VRIZA
p8079
sg10
VNP
p8080
sg12
I1
sg13
Nsbag3
(g4
g5
NtRp8081
(dp8082
g8
g8079
sg10
VNNP
p8083
sg12
I2
sg13
Nsbag3
(g4
g5
NtRp8084
(dp8085
g8
S'HAVE'
p8086
sg10
VVP
p8087
sg12
I1
sg13
Nsbag3
(g4
g5
NtRp8088
(dp8089
g8
g8086
sg10
VVBD
p8090
sg12
I4
sg13
VHAD
p8091
sbag3
(g4
g5
NtRp8092
(dp8093
g8
S'GRADUATE'
p8094
sg10
VVP
p8095
sg12
I4
sg13
Nsbag3
(g4
g5
NtRp8096
(dp8097
g8
g8094
sg10
VVBN
p8098
sg12
I6
sg13
VGRADUATED
p8099
sbag3
(g4
g5
NtRp8100
(dp8101
g8
S'FROM'
p8102
sg10
VPP
p8103
sg12
I6
sg13
Nsbag3
(g4
g5
NtRp8104
(dp8105
g8
g8102
sg10
VIN
p8106
sg12
I8
sg13
VFROM
p8107
sbag3
(g4
g5
NtRp8108
(dp8109
g8
S'GALATASARAY'
p8110
sg10
VNP
p8111
sg12
I8
sg13
Nsbag3
(g4
g5
NtRp8112
(dp8113
g8
g8110
sg10
VNP
p8114
sg12
I10
sg13
Nsbag3
(g4
g5
NtRp8115
(dp8116
g8
g8110
sg10
VNNP
p8117
sg12
I11
sg13
VGALATASARAY
p8118
sbag3
(g4
g5
NtRp8119
(dp8120
g8
S'HIGH'
p8121
sg10
VNNP
p8122
sg12
I11
sg13
VHIGH
p8123
sbag3
(g4
g5
NtRp8124
(dp8125
g8
S'SCHOOL'
p8126
sg10
VNNP
p8127
sg12
I11
sg13
VSCHOOL
p8128
sbag3
(g4
g5
NtRp8129
(dp8130
g8
S'IN'
p8131
sg10
VPP
p8132
sg12
I10
sg13
Nsbag3
(g4
g5
NtRp8133
(dp8134
g8
g8131
sg10
VIN
p8135
sg12
I15
sg13
VIN
p8136
sbag3
(g4
g5
NtRp8137
(dp8138
g8
S'CONSTANTINOPLE'
p8139
sg10
VNP
p8140
sg12
I15
sg13
VCONSTANTINOPLE
p8141
sbag3
(g4
g5
NtRp8142
(dp8143
g8
g8139
sg10
VNNP
p8144
sg12
I17
sg13
VCONSTANTINOPLE
p8145
sbag3
(g4
g5
NtRp8146
(dp8147
g8
S'.'
sg10
V.
sg12
I1
sg13
V.
sba(lp8148
(lp8149
I1
aa(lp8150
I2
aI4
aI19
aa(lp8151
I3
aa(lp8152
a(lp8153
I5
aI6
aa(lp8154
a(lp8155
I7
aI8
aa(lp8156
a(lp8157
I9
aI10
aa(lp8158
a(lp8159
I11
aI15
aa(lp8160
I12
aI13
aI14
aa(lp8161
a(lp8162
a(lp8163
a(lp8164
I16
aI17
aa(lp8165
a(lp8166
I18
aa(lp8167
a(lp8168
a(lp8169
NaNag121
aNaNaNaNaNaNaNaNaNag122
aNaNaNaNaNaNaNaI1
tp8170
a.