(lp1
((lp2
ccopy_reg
_reconstructor
p3
(ckernel1
node
p4
c__builtin__
object
p5
NtRp6
(dp7
S'Text'
p8
V RIZA HAD GRADUATED FROM GALATASARAY HIGH SCHOOL IN CONSTANTINOPLE .
p9
sS'Type'
p10
VROOT
p11
sS'Parent'
p12
NsS'Orig'
p13
Nsbag3
(g4
g5
NtRp14
(dp15
g8
V RIZA HAD GRADUATED FROM GALATASARAY HIGH SCHOOL IN CONSTANTINOPLE .
p16
sg10
VS
sg12
I0
sg13
Nsbag3
(g4
g5
NtRp17
(dp18
g8
VRIZA
p19
sg10
VNP
p20
sg12
I1
sg13
Nsbag3
(g4
g5
NtRp21
(dp22
g8
g19
sg10
VNNP
p23
sg12
I2
sg13
Nsbag3
(g4
g5
NtRp24
(dp25
g8
S'HAVE'
p26
sg10
VVP
p27
sg12
I1
sg13
Nsbag3
(g4
g5
NtRp28
(dp29
g8
g26
sg10
VVBD
p30
sg12
I4
sg13
VHAD
p31
sbag3
(g4
g5
NtRp32
(dp33
g8
S'GRADUATE'
p34
sg10
VVP
p35
sg12
I4
sg13
Nsbag3
(g4
g5
NtRp36
(dp37
g8
g34
sg10
VVBN
p38
sg12
I6
sg13
VGRADUATED
p39
sbag3
(g4
g5
NtRp40
(dp41
g8
S'FROM'
p42
sg10
VPP
p43
sg12
I6
sg13
Nsbag3
(g4
g5
NtRp44
(dp45
g8
g42
sg10
VIN
p46
sg12
I8
sg13
VFROM
p47
sbag3
(g4
g5
NtRp48
(dp49
g8
S'GALATASARAY'
p50
sg10
VNP
p51
sg12
I8
sg13
Nsbag3
(g4
g5
NtRp52
(dp53
g8
g50
sg10
VNP
p54
sg12
I10
sg13
Nsbag3
(g4
g5
NtRp55
(dp56
g8
g50
sg10
VNNP
p57
sg12
I11
sg13
VGALATASARAY
p58
sbag3
(g4
g5
NtRp59
(dp60
g8
S'HIGH'
p61
sg10
VNNP
p62
sg12
I11
sg13
VHIGH
p63
sbag3
(g4
g5
NtRp64
(dp65
g8
S'SCHOOL'
p66
sg10
VNNP
p67
sg12
I11
sg13
VSCHOOL
p68
sbag3
(g4
g5
NtRp69
(dp70
g8
S'IN'
p71
sg10
VPP
p72
sg12
I10
sg13
Nsbag3
(g4
g5
NtRp73
(dp74
g8
g71
sg10
VIN
p75
sg12
I15
sg13
VIN
p76
sbag3
(g4
g5
NtRp77
(dp78
g8
S'CONSTANTINOPLE'
p79
sg10
VNP
p80
sg12
I15
sg13
VCONSTANTINOPLE
p81
sbag3
(g4
g5
NtRp82
(dp83
g8
g79
sg10
VNNP
p84
sg12
I17
sg13
VCONSTANTINOPLE
p85
sbag3
(g4
g5
NtRp86
(dp87
g8
S'.'
sg10
V.
sg12
I1
sg13
V.
sba(lp88
(lp89
I1
aa(lp90
I2
aI4
aI19
aa(lp91
I3
aa(lp92
a(lp93
I5
aI6
aa(lp94
a(lp95
I7
aI8
aa(lp96
a(lp97
I9
aI10
aa(lp98
a(lp99
I11
aI15
aa(lp100
I12
aI13
aI14
aa(lp101
a(lp102
a(lp103
a(lp104
I16
aI17
aa(lp105
a(lp106
I18
aa(lp107
a(lp108
a(lp109
NaNaNaNaNaNaNaNaNaNaS'MEMBER'
p110
aNaS'ORG'
p111
aNaNaNaNaNaNaNaI10
tp112
a(g2
g88
(lp113
NaNaNaNaNaNaNaNaNaNaNaNag111
aNaNaNaNag110
aNaNaI10
tp114
a((lp115
g3
(g4
g5
NtRp116
(dp117
g8
V SIMON BAINBRIDGE WAS EDUCATED AT HIGHGATE SCHOOL AND THE ROYAL COLLEGE OF MUSIC .
p118
sg10
VROOT
p119
sg12
Nsg13
Nsbag3
(g4
g5
NtRp120
(dp121
g8
V SIMON BAINBRIDGE WAS EDUCATED AT HIGHGATE SCHOOL AND THE ROYAL COLLEGE OF MUSIC .
p122
sg10
VS
sg12
I0
sg13
Nsbag3
(g4
g5
NtRp123
(dp124
g8
VSIMON
p125
sg10
VNP
p126
sg12
I1
sg13
Nsbag3
(g4
g5
NtRp127
(dp128
g8
g125
sg10
VNNP
p129
sg12
I2
sg13
Nsbag3
(g4
g5
NtRp130
(dp131
g8
S'BAINBRIDGE'
p132
sg10
VNNP
p133
sg12
I2
sg13
VBAINBRIDGE
p134
sbag3
(g4
g5
NtRp135
(dp136
g8
S'BE'
p137
sg10
VVP
p138
sg12
I1
sg13
Nsbag3
(g4
g5
NtRp139
(dp140
g8
g137
sg10
VVBD
p141
sg12
I5
sg13
VWAS
p142
sbag3
(g4
g5
NtRp143
(dp144
g8
S'EDUCATE'
p145
sg10
VVP
p146
sg12
I5
sg13
Nsbag3
(g4
g5
NtRp147
(dp148
g8
g145
sg10
VVBN
p149
sg12
I7
sg13
VEDUCATED
p150
sbag3
(g4
g5
NtRp151
(dp152
g8
S'AT'
p153
sg10
VPP
p154
sg12
I7
sg13
Nsbag3
(g4
g5
NtRp155
(dp156
g8
g153
sg10
VIN
p157
sg12
I9
sg13
VAT
p158
sbag3
(g4
g5
NtRp159
(dp160
g8
S'HIGHGATE'
p161
sg10
VNP
p162
sg12
I9
sg13
Nsbag3
(g4
g5
NtRp163
(dp164
g8
g161
sg10
VNP
p165
sg12
I11
sg13
Nsbag3
(g4
g5
NtRp166
(dp167
g8
g161
sg10
VNNP
p168
sg12
I12
sg13
VHIGHGATE
p169
sbag3
(g4
g5
NtRp170
(dp171
g8
S'SCHOOL'
p172
sg10
VNNP
p173
sg12
I12
sg13
VSCHOOL
p174
sbag3
(g4
g5
NtRp175
(dp176
g8
S'AND'
p177
sg10
VCC
p178
sg12
I11
sg13
VAND
p179
sbag3
(g4
g5
NtRp180
(dp181
g8
S'ROYAL'
p182
sg10
VNP
p183
sg12
I11
sg13
Nsbag3
(g4
g5
NtRp184
(dp185
g8
g182
sg10
VNP
p186
sg12
I16
sg13
Nsbag3
(g4
g5
NtRp187
(dp188
g8
S'THE'
p189
sg10
VDT
p190
sg12
I17
sg13
VTHE
p191
sbag3
(g4
g5
NtRp192
(dp193
g8
g182
sg10
VNNP
p194
sg12
I17
sg13
VROYAL
p195
sbag3
(g4
g5
NtRp196
(dp197
g8
S'COLLEGE'
p198
sg10
VNNP
p199
sg12
I17
sg13
VCOLLEGE
p200
sbag3
(g4
g5
NtRp201
(dp202
g8
S'OF'
p203
sg10
VPP
p204
sg12
I16
sg13
Nsbag3
(g4
g5
NtRp205
(dp206
g8
g203
sg10
VIN
p207
sg12
I21
sg13
VOF
p208
sbag3
(g4
g5
NtRp209
(dp210
g8
S'MUSIC'
p211
sg10
VNP
p212
sg12
I21
sg13
VMUSIC
p213
sbag3
(g4
g5
NtRp214
(dp215
g8
g211
sg10
VNNP
p216
sg12
I23
sg13
VMUSIC
p217
sbag3
(g4
g5
NtRp218
(dp219
g8
S'.'
sg10
V.
sg12
I1
sg13
V.
sba(lp220
(lp221
I1
aa(lp222
I2
aI5
aI25
aa(lp223
I3
aI4
aa(lp224
a(lp225
a(lp226
I6
aI7
aa(lp227
a(lp228
I8
aI9
aa(lp229
a(lp230
I10
aI11
aa(lp231
a(lp232
I12
aI15
aI16
aa(lp233
I13
aI14
aa(lp234
a(lp235
a(lp236
a(lp237
I17
aI21
aa(lp238
I18
aI19
aI20
aa(lp239
a(lp240
a(lp241
a(lp242
I22
aI23
aa(lp243
a(lp244
I24
aa(lp245
a(lp246
a(lp247
NaNag110
aNaNaNaNaNaNaNaNaNaNag111
aNaNaNaNaNaNaNaNaNaNaNaNaI1
tp248
a(g115
g220
(lp249
NaNaNaNaNaNaNaNaNaNaNag110
aNag111
aNaNaNaNaNaNaNaNaNaNaNaNaI11
tp250
a(g115
g220
(lp251
NaNaNaNaNaNaNaNaNaNaNaNaNag111
aNaNag110
aNaNaNaNaNaNaNaNaNaI11
tp252
a(g115
g220
(lp253
NaNag110
aNaNaNaNaNaNaNaNaNaNaNaNaNaNaNaNag111
aNaNaNaNaNaNaI1
tp254
a(g115
g220
(lp255
NaNaNaNaNaNaNaNaNaNaNag110
aNaNaNaNaNaNaNag111
aNaNaNaNaNaNaI11
tp256
a(g115
g220
(lp257
NaNaNaNaNaNaNaNaNaNaNaNaNaNaNaNag110
aNaNag111
aNaNaNaNaNaNaI16
tp258
a((lp259
g3
(g4
g5
NtRp260
(dp261
g8
V IAN MCKAY ALSO HOLDS A MASTERS DEGREE FROM THE UNIVERSITY OF WARWICK .
p262
sg10
VROOT
p263
sg12
Nsg13
Nsbag3
(g4
g5
NtRp264
(dp265
g8
V IAN MCKAY ALSO HOLDS A MASTERS DEGREE FROM THE UNIVERSITY OF WARWICK .
p266
sg10
VS
sg12
I0
sg13
Nsbag3
(g4
g5
NtRp267
(dp268
g8
VIAN
p269
sg10
VNP
p270
sg12
I1
sg13
Nsbag3
(g4
g5
NtRp271
(dp272
g8
g269
sg10
VNNP
p273
sg12
I2
sg13
Nsbag3
(g4
g5
NtRp274
(dp275
g8
S'MCKAY'
p276
sg10
VNNP
p277
sg12
I2
sg13
VMCKAY
p278
sbag3
(g4
g5
NtRp279
(dp280
g8
S'ALSO'
p281
sg10
VADVP
p282
sg12
I1
sg13
VALSO
p283
sbag3
(g4
g5
NtRp284
(dp285
g8
g281
sg10
VRB
p286
sg12
I5
sg13
VALSO
p287
sbag3
(g4
g5
NtRp288
(dp289
g8
S'HOLD'
p290
sg10
VVP
p291
sg12
I1
sg13
Nsbag3
(g4
g5
NtRp292
(dp293
g8
g290
sg10
VVBZ
p294
sg12
I7
sg13
VHOLDS
p295
sbag3
(g4
g5
NtRp296
(dp297
g8
S'MASTER'
p298
sg10
VNP
p299
sg12
I7
sg13
Nsbag3
(g4
g5
NtRp300
(dp301
g8
S'A'
sg10
VDT
p302
sg12
I9
sg13
VA
sbag3
(g4
g5
NtRp303
(dp304
g8
g298
sg10
VNN
p305
sg12
I9
sg13
VMASTERS
p306
sbag3
(g4
g5
NtRp307
(dp308
g8
S'DEGREE'
p309
sg10
VNN
p310
sg12
I9
sg13
VDEGREE
p311
sbag3
(g4
g5
NtRp312
(dp313
g8
S'FROM'
p314
sg10
VPP
p315
sg12
I7
sg13
Nsbag3
(g4
g5
NtRp316
(dp317
g8
g314
sg10
VIN
p318
sg12
I13
sg13
VFROM
p319
sbag3
(g4
g5
NtRp320
(dp321
g8
S'UNIVERSITY'
p322
sg10
VNP
p323
sg12
I13
sg13
Nsbag3
(g4
g5
NtRp324
(dp325
g8
g322
sg10
VNP
p326
sg12
I15
sg13
Nsbag3
(g4
g5
NtRp327
(dp328
g8
S'THE'
p329
sg10
VDT
p330
sg12
I16
sg13
VTHE
p331
sbag3
(g4
g5
NtRp332
(dp333
g8
g322
sg10
VNNP
p334
sg12
I16
sg13
VUNIVERSITY
p335
sbag3
(g4
g5
NtRp336
(dp337
g8
S'OF'
p338
sg10
VPP
p339
sg12
I15
sg13
Nsbag3
(g4
g5
NtRp340
(dp341
g8
g338
sg10
VIN
p342
sg12
I19
sg13
VOF
p343
sbag3
(g4
g5
NtRp344
(dp345
g8
S'WARWICK'
p346
sg10
VNP
p347
sg12
I19
sg13
VWARWICK
p348
sbag3
(g4
g5
NtRp349
(dp350
g8
g346
sg10
VNNP
p351
sg12
I21
sg13
VWARWICK
p352
sbag3
(g4
g5
NtRp353
(dp354
g8
S'.'
sg10
V.
sg12
I1
sg13
V.
sba(lp355
(lp356
I1
aa(lp357
I2
aI5
aI7
aI23
aa(lp358
I3
aI4
aa(lp359
a(lp360
a(lp361
I6
aa(lp362
a(lp363
I8
aI9
aI13
aa(lp364
a(lp365
I10
aI11
aI12
aa(lp366
a(lp367
a(lp368
a(lp369
I14
aI15
aa(lp370
a(lp371
I16
aI19
aa(lp372
I17
aI18
aa(lp373
a(lp374
a(lp375
I20
aI21
aa(lp376
a(lp377
I22
aa(lp378
a(lp379
a(lp380
NaNag110
aNaNaNaNaNaNaNaNaNaNaNaNaNaNaNag111
aNaNaNaNaNaI1
tp381
a(g259
g355
(lp382
NaNaNaNaNaNaNaNaNag110
aNaNaNaNaNaNaNaNag111
aNaNaNaNaNaI7
tp383
a(g259
g355
(lp384
NaNaNaNaNaNaNaNaNaNaNag110
aNaNaNaNaNaNag111
aNaNaNaNaNaI7
tp385
a(g259
g355
(lp386
NaNaNaNaNaNaNaNaNaNaNaNag110
aNaNaNaNaNag111
aNaNaNaNaNaI7
tp387
a(g259
g355
(lp388
NaNaNaNaNaNaNaNaNaNaNaNaNaNaNag110
aNaNag111
aNaNaNaNaNaI15
tp389
a((lp390
g3
(g4
g5
NtRp391
(dp392
g8
V MITRO REPO STUDIED THEOLOGY AT THE UNIVERSITY OF HELSINKI .
p393
sg10
VROOT
p394
sg12
Nsg13
Nsbag3
(g4
g5
NtRp395
(dp396
g8
V MITRO REPO STUDIED THEOLOGY AT THE UNIVERSITY OF HELSINKI .
p397
sg10
VS
sg12
I0
sg13
Nsbag3
(g4
g5
NtRp398
(dp399
g8
VMITRO
p400
sg10
VNP
p401
sg12
I1
sg13
Nsbag3
(g4
g5
NtRp402
(dp403
g8
g400
sg10
VNNP
p404
sg12
I2
sg13
Nsbag3
(g4
g5
NtRp405
(dp406
g8
S'REPO'
p407
sg10
VNNP
p408
sg12
I2
sg13
VREPO
p409
sbag3
(g4
g5
NtRp410
(dp411
g8
S'STUDY'
p412
sg10
VVP
p413
sg12
I1
sg13
Nsbag3
(g4
g5
NtRp414
(dp415
g8
g412
sg10
VVBD
p416
sg12
I5
sg13
VSTUDIED
p417
sbag3
(g4
g5
NtRp418
(dp419
g8
S'THEOLOGY'
p420
sg10
VNP
p421
sg12
I5
sg13
VTHEOLOGY
p422
sbag3
(g4
g5
NtRp423
(dp424
g8
g420
sg10
VNN
p425
sg12
I7
sg13
VTHEOLOGY
p426
sbag3
(g4
g5
NtRp427
(dp428
g8
S'AT'
p429
sg10
VPP
p430
sg12
I5
sg13
Nsbag3
(g4
g5
NtRp431
(dp432
g8
g429
sg10
VIN
p433
sg12
I9
sg13
VAT
p434
sbag3
(g4
g5
NtRp435
(dp436
g8
S'UNIVERSITY'
p437
sg10
VNP
p438
sg12
I9
sg13
Nsbag3
(g4
g5
NtRp439
(dp440
g8
g437
sg10
VNP
p441
sg12
I11
sg13
Nsbag3
(g4
g5
NtRp442
(dp443
g8
S'THE'
p444
sg10
VDT
p445
sg12
I12
sg13
VTHE
p446
sbag3
(g4
g5
NtRp447
(dp448
g8
g437
sg10
VNNP
p449
sg12
I12
sg13
VUNIVERSITY
p450
sbag3
(g4
g5
NtRp451
(dp452
g8
S'OF'
p453
sg10
VPP
p454
sg12
I11
sg13
Nsbag3
(g4
g5
NtRp455
(dp456
g8
g453
sg10
VIN
p457
sg12
I15
sg13
VOF
p458
sbag3
(g4
g5
NtRp459
(dp460
g8
S'HELSINKI'
p461
sg10
VNP
p462
sg12
I15
sg13
VHELSINKI
p463
sbag3
(g4
g5
NtRp464
(dp465
g8
g461
sg10
VNNP
p466
sg12
I17
sg13
VHELSINKI
p467
sbag3
(g4
g5
NtRp468
(dp469
g8
S'.'
sg10
V.
sg12
I1
sg13
V.
sba(lp470
(lp471
I1
aa(lp472
I2
aI5
aI19
aa(lp473
I3
aI4
aa(lp474
a(lp475
a(lp476
I6
aI7
aI9
aa(lp477
a(lp478
I8
aa(lp479
a(lp480
I10
aI11
aa(lp481
a(lp482
I12
aI15
aa(lp483
I13
aI14
aa(lp484
a(lp485
a(lp486
I16
aI17
aa(lp487
a(lp488
I18
aa(lp489
a(lp490
a(lp491
NaNag110
aNaNaNaNaNaNaNaNaNaNaNag111
aNaNaNaNaNaI1
tp492
a(g390
g470
(lp493
NaNaNaNaNaNaNag110
aNaNaNaNaNaNag111
aNaNaNaNaNaI5
tp494
a(g390
g470
(lp495
NaNaNaNaNaNaNaNag110
aNaNaNaNaNag111
aNaNaNaNaNaI5
tp496
a(g390
g470
(lp497
NaNaNaNaNaNaNaNaNaNaNag110
aNaNag111
aNaNaNaNaNaI11
tp498
a((lp499
g3
(g4
g5
NtRp500
(dp501
g8
V BORN IN GREENWOOD , MISSISSIPPI , FRANKLIN GRADUATED FROM GREENWOOD HIGH SCHOOL , GREENWOOD , MISSISSIPPI .
p502
sg10
VROOT
p503
sg12
Nsg13
Nsbag3
(g4
g5
NtRp504
(dp505
g8
V BORN IN GREENWOOD , MISSISSIPPI , FRANKLIN GRADUATED FROM GREENWOOD HIGH SCHOOL , GREENWOOD , MISSISSIPPI .
p506
sg10
VS
sg12
I0
sg13
Nsbag3
(g4
g5
NtRp507
(dp508
g8
VBORN
p509
sg10
VS
sg12
I1
sg13
Nsbag3
(g4
g5
NtRp510
(dp511
g8
g509
sg10
VVP
p512
sg12
I2
sg13
Nsbag3
(g4
g5
NtRp513
(dp514
g8
g509
sg10
VVBN
p515
sg12
I3
sg13
Nsbag3
(g4
g5
NtRp516
(dp517
g8
S'IN'
p518
sg10
VPP
p519
sg12
I3
sg13
Nsbag3
(g4
g5
NtRp520
(dp521
g8
g518
sg10
VIN
p522
sg12
I5
sg13
VIN
p523
sbag3
(g4
g5
NtRp524
(dp525
g8
S'GREENWOOD'
p526
sg10
VNP
p527
sg12
I5
sg13
Nsbag3
(g4
g5
NtRp528
(dp529
g8
g526
sg10
VNNP
p530
sg12
I7
sg13
VGREENWOOD
p531
sbag3
(g4
g5
NtRp532
(dp533
g8
S','
sg10
V,
sg12
I7
sg13
V,
sbag3
(g4
g5
NtRp534
(dp535
g8
S'MISSISSIPPI'
p536
sg10
VNNP
p537
sg12
I7
sg13
VMISSISSIPPI
p538
sbag3
(g4
g5
NtRp539
(dp540
g8
S','
sg10
V,
sg12
I1
sg13
V,
sbag3
(g4
g5
NtRp541
(dp542
g8
S'FRANKLIN'
p543
sg10
VNP
p544
sg12
I1
sg13
VFRANKLIN
p545
sbag3
(g4
g5
NtRp546
(dp547
g8
g543
sg10
VNNP
p548
sg12
I12
sg13
VFRANKLIN
p549
sbag3
(g4
g5
NtRp550
(dp551
g8
S'GRADUATE'
p552
sg10
VVP
p553
sg12
I1
sg13
Nsbag3
(g4
g5
NtRp554
(dp555
g8
g552
sg10
VVBD
p556
sg12
I14
sg13
VGRADUATED
p557
sbag3
(g4
g5
NtRp558
(dp559
g8
S'FROM'
p560
sg10
VPP
p561
sg12
I14
sg13
Nsbag3
(g4
g5
NtRp562
(dp563
g8
g560
sg10
VIN
p564
sg12
I16
sg13
VFROM
p565
sbag3
(g4
g5
NtRp566
(dp567
g8
g526
sg10
VNP
p568
sg12
I16
sg13
Nsbag3
(g4
g5
NtRp569
(dp570
g8
g526
sg10
VNP
p571
sg12
I18
sg13
Nsbag3
(g4
g5
NtRp572
(dp573
g8
g526
sg10
VNNP
p574
sg12
I19
sg13
VGREENWOOD
p575
sbag3
(g4
g5
NtRp576
(dp577
g8
S'HIGH'
p578
sg10
VNNP
p579
sg12
I19
sg13
VHIGH
p580
sbag3
(g4
g5
NtRp581
(dp582
g8
S'SCHOOL'
p583
sg10
VNNP
p584
sg12
I19
sg13
VSCHOOL
p585
sbag3
(g4
g5
NtRp586
(dp587
g8
S','
sg10
V,
sg12
I18
sg13
V,
sbag3
(g4
g5
NtRp588
(dp589
g8
g526
sg10
VNP
p590
sg12
I18
sg13
Nsbag3
(g4
g5
NtRp591
(dp592
g8
g526
sg10
VNNP
p593
sg12
I24
sg13
VGREENWOOD
p594
sbag3
(g4
g5
NtRp595
(dp596
g8
S','
sg10
V,
sg12
I24
sg13
V,
sbag3
(g4
g5
NtRp597
(dp598
g8
g536
sg10
VNNP
p599
sg12
I24
sg13
VMISSISSIPPI
p600
sbag3
(g4
g5
NtRp601
(dp602
g8
S'.'
sg10
V.
sg12
I1
sg13
V.
sba(lp603
(lp604
I1
aa(lp605
I2
aI11
aI12
aI14
aI28
aa(lp606
I3
aa(lp607
I4
aI5
aa(lp608
a(lp609
I6
aI7
aa(lp610
a(lp611
I8
aI9
aI10
aa(lp612
a(lp613
a(lp614
a(lp615
a(lp616
I13
aa(lp617
a(lp618
I15
aI16
aa(lp619
a(lp620
I17
aI18
aa(lp621
a(lp622
I19
aI23
aI24
aa(lp623
I20
aI21
aI22
aa(lp624
a(lp625
a(lp626
a(lp627
a(lp628
I25
aI26
aI27
aa(lp629
a(lp630
a(lp631
a(lp632
a(lp633
NaNaNaNaNaNaNag110
aNaNaNaNaNaNaNaNaNaNaNaNaNag111
aNaNaNaNaNaNaNaI1
tp634
a(g499
g603
(lp635
NaNaNaNaNaNaNaNaNaNaNaNag110
aNaNaNaNaNaNaNaNag111
aNaNaNaNaNaNaNaI1
tp636
a(g499
g603
(lp637
NaNaNaNaNaNaNaNaNaNaNaNaNaNaNaNaNaNag110
aNaNag111
aNaNaNaNaNaNaNaI18
tp638
a(g499
g603
(lp639
NaNaNaNaNaNaNaNaNaNaNaNaNaNaNaNaNaNaNaNaNag111
aNaNag110
aNaNaNaNaI18
tp640
a((lp641
g3
(g4
g5
NtRp642
(dp643
g8
V DONALD G. BLOESCH RECEIVED HIS UNDERGRADUATE DEGREE FROM ELMHURST COLLEGE IN ELMHURST , ILLINOIS .
p644
sg10
VROOT
p645
sg12
Nsg13
Nsbag3
(g4
g5
NtRp646
(dp647
g8
V DONALD G. BLOESCH RECEIVED HIS UNDERGRADUATE DEGREE FROM ELMHURST COLLEGE IN ELMHURST , ILLINOIS .
p648
sg10
VS
sg12
I0
sg13
Nsbag3
(g4
g5
NtRp649
(dp650
g8
VDONALD
p651
sg10
VNP
p652
sg12
I1
sg13
Nsbag3
(g4
g5
NtRp653
(dp654
g8
g651
sg10
VNNP
p655
sg12
I2
sg13
Nsbag3
(g4
g5
NtRp656
(dp657
g8
S'G.'
p658
sg10
VNNP
p659
sg12
I2
sg13
VG.
p660
sbag3
(g4
g5
NtRp661
(dp662
g8
S'BLOESCH'
p663
sg10
VNNP
p664
sg12
I2
sg13
VBLOESCH
p665
sbag3
(g4
g5
NtRp666
(dp667
g8
S'RECEIVE'
p668
sg10
VVP
p669
sg12
I1
sg13
Nsbag3
(g4
g5
NtRp670
(dp671
g8
g668
sg10
VVBD
p672
sg12
I6
sg13
VRECEIVED
p673
sbag3
(g4
g5
NtRp674
(dp675
g8
S'DEGREE'
p676
sg10
VNP
p677
sg12
I6
sg13
Nsbag3
(g4
g5
NtRp678
(dp679
g8
S'HE'
p680
sg10
VPRP$
p681
sg12
I8
sg13
VHIS
p682
sbag3
(g4
g5
NtRp683
(dp684
g8
S'UNDERGRADUATE'
p685
sg10
VJJ
p686
sg12
I8
sg13
VUNDERGRADUATE
p687
sbag3
(g4
g5
NtRp688
(dp689
g8
g676
sg10
VNN
p690
sg12
I8
sg13
VDEGREE
p691
sbag3
(g4
g5
NtRp692
(dp693
g8
S'FROM'
p694
sg10
VPP
p695
sg12
I6
sg13
Nsbag3
(g4
g5
NtRp696
(dp697
g8
g694
sg10
VIN
p698
sg12
I12
sg13
VFROM
p699
sbag3
(g4
g5
NtRp700
(dp701
g8
S'ELMHURST'
p702
sg10
VNP
p703
sg12
I12
sg13
Nsbag3
(g4
g5
NtRp704
(dp705
g8
g702
sg10
VNNP
p706
sg12
I14
sg13
VELMHURST
p707
sbag3
(g4
g5
NtRp708
(dp709
g8
S'COLLEGE'
p710
sg10
VNNP
p711
sg12
I14
sg13
VCOLLEGE
p712
sbag3
(g4
g5
NtRp713
(dp714
g8
S'IN'
p715
sg10
VPP
p716
sg12
I6
sg13
Nsbag3
(g4
g5
NtRp717
(dp718
g8
g715
sg10
VIN
p719
sg12
I17
sg13
VIN
p720
sbag3
(g4
g5
NtRp721
(dp722
g8
g702
sg10
VNP
p723
sg12
I17
sg13
Nsbag3
(g4
g5
NtRp724
(dp725
g8
g702
sg10
VNNP
p726
sg12
I19
sg13
VELMHURST
p727
sbag3
(g4
g5
NtRp728
(dp729
g8
S','
sg10
V,
sg12
I19
sg13
V,
sbag3
(g4
g5
NtRp730
(dp731
g8
S'ILLINOIS'
p732
sg10
VNNP
p733
sg12
I19
sg13
VILLINOIS
p734
sbag3
(g4
g5
NtRp735
(dp736
g8
S'.'
sg10
V.
sg12
I1
sg13
V.
sba(lp737
(lp738
I1
aa(lp739
I2
aI6
aI23
aa(lp740
I3
aI4
aI5
aa(lp741
a(lp742
a(lp743
a(lp744
I7
aI8
aI12
aI17
aa(lp745
a(lp746
I9
aI10
aI11
aa(lp747
a(lp748
a(lp749
a(lp750
I13
aI14
aa(lp751
a(lp752
I15
aI16
aa(lp753
a(lp754
a(lp755
I18
aI19
aa(lp756
a(lp757
I20
aI21
aI22
aa(lp758
a(lp759
a(lp760
a(lp761
a(lp762
NaNag110
aNaNaNaNaNaNaNaNaNaNaNaNaNag111
aNaNaNaNaNaNaNaI1
tp763
a(g641
g737
(lp764
NaNaNaNaNaNaNaNag110
aNaNaNaNaNaNaNag111
aNaNaNaNaNaNaNaI6
tp765
a(g641
g737
(lp766
NaNaNaNaNaNaNaNaNaNaNag110
aNaNaNaNag111
aNaNaNaNaNaNaNaI6
tp767
a(g641
g737
(lp768
NaNaNaNaNaNaNaNaNaNaNaNaNaNaNaNag111
aNaNag110
aNaNaNaNaI6
tp769
a((lp770
g3
(g4
g5
NtRp771
(dp772
g8
V PIERRE AUDI STUDIED HISTORY AT EXETER COLLEGE , OXFORD .
p773
sg10
VROOT
p774
sg12
Nsg13
Nsbag3
(g4
g5
NtRp775
(dp776
g8
V PIERRE AUDI STUDIED HISTORY AT EXETER COLLEGE , OXFORD .
p777
sg10
VS
sg12
I0
sg13
Nsbag3
(g4
g5
NtRp778
(dp779
g8
VPIERRE
p780
sg10
VNP
p781
sg12
I1
sg13
Nsbag3
(g4
g5
NtRp782
(dp783
g8
g780
sg10
VNNP
p784
sg12
I2
sg13
Nsbag3
(g4
g5
NtRp785
(dp786
g8
S'AUDI'
p787
sg10
VNNP
p788
sg12
I2
sg13
VAUDI
p789
sbag3
(g4
g5
NtRp790
(dp791
g8
S'STUDY'
p792
sg10
VVP
p793
sg12
I1
sg13
Nsbag3
(g4
g5
NtRp794
(dp795
g8
g792
sg10
VVBD
p796
sg12
I5
sg13
VSTUDIED
p797
sbag3
(g4
g5
NtRp798
(dp799
g8
S'HISTORY'
p800
sg10
VNP
p801
sg12
I5
sg13
VHISTORY
p802
sbag3
(g4
g5
NtRp803
(dp804
g8
g800
sg10
VNN
p805
sg12
I7
sg13
VHISTORY
p806
sbag3
(g4
g5
NtRp807
(dp808
g8
S'AT'
p809
sg10
VPP
p810
sg12
I5
sg13
Nsbag3
(g4
g5
NtRp811
(dp812
g8
g809
sg10
VIN
p813
sg12
I9
sg13
VAT
p814
sbag3
(g4
g5
NtRp815
(dp816
g8
S'EXETER'
p817
sg10
VNP
p818
sg12
I9
sg13
Nsbag3
(g4
g5
NtRp819
(dp820
g8
g817
sg10
VNP
p821
sg12
I11
sg13
Nsbag3
(g4
g5
NtRp822
(dp823
g8
g817
sg10
VNNP
p824
sg12
I12
sg13
VEXETER
p825
sbag3
(g4
g5
NtRp826
(dp827
g8
S'COLLEGE'
p828
sg10
VNNP
p829
sg12
I12
sg13
VCOLLEGE
p830
sbag3
(g4
g5
NtRp831
(dp832
g8
S','
sg10
V,
sg12
I11
sg13
V,
sbag3
(g4
g5
NtRp833
(dp834
g8
S'OXFORD'
p835
sg10
VNP
p836
sg12
I11
sg13
VOXFORD
p837
sbag3
(g4
g5
NtRp838
(dp839
g8
g835
sg10
VNNP
p840
sg12
I16
sg13
VOXFORD
p841
sbag3
(g4
g5
NtRp842
(dp843
g8
S'.'
sg10
V.
sg12
I1
sg13
V.
sba(lp844
(lp845
I1
aa(lp846
I2
aI5
aI18
aa(lp847
I3
aI4
aa(lp848
a(lp849
a(lp850
I6
aI7
aI9
aa(lp851
a(lp852
I8
aa(lp853
a(lp854
I10
aI11
aa(lp855
a(lp856
I12
aI15
aI16
aa(lp857
I13
aI14
aa(lp858
a(lp859
a(lp860
a(lp861
I17
aa(lp862
a(lp863
a(lp864
NaNag110
aNaNaNaNaNaNaNaNaNaNag111
aNaNaNaNaNaI1
tp865
a(g770
g844
(lp866
NaNaNaNaNaNaNag110
aNaNaNaNaNag111
aNaNaNaNaNaI5
tp867
a(g770
g844
(lp868
NaNaNaNaNaNaNaNag110
aNaNaNaNag111
aNaNaNaNaNaI5
tp869
a(g770
g844
(lp870
NaNaNaNaNaNaNaNaNaNaNag110
aNag111
aNaNaNaNaNaI11
tp871
a(g770
g844
(lp872
NaNaNaNaNaNaNaNaNaNaNaNaNag111
aNaNag110
aNaNaI11
tp873
a((lp874
g3
(g4
g5
NtRp875
(dp876
g8
V KRISTI LEE ATTENDED INDIANA UNIVERSITY .
p877
sg10
VROOT
p878
sg12
Nsg13
Nsbag3
(g4
g5
NtRp879
(dp880
g8
V KRISTI LEE ATTENDED INDIANA UNIVERSITY .
p881
sg10
VS
sg12
I0
sg13
Nsbag3
(g4
g5
NtRp882
(dp883
g8
VKRISTI
p884
sg10
VNP
p885
sg12
I1
sg13
Nsbag3
(g4
g5
NtRp886
(dp887
g8
g884
sg10
VNNP
p888
sg12
I2
sg13
Nsbag3
(g4
g5
NtRp889
(dp890
g8
S'LEE'
p891
sg10
VNNP
p892
sg12
I2
sg13
VLEE
p893
sbag3
(g4
g5
NtRp894
(dp895
g8
S'ATTEND'
p896
sg10
VVP
p897
sg12
I1
sg13
Nsbag3
(g4
g5
NtRp898
(dp899
g8
g896
sg10
VVBD
p900
sg12
I5
sg13
VATTENDED
p901
sbag3
(g4
g5
NtRp902
(dp903
g8
S'INDIANA'
p904
sg10
VNP
p905
sg12
I5
sg13
Nsbag3
(g4
g5
NtRp906
(dp907
g8
g904
sg10
VNNP
p908
sg12
I7
sg13
VINDIANA
p909
sbag3
(g4
g5
NtRp910
(dp911
g8
S'UNIVERSITY'
p912
sg10
VNNP
p913
sg12
I7
sg13
VUNIVERSITY
p914
sbag3
(g4
g5
NtRp915
(dp916
g8
S'.'
sg10
V.
sg12
I1
sg13
V.
sba(lp917
(lp918
I1
aa(lp919
I2
aI5
aI10
aa(lp920
I3
aI4
aa(lp921
a(lp922
a(lp923
I6
aI7
aa(lp924
a(lp925
I8
aI9
aa(lp926
a(lp927
a(lp928
a(lp929
NaNag110
aNaNaNaNaNag111
aNaNaI1
tp930
a((lp931
g3
(g4
g5
NtRp932
(dp933
g8
V A NATIVE OF COMO , ARGEO QUADRI GRADUATED FROM THE MILAN CONSERVATORY IN 1933 .
p934
sg10
VROOT
p935
sg12
Nsg13
Nsbag3
(g4
g5
NtRp936
(dp937
g8
V A NATIVE OF COMO , ARGEO QUADRI GRADUATED FROM THE MILAN CONSERVATORY IN 1933 .
p938
sg10
VS
sg12
I0
sg13
Nsbag3
(g4
g5
NtRp939
(dp940
g8
S'NATIVE'
p941
sg10
VNP
p942
sg12
I1
sg13
Nsbag3
(g4
g5
NtRp943
(dp944
g8
g941
sg10
VNP
p945
sg12
I2
sg13
Nsbag3
(g4
g5
NtRp946
(dp947
g8
VA
sg10
VDT
p948
sg12
I3
sg13
Nsbag3
(g4
g5
NtRp949
(dp950
g8
g941
sg10
VNN
p951
sg12
I3
sg13
VNATIVE
p952
sbag3
(g4
g5
NtRp953
(dp954
g8
S'OF'
p955
sg10
VPP
p956
sg12
I2
sg13
Nsbag3
(g4
g5
NtRp957
(dp958
g8
g955
sg10
VIN
p959
sg12
I6
sg13
VOF
p960
sbag3
(g4
g5
NtRp961
(dp962
g8
S'COMO'
p963
sg10
VNP
p964
sg12
I6
sg13
Nsbag3
(g4
g5
NtRp965
(dp966
g8
g963
sg10
VNNP
p967
sg12
I8
sg13
VCOMO
p968
sbag3
(g4
g5
NtRp969
(dp970
g8
S','
sg10
V,
sg12
I8
sg13
V,
sbag3
(g4
g5
NtRp971
(dp972
g8
S'ARGEO'
p973
sg10
VNNP
p974
sg12
I8
sg13
VARGEO
p975
sbag3
(g4
g5
NtRp976
(dp977
g8
S'QUADRI'
p978
sg10
VNNP
p979
sg12
I8
sg13
VQUADRI
p980
sbag3
(g4
g5
NtRp981
(dp982
g8
S'GRADUATE'
p983
sg10
VVP
p984
sg12
I1
sg13
Nsbag3
(g4
g5
NtRp985
(dp986
g8
g983
sg10
VVBD
p987
sg12
I13
sg13
VGRADUATED
p988
sbag3
(g4
g5
NtRp989
(dp990
g8
S'FROM'
p991
sg10
VPP
p992
sg12
I13
sg13
Nsbag3
(g4
g5
NtRp993
(dp994
g8
g991
sg10
VIN
p995
sg12
I15
sg13
VFROM
p996
sbag3
(g4
g5
NtRp997
(dp998
g8
S'MILAN'
p999
sg10
VNP
p1000
sg12
I15
sg13
Nsbag3
(g4
g5
NtRp1001
(dp1002
g8
S'THE'
p1003
sg10
VDT
p1004
sg12
I17
sg13
VTHE
p1005
sbag3
(g4
g5
NtRp1006
(dp1007
g8
g999
sg10
VNNP
p1008
sg12
I17
sg13
VMILAN
p1009
sbag3
(g4
g5
NtRp1010
(dp1011
g8
S'CONSERVATORY'
p1012
sg10
VNNP
p1013
sg12
I17
sg13
VCONSERVATORY
p1014
sbag3
(g4
g5
NtRp1015
(dp1016
g8
S'IN'
p1017
sg10
VPP
p1018
sg12
I13
sg13
Nsbag3
(g4
g5
NtRp1019
(dp1020
g8
g1017
sg10
VIN
p1021
sg12
I21
sg13
VIN
p1022
sbag3
(g4
g5
NtRp1023
(dp1024
g8
S'1933'
p1025
sg10
VNP
p1026
sg12
I21
sg13
V1933
p1027
sbag3
(g4
g5
NtRp1028
(dp1029
g8
g1025
sg10
VCD
p1030
sg12
I23
sg13
V1933
p1031
sbag3
(g4
g5
NtRp1032
(dp1033
g8
S'.'
sg10
V.
sg12
I1
sg13
V.
sba(lp1034
(lp1035
I1
aa(lp1036
I2
aI13
aI25
aa(lp1037
I3
aI6
aa(lp1038
I4
aI5
aa(lp1039
a(lp1040
a(lp1041
I7
aI8
aa(lp1042
a(lp1043
I9
aI10
aI11
aI12
aa(lp1044
a(lp1045
a(lp1046
a(lp1047
a(lp1048
I14
aI15
aI21
aa(lp1049
a(lp1050
I16
aI17
aa(lp1051
a(lp1052
I18
aI19
aI20
aa(lp1053
a(lp1054
a(lp1055
a(lp1056
I22
aI23
aa(lp1057
a(lp1058
I24
aa(lp1059
a(lp1060
a(lp1061
NaNag110
aNaNaNaNaNaNaNaNaNaNaNaNaNaNaNaNag111
aNaNaNaNaNaNaI1
tp1062
a(g931
g1034
(lp1063
NaNaNag110
aNaNaNaNaNaNaNaNaNaNaNaNaNaNaNag111
aNaNaNaNaNaNaI1
tp1064
a(g931
g1034
(lp1065
NaNaNaNaNag110
aNaNaNaNaNaNaNaNaNaNaNaNaNag111
aNaNaNaNaNaNaI1
tp1066
a(g931
g1034
(lp1067
NaNaNaNaNaNaNaNag110
aNaNaNaNaNaNaNaNaNaNag111
aNaNaNaNaNaNaI1
tp1068
a(g931
g1034
(lp1069
NaNaNaNaNaNaNaNaNaNaNaNaNaNaNaNaNaNaNag111
aNaNaNag110
aNaNaI13
tp1070
a((lp1071
g3
(g4
g5
NtRp1072
(dp1073
g8
V CALEB KING ATTENDED PARKVIEW HIGH SCHOOL IN LILBURN , GEORGIA .
p1074
sg10
VROOT
p1075
sg12
Nsg13
Nsbag3
(g4
g5
NtRp1076
(dp1077
g8
V CALEB KING ATTENDED PARKVIEW HIGH SCHOOL IN LILBURN , GEORGIA .
p1078
sg10
VS
sg12
I0
sg13
Nsbag3
(g4
g5
NtRp1079
(dp1080
g8
VCALEB
p1081
sg10
VNP
p1082
sg12
I1
sg13
Nsbag3
(g4
g5
NtRp1083
(dp1084
g8
g1081
sg10
VNNP
p1085
sg12
I2
sg13
Nsbag3
(g4
g5
NtRp1086
(dp1087
g8
S'KING'
p1088
sg10
VNNP
p1089
sg12
I2
sg13
VKING
p1090
sbag3
(g4
g5
NtRp1091
(dp1092
g8
S'ATTEND'
p1093
sg10
VVP
p1094
sg12
I1
sg13
Nsbag3
(g4
g5
NtRp1095
(dp1096
g8
g1093
sg10
VVBD
p1097
sg12
I5
sg13
VATTENDED
p1098
sbag3
(g4
g5
NtRp1099
(dp1100
g8
S'PARKVIEW'
p1101
sg10
VNP
p1102
sg12
I5
sg13
Nsbag3
(g4
g5
NtRp1103
(dp1104
g8
g1101
sg10
VNP
p1105
sg12
I7
sg13
Nsbag3
(g4
g5
NtRp1106
(dp1107
g8
g1101
sg10
VNNP
p1108
sg12
I8
sg13
VPARKVIEW
p1109
sbag3
(g4
g5
NtRp1110
(dp1111
g8
S'HIGH'
p1112
sg10
VNNP
p1113
sg12
I8
sg13
VHIGH
p1114
sbag3
(g4
g5
NtRp1115
(dp1116
g8
S'SCHOOL'
p1117
sg10
VNNP
p1118
sg12
I8
sg13
VSCHOOL
p1119
sbag3
(g4
g5
NtRp1120
(dp1121
g8
S'IN'
p1122
sg10
VPP
p1123
sg12
I7
sg13
Nsbag3
(g4
g5
NtRp1124
(dp1125
g8
g1122
sg10
VIN
p1126
sg12
I12
sg13
VIN
p1127
sbag3
(g4
g5
NtRp1128
(dp1129
g8
S'LILBURN'
p1130
sg10
VNP
p1131
sg12
I12
sg13
Nsbag3
(g4
g5
NtRp1132
(dp1133
g8
g1130
sg10
VNNP
p1134
sg12
I14
sg13
VLILBURN
p1135
sbag3
(g4
g5
NtRp1136
(dp1137
g8
S','
sg10
V,
sg12
I14
sg13
V,
sbag3
(g4
g5
NtRp1138
(dp1139
g8
S'GEORGIA'
p1140
sg10
VNNP
p1141
sg12
I14
sg13
VGEORGIA
p1142
sbag3
(g4
g5
NtRp1143
(dp1144
g8
S'.'
sg10
V.
sg12
I1
sg13
V.
sba(lp1145
(lp1146
I1
aa(lp1147
I2
aI5
aI18
aa(lp1148
I3
aI4
aa(lp1149
a(lp1150
a(lp1151
I6
aI7
aa(lp1152
a(lp1153
I8
aI12
aa(lp1154
I9
aI10
aI11
aa(lp1155
a(lp1156
a(lp1157
a(lp1158
I13
aI14
aa(lp1159
a(lp1160
I15
aI16
aI17
aa(lp1161
a(lp1162
a(lp1163
a(lp1164
a(lp1165
NaNag110
aNaNaNaNaNaNag111
aNaNaNaNaNaNaNaNaNaI1
tp1166
a(g1071
g1145
(lp1167
NaNaNaNaNaNaNag110
aNag111
aNaNaNaNaNaNaNaNaNaI7
tp1168
a(g1071
g1145
(lp1169
NaNaNaNaNaNaNaNaNag111
aNaNaNaNag110
aNaNaNaNaI7
tp1170
a((lp1171
g3
(g4
g5
NtRp1172
(dp1173
g8
V GARY COLLINS STUDIED ECONOMICS AND POLITICAL SCIENCE AT SIMON FRASER UNIVERSITY .
p1174
sg10
VROOT
p1175
sg12
Nsg13
Nsbag3
(g4
g5
NtRp1176
(dp1177
g8
V GARY COLLINS STUDIED ECONOMICS AND POLITICAL SCIENCE AT SIMON FRASER UNIVERSITY .
p1178
sg10
VS
sg12
I0
sg13
Nsbag3
(g4
g5
NtRp1179
(dp1180
g8
VGARY
p1181
sg10
VNP
p1182
sg12
I1
sg13
Nsbag3
(g4
g5
NtRp1183
(dp1184
g8
g1181
sg10
VNNP
p1185
sg12
I2
sg13
Nsbag3
(g4
g5
NtRp1186
(dp1187
g8
S'COLLINS'
p1188
sg10
VNNP
p1189
sg12
I2
sg13
VCOLLINS
p1190
sbag3
(g4
g5
NtRp1191
(dp1192
g8
S'STUDY'
p1193
sg10
VVP
p1194
sg12
I1
sg13
Nsbag3
(g4
g5
NtRp1195
(dp1196
g8
g1193
sg10
VVBD
p1197
sg12
I5
sg13
VSTUDIED
p1198
sbag3
(g4
g5
NtRp1199
(dp1200
g8
S'ECONOMICS'
p1201
sg10
VNP
p1202
sg12
I5
sg13
Nsbag3
(g4
g5
NtRp1203
(dp1204
g8
g1201
sg10
VNP
p1205
sg12
I7
sg13
VECONOMICS
p1206
sbag3
(g4
g5
NtRp1207
(dp1208
g8
g1201
sg10
VNNS
p1209
sg12
I8
sg13
VECONOMICS
p1210
sbag3
(g4
g5
NtRp1211
(dp1212
g8
S'AND'
p1213
sg10
VCC
p1214
sg12
I7
sg13
VAND
p1215
sbag3
(g4
g5
NtRp1216
(dp1217
g8
S'SCIENCE'
p1218
sg10
VNP
p1219
sg12
I7
sg13
Nsbag3
(g4
g5
NtRp1220
(dp1221
g8
S'POLITICAL'
p1222
sg10
VJJ
p1223
sg12
I11
sg13
VPOLITICAL
p1224
sbag3
(g4
g5
NtRp1225
(dp1226
g8
g1218
sg10
VNN
p1227
sg12
I11
sg13
VSCIENCE
p1228
sbag3
(g4
g5
NtRp1229
(dp1230
g8
S'AT'
p1231
sg10
VPP
p1232
sg12
I5
sg13
Nsbag3
(g4
g5
NtRp1233
(dp1234
g8
g1231
sg10
VIN
p1235
sg12
I14
sg13
VAT
p1236
sbag3
(g4
g5
NtRp1237
(dp1238
g8
S'SIMON'
p1239
sg10
VNP
p1240
sg12
I14
sg13
Nsbag3
(g4
g5
NtRp1241
(dp1242
g8
g1239
sg10
VNNP
p1243
sg12
I16
sg13
VSIMON
p1244
sbag3
(g4
g5
NtRp1245
(dp1246
g8
S'FRASER'
p1247
sg10
VNNP
p1248
sg12
I16
sg13
VFRASER
p1249
sbag3
(g4
g5
NtRp1250
(dp1251
g8
S'UNIVERSITY'
p1252
sg10
VNNP
p1253
sg12
I16
sg13
VUNIVERSITY
p1254
sbag3
(g4
g5
NtRp1255
(dp1256
g8
S'.'
sg10
V.
sg12
I1
sg13
V.
sba(lp1257
(lp1258
I1
aa(lp1259
I2
aI5
aI20
aa(lp1260
I3
aI4
aa(lp1261
a(lp1262
a(lp1263
I6
aI7
aI14
aa(lp1264
a(lp1265
I8
aI10
aI11
aa(lp1266
I9
aa(lp1267
a(lp1268
a(lp1269
I12
aI13
aa(lp1270
a(lp1271
a(lp1272
I15
aI16
aa(lp1273
a(lp1274
I17
aI18
aI19
aa(lp1275
a(lp1276
a(lp1277
a(lp1278
a(lp1279
NaNag110
aNaNaNaNaNaNaNaNaNaNaNaNaNaNag111
aNaNaNaI1
tp1280
a(g1171
g1257
(lp1281
NaNaNaNaNaNaNag110
aNaNaNaNaNaNaNaNaNag111
aNaNaNaI5
tp1282
a(g1171
g1257
(lp1283
NaNaNaNaNaNaNaNag110
aNaNaNaNaNaNaNaNag111
aNaNaNaI5
tp1284
a(g1171
g1257
(lp1285
NaNaNaNaNaNaNaNaNag110
aNaNaNaNaNaNaNag111
aNaNaNaI5
tp1286
a(g1171
g1257
(lp1287
NaNaNaNaNaNaNaNaNaNaNag110
aNaNaNaNaNag111
aNaNaNaI5
tp1288
a(g1171
g1257
(lp1289
NaNaNaNaNaNaNaNaNaNaNaNaNag110
aNaNaNag111
aNaNaNaI5
tp1290
a((lp1291
g3
(g4
g5
NtRp1292
(dp1293
g8
V CARL WINCHESTER STUDIED AT CORPUS CHRISTI COLLEGE , BELFAST .
p1294
sg10
VROOT
p1295
sg12
Nsg13
Nsbag3
(g4
g5
NtRp1296
(dp1297
g8
V CARL WINCHESTER STUDIED AT CORPUS CHRISTI COLLEGE , BELFAST .
p1298
sg10
VS
sg12
I0
sg13
Nsbag3
(g4
g5
NtRp1299
(dp1300
g8
VCARL
p1301
sg10
VNP
p1302
sg12
I1
sg13
Nsbag3
(g4
g5
NtRp1303
(dp1304
g8
g1301
sg10
VNNP
p1305
sg12
I2
sg13
Nsbag3
(g4
g5
NtRp1306
(dp1307
g8
S'WINCHESTER'
p1308
sg10
VNNP
p1309
sg12
I2
sg13
VWINCHESTER
p1310
sbag3
(g4
g5
NtRp1311
(dp1312
g8
S'STUDY'
p1313
sg10
VVP
p1314
sg12
I1
sg13
Nsbag3
(g4
g5
NtRp1315
(dp1316
g8
g1313
sg10
VVBN
p1317
sg12
I5
sg13
VSTUDIED
p1318
sbag3
(g4
g5
NtRp1319
(dp1320
g8
S'AT'
p1321
sg10
VPP
p1322
sg12
I5
sg13
Nsbag3
(g4
g5
NtRp1323
(dp1324
g8
g1321
sg10
VIN
p1325
sg12
I7
sg13
VAT
p1326
sbag3
(g4
g5
NtRp1327
(dp1328
g8
S'CORPUS'
p1329
sg10
VNP
p1330
sg12
I7
sg13
Nsbag3
(g4
g5
NtRp1331
(dp1332
g8
g1329
sg10
VNP
p1333
sg12
I9
sg13
Nsbag3
(g4
g5
NtRp1334
(dp1335
g8
g1329
sg10
VNNP
p1336
sg12
I10
sg13
VCORPUS
p1337
sbag3
(g4
g5
NtRp1338
(dp1339
g8
S'CHRISTI'
p1340
sg10
VNNP
p1341
sg12
I10
sg13
VCHRISTI
p1342
sbag3
(g4
g5
NtRp1343
(dp1344
g8
S'COLLEGE'
p1345
sg10
VNNP
p1346
sg12
I10
sg13
VCOLLEGE
p1347
sbag3
(g4
g5
NtRp1348
(dp1349
g8
S','
sg10
V,
sg12
I9
sg13
V,
sbag3
(g4
g5
NtRp1350
(dp1351
g8
S'BELFAST'
p1352
sg10
VNP
p1353
sg12
I9
sg13
VBELFAST
p1354
sbag3
(g4
g5
NtRp1355
(dp1356
g8
g1352
sg10
VNNP
p1357
sg12
I15
sg13
VBELFAST
p1358
sbag3
(g4
g5
NtRp1359
(dp1360
g8
S'.'
sg10
V.
sg12
I1
sg13
V.
sba(lp1361
(lp1362
I1
aa(lp1363
I2
aI5
aI17
aa(lp1364
I3
aI4
aa(lp1365
a(lp1366
a(lp1367
I6
aI7
aa(lp1368
a(lp1369
I8
aI9
aa(lp1370
a(lp1371
I10
aI14
aI15
aa(lp1372
I11
aI12
aI13
aa(lp1373
a(lp1374
a(lp1375
a(lp1376
a(lp1377
I16
aa(lp1378
a(lp1379
a(lp1380
NaNag110
aNaNaNaNaNaNaNaNag111
aNaNaNaNaNaNaI1
tp1381
a(g1291
g1361
(lp1382
NaNaNaNaNaNaNaNaNag110
aNag111
aNaNaNaNaNaNaI9
tp1383
a(g1291
g1361
(lp1384
NaNaNaNaNaNaNaNaNaNaNag111
aNaNaNag110
aNaNaI9
tp1385
a((lp1386
g3
(g4
g5
NtRp1387
(dp1388
g8
V ARNOLD WAS EDUCATED AT DALHOUSIE UNIVERSITY AND ORDAINED IN 1938 .
p1389
sg10
VROOT
p1390
sg12
Nsg13
Nsbag3
(g4
g5
NtRp1391
(dp1392
g8
V ARNOLD WAS EDUCATED AT DALHOUSIE UNIVERSITY AND ORDAINED IN 1938 .
p1393
sg10
VS
sg12
I0
sg13
Nsbag3
(g4
g5
NtRp1394
(dp1395
g8
VARNOLD
p1396
sg10
VNP
p1397
sg12
I1
sg13
Nsbag3
(g4
g5
NtRp1398
(dp1399
g8
g1396
sg10
VNNP
p1400
sg12
I2
sg13
Nsbag3
(g4
g5
NtRp1401
(dp1402
g8
S'BE'
p1403
sg10
VVP
p1404
sg12
I1
sg13
Nsbag3
(g4
g5
NtRp1405
(dp1406
g8
g1403
sg10
VVBD
p1407
sg12
I4
sg13
VWAS
p1408
sbag3
(g4
g5
NtRp1409
(dp1410
g8
S'EDUCATE'
p1411
sg10
VVP
p1412
sg12
I4
sg13
Nsbag3
(g4
g5
NtRp1413
(dp1414
g8
g1411
sg10
VVP
p1415
sg12
I6
sg13
Nsbag3
(g4
g5
NtRp1416
(dp1417
g8
g1411
sg10
VVBN
p1418
sg12
I7
sg13
VEDUCATED
p1419
sbag3
(g4
g5
NtRp1420
(dp1421
g8
S'AT'
p1422
sg10
VPP
p1423
sg12
I7
sg13
Nsbag3
(g4
g5
NtRp1424
(dp1425
g8
g1422
sg10
VIN
p1426
sg12
I9
sg13
VAT
p1427
sbag3
(g4
g5
NtRp1428
(dp1429
g8
S'DALHOUSIE'
p1430
sg10
VNP
p1431
sg12
I9
sg13
Nsbag3
(g4
g5
NtRp1432
(dp1433
g8
g1430
sg10
VNNP
p1434
sg12
I11
sg13
VDALHOUSIE
p1435
sbag3
(g4
g5
NtRp1436
(dp1437
g8
S'UNIVERSITY'
p1438
sg10
VNNP
p1439
sg12
I11
sg13
VUNIVERSITY
p1440
sbag3
(g4
g5
NtRp1441
(dp1442
g8
S'AND'
p1443
sg10
VCC
p1444
sg12
I6
sg13
VAND
p1445
sbag3
(g4
g5
NtRp1446
(dp1447
g8
S'ORDAIN'
p1448
sg10
VVP
p1449
sg12
I6
sg13
Nsbag3
(g4
g5
NtRp1450
(dp1451
g8
g1448
sg10
VVBN
p1452
sg12
I15
sg13
VORDAINED
p1453
sbag3
(g4
g5
NtRp1454
(dp1455
g8
S'IN'
p1456
sg10
VPP
p1457
sg12
I15
sg13
Nsbag3
(g4
g5
NtRp1458
(dp1459
g8
g1456
sg10
VIN
p1460
sg12
I17
sg13
VIN
p1461
sbag3
(g4
g5
NtRp1462
(dp1463
g8
S'1938'
p1464
sg10
VNP
p1465
sg12
I17
sg13
V1938
p1466
sbag3
(g4
g5
NtRp1467
(dp1468
g8
g1464
sg10
VCD
p1469
sg12
I19
sg13
V1938
p1470
sbag3
(g4
g5
NtRp1471
(dp1472
g8
S'.'
sg10
V.
sg12
I1
sg13
V.
sba(lp1473
(lp1474
I1
aa(lp1475
I2
aI4
aI21
aa(lp1476
I3
aa(lp1477
a(lp1478
I5
aI6
aa(lp1479
a(lp1480
I7
aI14
aI15
aa(lp1481
I8
aI9
aa(lp1482
a(lp1483
I10
aI11
aa(lp1484
a(lp1485
I12
aI13
aa(lp1486
a(lp1487
a(lp1488
a(lp1489
I16
aI17
aa(lp1490
a(lp1491
I18
aI19
aa(lp1492
a(lp1493
I20
aa(lp1494
a(lp1495
a(lp1496
NaNag110
aNaNaNaNaNaNaNaNaNag111
aNaNaNaNaNaNaNaNaNaI1
tp1497
a(g1386
g1473
(lp1498
NaNaNaNaNaNaNaNaNaNaNaNag111
aNaNaNaNaNaNag110
aNaNaI6
tp1499
a((lp1500
g3
(g4
g5
NtRp1501
(dp1502
g8
V RHIAN DODDS ATTENDED ROBERT MORRIS UNIVERSITY , PLAYING FOR THE COLONIALS BEFORE JOINING KILMARNOCK .
p1503
sg10
VROOT
p1504
sg12
Nsg13
Nsbag3
(g4
g5
NtRp1505
(dp1506
g8
V RHIAN DODDS ATTENDED ROBERT MORRIS UNIVERSITY , PLAYING FOR THE COLONIALS BEFORE JOINING KILMARNOCK .
p1507
sg10
VS
sg12
I0
sg13
Nsbag3
(g4
g5
NtRp1508
(dp1509
g8
VRHIAN
p1510
sg10
VNP
p1511
sg12
I1
sg13
Nsbag3
(g4
g5
NtRp1512
(dp1513
g8
g1510
sg10
VNNP
p1514
sg12
I2
sg13
Nsbag3
(g4
g5
NtRp1515
(dp1516
g8
S'DODDS'
p1517
sg10
VNNP
p1518
sg12
I2
sg13
VDODDS
p1519
sbag3
(g4
g5
NtRp1520
(dp1521
g8
S'ATTEND'
p1522
sg10
VVP
p1523
sg12
I1
sg13
Nsbag3
(g4
g5
NtRp1524
(dp1525
g8
g1522
sg10
VVBD
p1526
sg12
I5
sg13
VATTENDED
p1527
sbag3
(g4
g5
NtRp1528
(dp1529
g8
S'ROBERT'
p1530
sg10
VNP
p1531
sg12
I5
sg13
Nsbag3
(g4
g5
NtRp1532
(dp1533
g8
g1530
sg10
VNNP
p1534
sg12
I7
sg13
VROBERT
p1535
sbag3
(g4
g5
NtRp1536
(dp1537
g8
S'MORRIS'
p1538
sg10
VNNP
p1539
sg12
I7
sg13
VMORRIS
p1540
sbag3
(g4
g5
NtRp1541
(dp1542
g8
S'UNIVERSITY'
p1543
sg10
VNNP
p1544
sg12
I7
sg13
VUNIVERSITY
p1545
sbag3
(g4
g5
NtRp1546
(dp1547
g8
S','
sg10
V,
sg12
I5
sg13
V,
sbag3
(g4
g5
NtRp1548
(dp1549
g8
S'PLAY'
p1550
sg10
VS
sg12
I5
sg13
Nsbag3
(g4
g5
NtRp1551
(dp1552
g8
g1550
sg10
VVP
p1553
sg12
I12
sg13
Nsbag3
(g4
g5
NtRp1554
(dp1555
g8
g1550
sg10
VVBG
p1556
sg12
I13
sg13
VPLAYING
p1557
sbag3
(g4
g5
NtRp1558
(dp1559
g8
S'FOR'
p1560
sg10
VPP
p1561
sg12
I13
sg13
Nsbag3
(g4
g5
NtRp1562
(dp1563
g8
g1560
sg10
VIN
p1564
sg12
I15
sg13
VFOR
p1565
sbag3
(g4
g5
NtRp1566
(dp1567
g8
S'COLONIALS'
p1568
sg10
VNP
p1569
sg12
I15
sg13
Nsbag3
(g4
g5
NtRp1570
(dp1571
g8
S'THE'
p1572
sg10
VDT
p1573
sg12
I17
sg13
VTHE
p1574
sbag3
(g4
g5
NtRp1575
(dp1576
g8
g1568
sg10
VNNPS
p1577
sg12
I17
sg13
VCOLONIALS
p1578
sbag3
(g4
g5
NtRp1579
(dp1580
g8
S'BEFORE'
p1581
sg10
VPP
p1582
sg12
I13
sg13
Nsbag3
(g4
g5
NtRp1583
(dp1584
g8
g1581
sg10
VIN
p1585
sg12
I20
sg13
VBEFORE
p1586
sbag3
(g4
g5
NtRp1587
(dp1588
g8
S'JOIN'
p1589
sg10
VS
sg12
I20
sg13
Nsbag3
(g4
g5
NtRp1590
(dp1591
g8
g1589
sg10
VVP
p1592
sg12
I22
sg13
Nsbag3
(g4
g5
NtRp1593
(dp1594
g8
g1589
sg10
VVBG
p1595
sg12
I23
sg13
VJOINING
p1596
sbag3
(g4
g5
NtRp1597
(dp1598
g8
S'KILMARNOCK'
p1599
sg10
VNP
p1600
sg12
I23
sg13
VKILMARNOCK
p1601
sbag3
(g4
g5
NtRp1602
(dp1603
g8
g1599
sg10
VNNP
p1604
sg12
I25
sg13
VKILMARNOCK
p1605
sbag3
(g4
g5
NtRp1606
(dp1607
g8
S'.'
sg10
V.
sg12
I1
sg13
V.
sba(lp1608
(lp1609
I1
aa(lp1610
I2
aI5
aI27
aa(lp1611
I3
aI4
aa(lp1612
a(lp1613
a(lp1614
I6
aI7
aI11
aI12
aa(lp1615
a(lp1616
I8
aI9
aI10
aa(lp1617
a(lp1618
a(lp1619
a(lp1620
a(lp1621
I13
aa(lp1622
I14
aI15
aI20
aa(lp1623
a(lp1624
I16
aI17
aa(lp1625
a(lp1626
I18
aI19
aa(lp1627
a(lp1628
a(lp1629
I21
aI22
aa(lp1630
a(lp1631
I23
aa(lp1632
I24
aI25
aa(lp1633
a(lp1634
I26
aa(lp1635
a(lp1636
a(lp1637
NaNag110
aNaNaNaNaNag111
aNaNaNaNaNaNaNaNaNaNaNaNaNaNaNaNaNaNaNaI1
tp1638
a(g1500
g1608
(lp1639
NaNag110
aNaNaNaNaNaNaNaNaNaNaNaNaNaNaNaNag111
aNaNaNaNaNaNaNaNaI1
tp1640
a(g1500
g1608
(lp1641
NaNag110
aNaNaNaNaNaNaNaNaNaNaNaNaNaNaNaNaNaNaNaNaNaNag111
aNaNaI1
tp1642
a((lp1643
g3
(g4
g5
NtRp1644
(dp1645
g8
V MCLAUGHLIN ATTENDED ELYRIA CATHOLIC HIGH SCHOOL IN ELYRIA , OHIO .
p1646
sg10
VROOT
p1647
sg12
Nsg13
Nsbag3
(g4
g5
NtRp1648
(dp1649
g8
V MCLAUGHLIN ATTENDED ELYRIA CATHOLIC HIGH SCHOOL IN ELYRIA , OHIO .
p1650
sg10
VS
sg12
I0
sg13
Nsbag3
(g4
g5
NtRp1651
(dp1652
g8
VMCLAUGHLIN
p1653
sg10
VNP
p1654
sg12
I1
sg13
Nsbag3
(g4
g5
NtRp1655
(dp1656
g8
g1653
sg10
VNNP
p1657
sg12
I2
sg13
Nsbag3
(g4
g5
NtRp1658
(dp1659
g8
S'ATTEND'
p1660
sg10
VVP
p1661
sg12
I1
sg13
Nsbag3
(g4
g5
NtRp1662
(dp1663
g8
g1660
sg10
VVBD
p1664
sg12
I4
sg13
VATTENDED
p1665
sbag3
(g4
g5
NtRp1666
(dp1667
g8
S'ELYRIA'
p1668
sg10
VNP
p1669
sg12
I4
sg13
Nsbag3
(g4
g5
NtRp1670
(dp1671
g8
g1668
sg10
VNP
p1672
sg12
I6
sg13
Nsbag3
(g4
g5
NtRp1673
(dp1674
g8
g1668
sg10
VNNP
p1675
sg12
I7
sg13
VELYRIA
p1676
sbag3
(g4
g5
NtRp1677
(dp1678
g8
S'CATHOLIC'
p1679
sg10
VNNP
p1680
sg12
I7
sg13
VCATHOLIC
p1681
sbag3
(g4
g5
NtRp1682
(dp1683
g8
S'HIGH'
p1684
sg10
VNNP
p1685
sg12
I7
sg13
VHIGH
p1686
sbag3
(g4
g5
NtRp1687
(dp1688
g8
S'SCHOOL'
p1689
sg10
VNNP
p1690
sg12
I7
sg13
VSCHOOL
p1691
sbag3
(g4
g5
NtRp1692
(dp1693
g8
S'IN'
p1694
sg10
VPP
p1695
sg12
I6
sg13
Nsbag3
(g4
g5
NtRp1696
(dp1697
g8
g1694
sg10
VIN
p1698
sg12
I12
sg13
VIN
p1699
sbag3
(g4
g5
NtRp1700
(dp1701
g8
g1668
sg10
VNP
p1702
sg12
I12
sg13
Nsbag3
(g4
g5
NtRp1703
(dp1704
g8
g1668
sg10
VNNP
p1705
sg12
I14
sg13
VELYRIA
p1706
sbag3
(g4
g5
NtRp1707
(dp1708
g8
S','
sg10
V,
sg12
I14
sg13
V,
sbag3
(g4
g5
NtRp1709
(dp1710
g8
S'OHIO'
p1711
sg10
VNNP
p1712
sg12
I14
sg13
VOHIO
p1713
sbag3
(g4
g5
NtRp1714
(dp1715
g8
S'.'
sg10
V.
sg12
I1
sg13
V.
sba(lp1716
(lp1717
I1
aa(lp1718
I2
aI4
aI18
aa(lp1719
I3
aa(lp1720
a(lp1721
I5
aI6
aa(lp1722
a(lp1723
I7
aI12
aa(lp1724
I8
aI9
aI10
aI11
aa(lp1725
a(lp1726
a(lp1727
a(lp1728
a(lp1729
I13
aI14
aa(lp1730
a(lp1731
I15
aI16
aI17
aa(lp1732
a(lp1733
a(lp1734
a(lp1735
a(lp1736
NaNag110
aNaNaNaNaNaNag111
aNaNaNaNaNaNaNaNaNaI1
tp1737
a(g1643
g1716
(lp1738
NaNaNaNaNaNag110
aNaNag111
aNaNaNaNaNaNaNaNaNaI6
tp1739
a(g1643
g1716
(lp1740
NaNaNaNaNaNaNaNaNag111
aNaNaNaNag110
aNaNaNaNaI6
tp1741
a((lp1742
g3
(g4
g5
NtRp1743
(dp1744
g8
V BARWIN ATTENDED THE UNIVERSITY OF DETROIT JESUIT HIGH SCHOOL .
p1745
sg10
VROOT
p1746
sg12
Nsg13
Nsbag3
(g4
g5
NtRp1747
(dp1748
g8
V BARWIN ATTENDED THE UNIVERSITY OF DETROIT JESUIT HIGH SCHOOL .
p1749
sg10
VS
sg12
I0
sg13
Nsbag3
(g4
g5
NtRp1750
(dp1751
g8
VBARWIN
p1752
sg10
VNP
p1753
sg12
I1
sg13
Nsbag3
(g4
g5
NtRp1754
(dp1755
g8
g1752
sg10
VNNP
p1756
sg12
I2
sg13
Nsbag3
(g4
g5
NtRp1757
(dp1758
g8
S'ATTEND'
p1759
sg10
VVP
p1760
sg12
I1
sg13
Nsbag3
(g4
g5
NtRp1761
(dp1762
g8
g1759
sg10
VVBD
p1763
sg12
I4
sg13
VATTENDED
p1764
sbag3
(g4
g5
NtRp1765
(dp1766
g8
S'UNIVERSITY'
p1767
sg10
VNP
p1768
sg12
I4
sg13
Nsbag3
(g4
g5
NtRp1769
(dp1770
g8
g1767
sg10
VNP
p1771
sg12
I6
sg13
Nsbag3
(g4
g5
NtRp1772
(dp1773
g8
S'THE'
p1774
sg10
VDT
p1775
sg12
I7
sg13
VTHE
p1776
sbag3
(g4
g5
NtRp1777
(dp1778
g8
g1767
sg10
VNNP
p1779
sg12
I7
sg13
VUNIVERSITY
p1780
sbag3
(g4
g5
NtRp1781
(dp1782
g8
S'OF'
p1783
sg10
VPP
p1784
sg12
I6
sg13
Nsbag3
(g4
g5
NtRp1785
(dp1786
g8
g1783
sg10
VIN
p1787
sg12
I10
sg13
VOF
p1788
sbag3
(g4
g5
NtRp1789
(dp1790
g8
S'DETROIT'
p1791
sg10
VNP
p1792
sg12
I10
sg13
Nsbag3
(g4
g5
NtRp1793
(dp1794
g8
g1791
sg10
VNNP
p1795
sg12
I12
sg13
VDETROIT
p1796
sbag3
(g4
g5
NtRp1797
(dp1798
g8
S'JESUIT'
p1799
sg10
VNNP
p1800
sg12
I12
sg13
VJESUIT
p1801
sbag3
(g4
g5
NtRp1802
(dp1803
g8
S'HIGH'
p1804
sg10
VNNP
p1805
sg12
I12
sg13
VHIGH
p1806
sbag3
(g4
g5
NtRp1807
(dp1808
g8
S'SCHOOL'
p1809
sg10
VNNP
p1810
sg12
I12
sg13
VSCHOOL
p1811
sbag3
(g4
g5
NtRp1812
(dp1813
g8
S'.'
sg10
V.
sg12
I1
sg13
V.
sba(lp1814
(lp1815
I1
aa(lp1816
I2
aI4
aI17
aa(lp1817
I3
aa(lp1818
a(lp1819
I5
aI6
aa(lp1820
a(lp1821
I7
aI10
aa(lp1822
I8
aI9
aa(lp1823
a(lp1824
a(lp1825
I11
aI12
aa(lp1826
a(lp1827
I13
aI14
aI15
aI16
aa(lp1828
a(lp1829
a(lp1830
a(lp1831
a(lp1832
a(lp1833
NaNag110
aNaNaNaNaNaNag111
aNaNaNaNaNaNaNaNaI1
tp1834
a(g1742
g1814
(lp1835
NaNaNaNaNaNag110
aNaNag111
aNaNaNaNaNaNaNaNaI6
tp1836
a(g1742
g1814
(lp1837
NaNag110
aNaNaNaNaNaNaNaNaNaNag111
aNaNaNaNaI1
tp1838
a(g1742
g1814
(lp1839
NaNaNaNaNaNag110
aNaNaNaNaNaNag111
aNaNaNaNaI6
tp1840
a((lp1841
g3
(g4
g5
NtRp1842
(dp1843
g8
V NEWCOMBE EARNED A B.SC FROM MCMASTER UNIVERSITY IN 1945 .
p1844
sg10
VROOT
p1845
sg12
Nsg13
Nsbag3
(g4
g5
NtRp1846
(dp1847
g8
V NEWCOMBE EARNED A B.SC FROM MCMASTER UNIVERSITY IN 1945 .
p1848
sg10
VS
sg12
I0
sg13
Nsbag3
(g4
g5
NtRp1849
(dp1850
g8
VNEWCOMBE
p1851
sg10
VNP
p1852
sg12
I1
sg13
Nsbag3
(g4
g5
NtRp1853
(dp1854
g8
g1851
sg10
VNNP
p1855
sg12
I2
sg13
Nsbag3
(g4
g5
NtRp1856
(dp1857
g8
S'EARN'
p1858
sg10
VVP
p1859
sg12
I1
sg13
Nsbag3
(g4
g5
NtRp1860
(dp1861
g8
g1858
sg10
VVBD
p1862
sg12
I4
sg13
VEARNED
p1863
sbag3
(g4
g5
NtRp1864
(dp1865
g8
S'B.SC'
p1866
sg10
VNP
p1867
sg12
I4
sg13
Nsbag3
(g4
g5
NtRp1868
(dp1869
g8
S'A'
sg10
VDT
p1870
sg12
I6
sg13
VA
sbag3
(g4
g5
NtRp1871
(dp1872
g8
g1866
sg10
VNN
p1873
sg12
I6
sg13
VB.SC
p1874
sbag3
(g4
g5
NtRp1875
(dp1876
g8
S'FROM'
p1877
sg10
VPP
p1878
sg12
I4
sg13
Nsbag3
(g4
g5
NtRp1879
(dp1880
g8
g1877
sg10
VIN
p1881
sg12
I9
sg13
VFROM
p1882
sbag3
(g4
g5
NtRp1883
(dp1884
g8
S'MCMASTER'
p1885
sg10
VNP
p1886
sg12
I9
sg13
Nsbag3
(g4
g5
NtRp1887
(dp1888
g8
g1885
sg10
VNNP
p1889
sg12
I11
sg13
VMCMASTER
p1890
sbag3
(g4
g5
NtRp1891
(dp1892
g8
S'UNIVERSITY'
p1893
sg10
VNNP
p1894
sg12
I11
sg13
VUNIVERSITY
p1895
sbag3
(g4
g5
NtRp1896
(dp1897
g8
S'IN'
p1898
sg10
VPP
p1899
sg12
I4
sg13
Nsbag3
(g4
g5
NtRp1900
(dp1901
g8
g1898
sg10
VIN
p1902
sg12
I14
sg13
VIN
p1903
sbag3
(g4
g5
NtRp1904
(dp1905
g8
S'1945'
p1906
sg10
VNP
p1907
sg12
I14
sg13
V1945
p1908
sbag3
(g4
g5
NtRp1909
(dp1910
g8
g1906
sg10
VCD
p1911
sg12
I16
sg13
V1945
p1912
sbag3
(g4
g5
NtRp1913
(dp1914
g8
S'.'
sg10
V.
sg12
I1
sg13
V.
sba(lp1915
(lp1916
I1
aa(lp1917
I2
aI4
aI18
aa(lp1918
I3
aa(lp1919
a(lp1920
I5
aI6
aI9
aI14
aa(lp1921
a(lp1922
I7
aI8
aa(lp1923
a(lp1924
a(lp1925
I10
aI11
aa(lp1926
a(lp1927
I12
aI13
aa(lp1928
a(lp1929
a(lp1930
I15
aI16
aa(lp1931
a(lp1932
I17
aa(lp1933
a(lp1934
a(lp1935
NaNag110
aNaNaNaNaNaNaNaNaNag111
aNaNaNaNaNaNaI1
tp1936
a(g1841
g1915
(lp1937
NaNaNaNaNaNag110
aNaNaNaNaNag111
aNaNaNaNaNaNaI4
tp1938
a(g1841
g1915
(lp1939
NaNaNaNaNaNaNaNag110
aNaNaNag111
aNaNaNaNaNaNaI4
tp1940
a(g1841
g1915
(lp1941
NaNaNaNaNaNaNaNaNaNaNaNag111
aNaNaNag110
aNaNaI4
tp1942
a((lp1943
g3
(g4
g5
NtRp1944
(dp1945
g8
V PHIL PORTER IS A GRADUATE OF THE UNIVERSITY OF BIRMINGHAM .
p1946
sg10
VROOT
p1947
sg12
Nsg13
Nsbag3
(g4
g5
NtRp1948
(dp1949
g8
V PHIL PORTER IS A GRADUATE OF THE UNIVERSITY OF BIRMINGHAM .
p1950
sg10
VS
sg12
I0
sg13
Nsbag3
(g4
g5
NtRp1951
(dp1952
g8
VPHIL
p1953
sg10
VNP
p1954
sg12
I1
sg13
Nsbag3
(g4
g5
NtRp1955
(dp1956
g8
g1953
sg10
VNNP
p1957
sg12
I2
sg13
Nsbag3
(g4
g5
NtRp1958
(dp1959
g8
S'PORTER'
p1960
sg10
VNNP
p1961
sg12
I2
sg13
VPORTER
p1962
sbag3
(g4
g5
NtRp1963
(dp1964
g8
S'BE'
p1965
sg10
VVP
p1966
sg12
I1
sg13
Nsbag3
(g4
g5
NtRp1967
(dp1968
g8
g1965
sg10
VVBZ
p1969
sg12
I5
sg13
VIS
p1970
sbag3
(g4
g5
NtRp1971
(dp1972
g8
S'GRADUATE'
p1973
sg10
VNP
p1974
sg12
I5
sg13
Nsbag3
(g4
g5
NtRp1975
(dp1976
g8
g1973
sg10
VNP
p1977
sg12
I7
sg13
Nsbag3
(g4
g5
NtRp1978
(dp1979
g8
S'A'
sg10
VDT
p1980
sg12
I8
sg13
VA
sbag3
(g4
g5
NtRp1981
(dp1982
g8
g1973
sg10
VNN
p1983
sg12
I8
sg13
VGRADUATE
p1984
sbag3
(g4
g5
NtRp1985
(dp1986
g8
S'OF'
p1987
sg10
VPP
p1988
sg12
I7
sg13
Nsbag3
(g4
g5
NtRp1989
(dp1990
g8
g1987
sg10
VIN
p1991
sg12
I11
sg13
VOF
p1992
sbag3
(g4
g5
NtRp1993
(dp1994
g8
S'UNIVERSITY'
p1995
sg10
VNP
p1996
sg12
I11
sg13
Nsbag3
(g4
g5
NtRp1997
(dp1998
g8
g1995
sg10
VNP
p1999
sg12
I13
sg13
Nsbag3
(g4
g5
NtRp2000
(dp2001
g8
S'THE'
p2002
sg10
VDT
p2003
sg12
I14
sg13
VTHE
p2004
sbag3
(g4
g5
NtRp2005
(dp2006
g8
g1995
sg10
VNNP
p2007
sg12
I14
sg13
VUNIVERSITY
p2008
sbag3
(g4
g5
NtRp2009
(dp2010
g8
g1987
sg10
VPP
p2011
sg12
I13
sg13
Nsbag3
(g4
g5
NtRp2012
(dp2013
g8
g1987
sg10
VIN
p2014
sg12
I17
sg13
VOF
p2015
sbag3
(g4
g5
NtRp2016
(dp2017
g8
S'BIRMINGHAM'
p2018
sg10
VNP
p2019
sg12
I17
sg13
VBIRMINGHAM
p2020
sbag3
(g4
g5
NtRp2021
(dp2022
g8
g2018
sg10
VNNP
p2023
sg12
I19
sg13
VBIRMINGHAM
p2024
sbag3
(g4
g5
NtRp2025
(dp2026
g8
S'.'
sg10
V.
sg12
I1
sg13
V.
sba(lp2027
(lp2028
I1
aa(lp2029
I2
aI5
aI21
aa(lp2030
I3
aI4
aa(lp2031
a(lp2032
a(lp2033
I6
aI7
aa(lp2034
a(lp2035
I8
aI11
aa(lp2036
I9
aI10
aa(lp2037
a(lp2038
a(lp2039
I12
aI13
aa(lp2040
a(lp2041
I14
aI17
aa(lp2042
I15
aI16
aa(lp2043
a(lp2044
a(lp2045
I18
aI19
aa(lp2046
a(lp2047
I20
aa(lp2048
a(lp2049
a(lp2050
NaNag110
aNaNaNaNaNaNaNaNaNaNaNaNaNag111
aNaNaNaNaNaI1
tp2051
a(g1943
g2027
(lp2052
NaNaNaNaNaNaNag110
aNaNaNaNaNaNaNaNag111
aNaNaNaNaNaI7
tp2053
a(g1943
g2027
(lp2054
NaNaNaNaNaNaNaNag110
aNaNaNaNaNaNaNag111
aNaNaNaNaNaI7
tp2055
a(g1943
g2027
(lp2056
NaNaNaNaNaNaNaNaNaNag110
aNaNaNaNaNag111
aNaNaNaNaNaI7
tp2057
a(g1943
g2027
(lp2058
NaNaNaNaNaNaNaNaNaNaNaNaNag110
aNaNag111
aNaNaNaNaNaI13
tp2059
a((lp2060
g3
(g4
g5
NtRp2061
(dp2062
g8
V MEDOFF RECEIVED HIS PHD FROM YESHIVA UNIVERSITY IN 1991 .
p2063
sg10
VROOT
p2064
sg12
Nsg13
Nsbag3
(g4
g5
NtRp2065
(dp2066
g8
V MEDOFF RECEIVED HIS PHD FROM YESHIVA UNIVERSITY IN 1991 .
p2067
sg10
VS
sg12
I0
sg13
Nsbag3
(g4
g5
NtRp2068
(dp2069
g8
VMEDOFF
p2070
sg10
VNP
p2071
sg12
I1
sg13
Nsbag3
(g4
g5
NtRp2072
(dp2073
g8
g2070
sg10
VNNP
p2074
sg12
I2
sg13
Nsbag3
(g4
g5
NtRp2075
(dp2076
g8
S'RECEIVE'
p2077
sg10
VVP
p2078
sg12
I1
sg13
Nsbag3
(g4
g5
NtRp2079
(dp2080
g8
g2077
sg10
VVBD
p2081
sg12
I4
sg13
VRECEIVED
p2082
sbag3
(g4
g5
NtRp2083
(dp2084
g8
S'PHD'
p2085
sg10
VNP
p2086
sg12
I4
sg13
Nsbag3
(g4
g5
NtRp2087
(dp2088
g8
S'HE'
p2089
sg10
VPRP$
p2090
sg12
I6
sg13
VHIS
p2091
sbag3
(g4
g5
NtRp2092
(dp2093
g8
g2085
sg10
VNN
p2094
sg12
I6
sg13
VPHD
p2095
sbag3
(g4
g5
NtRp2096
(dp2097
g8
S'FROM'
p2098
sg10
VPP
p2099
sg12
I4
sg13
Nsbag3
(g4
g5
NtRp2100
(dp2101
g8
g2098
sg10
VIN
p2102
sg12
I9
sg13
VFROM
p2103
sbag3
(g4
g5
NtRp2104
(dp2105
g8
S'YESHIVA'
p2106
sg10
VNP
p2107
sg12
I9
sg13
Nsbag3
(g4
g5
NtRp2108
(dp2109
g8
g2106
sg10
VNNP
p2110
sg12
I11
sg13
VYESHIVA
p2111
sbag3
(g4
g5
NtRp2112
(dp2113
g8
S'UNIVERSITY'
p2114
sg10
VNNP
p2115
sg12
I11
sg13
VUNIVERSITY
p2116
sbag3
(g4
g5
NtRp2117
(dp2118
g8
S'IN'
p2119
sg10
VPP
p2120
sg12
I4
sg13
Nsbag3
(g4
g5
NtRp2121
(dp2122
g8
g2119
sg10
VIN
p2123
sg12
I14
sg13
VIN
p2124
sbag3
(g4
g5
NtRp2125
(dp2126
g8
S'1991'
p2127
sg10
VNP
p2128
sg12
I14
sg13
V1991
p2129
sbag3
(g4
g5
NtRp2130
(dp2131
g8
g2127
sg10
VCD
p2132
sg12
I16
sg13
V1991
p2133
sbag3
(g4
g5
NtRp2134
(dp2135
g8
S'.'
sg10
V.
sg12
I1
sg13
V.
sba(lp2136
(lp2137
I1
aa(lp2138
I2
aI4
aI18
aa(lp2139
I3
aa(lp2140
a(lp2141
I5
aI6
aI9
aI14
aa(lp2142
a(lp2143
I7
aI8
aa(lp2144
a(lp2145
a(lp2146
I10
aI11
aa(lp2147
a(lp2148
I12
aI13
aa(lp2149
a(lp2150
a(lp2151
I15
aI16
aa(lp2152
a(lp2153
I17
aa(lp2154
a(lp2155
a(lp2156
NaNag110
aNaNaNaNaNaNaNaNaNag111
aNaNaNaNaNaNaI1
tp2157
a(g2060
g2136
(lp2158
NaNaNaNaNaNag110
aNaNaNaNaNag111
aNaNaNaNaNaNaI4
tp2159
a(g2060
g2136
(lp2160
NaNaNaNaNaNaNaNag110
aNaNaNag111
aNaNaNaNaNaNaI4
tp2161
a(g2060
g2136
(lp2162
NaNaNaNaNaNaNaNaNaNaNaNag111
aNaNaNag110
aNaNaI4
tp2163
a((lp2164
g3
(g4
g5
NtRp2165
(dp2166
g8
V ROBERT WEBB WAS EDUCATED AT QUEEN ELIZABETH 'S GRAMMAR SCHOOL IN HORNCASTLE .
p2167
sg10
VROOT
p2168
sg12
Nsg13
Nsbag3
(g4
g5
NtRp2169
(dp2170
g8
V ROBERT WEBB WAS EDUCATED AT QUEEN ELIZABETH 'S GRAMMAR SCHOOL IN HORNCASTLE .
p2171
sg10
VS
sg12
I0
sg13
Nsbag3
(g4
g5
NtRp2172
(dp2173
g8
VROBERT
p2174
sg10
VNP
p2175
sg12
I1
sg13
Nsbag3
(g4
g5
NtRp2176
(dp2177
g8
g2174
sg10
VNNP
p2178
sg12
I2
sg13
Nsbag3
(g4
g5
NtRp2179
(dp2180
g8
S'WEBB'
p2181
sg10
VNNP
p2182
sg12
I2
sg13
VWEBB
p2183
sbag3
(g4
g5
NtRp2184
(dp2185
g8
S'BE'
p2186
sg10
VVP
p2187
sg12
I1
sg13
Nsbag3
(g4
g5
NtRp2188
(dp2189
g8
g2186
sg10
VVBD
p2190
sg12
I5
sg13
VWAS
p2191
sbag3
(g4
g5
NtRp2192
(dp2193
g8
S'EDUCATE'
p2194
sg10
VVP
p2195
sg12
I5
sg13
Nsbag3
(g4
g5
NtRp2196
(dp2197
g8
g2194
sg10
VVBN
p2198
sg12
I7
sg13
VEDUCATED
p2199
sbag3
(g4
g5
NtRp2200
(dp2201
g8
S'AT'
p2202
sg10
VPP
p2203
sg12
I7
sg13
Nsbag3
(g4
g5
NtRp2204
(dp2205
g8
g2202
sg10
VIN
p2206
sg12
I9
sg13
VAT
p2207
sbag3
(g4
g5
NtRp2208
(dp2209
g8
S'QUEEN'
p2210
sg10
VNP
p2211
sg12
I9
sg13
Nsbag3
(g4
g5
NtRp2212
(dp2213
g8
g2210
sg10
VNP
p2214
sg12
I11
sg13
Nsbag3
(g4
g5
NtRp2215
(dp2216
g8
g2210
sg10
VNNP
p2217
sg12
I12
sg13
VQUEEN
p2218
sbag3
(g4
g5
NtRp2219
(dp2220
g8
S'ELIZABETH'
p2221
sg10
VNNP
p2222
sg12
I12
sg13
VELIZABETH
p2223
sbag3
(g4
g5
NtRp2224
(dp2225
g8
S"'S"
p2226
sg10
VPOS
p2227
sg12
I12
sg13
V'S
p2228
sbag3
(g4
g5
NtRp2229
(dp2230
g8
S'GRAMMAR'
p2231
sg10
VNNP
p2232
sg12
I11
sg13
VGRAMMAR
p2233
sbag3
(g4
g5
NtRp2234
(dp2235
g8
S'SCHOOL'
p2236
sg10
VNNP
p2237
sg12
I11
sg13
VSCHOOL
p2238
sbag3
(g4
g5
NtRp2239
(dp2240
g8
S'IN'
p2241
sg10
VPP
p2242
sg12
I7
sg13
Nsbag3
(g4
g5
NtRp2243
(dp2244
g8
g2241
sg10
VIN
p2245
sg12
I18
sg13
VIN
p2246
sbag3
(g4
g5
NtRp2247
(dp2248
g8
S'HORNCASTLE'
p2249
sg10
VNP
p2250
sg12
I18
sg13
VHORNCASTLE
p2251
sbag3
(g4
g5
NtRp2252
(dp2253
g8
g2249
sg10
VNNP
p2254
sg12
I20
sg13
VHORNCASTLE
p2255
sbag3
(g4
g5
NtRp2256
(dp2257
g8
S'.'
sg10
V.
sg12
I1
sg13
V.
sba(lp2258
(lp2259
I1
aa(lp2260
I2
aI5
aI22
aa(lp2261
I3
aI4
aa(lp2262
a(lp2263
a(lp2264
I6
aI7
aa(lp2265
a(lp2266
I8
aI9
aI18
aa(lp2267
a(lp2268
I10
aI11
aa(lp2269
a(lp2270
I12
aI16
aI17
aa(lp2271
I13
aI14
aI15
aa(lp2272
a(lp2273
a(lp2274
a(lp2275
a(lp2276
a(lp2277
I19
aI20
aa(lp2278
a(lp2279
I21
aa(lp2280
a(lp2281
a(lp2282
NaNag110
aNaNaNaNaNaNaNaNaNaNaNaNaNag111
aNaNaNaNaNaNaI1
tp2283
a(g2164
g2258
(lp2284
NaNaNaNaNaNaNaNaNaNaNaNag110
aNaNaNag111
aNaNaNaNaNaNaI11
tp2285
a(g2164
g2258
(lp2286
NaNaNaNaNaNaNaNaNaNaNaNaNaNaNaNag111
aNaNaNag110
aNaNaI7
tp2287
a((lp2288
g3
(g4
g5
NtRp2289
(dp2290
g8
V ERIC STUDIED AT THE SLADE SCHOOL OF ART .
p2291
sg10
VROOT
p2292
sg12
Nsg13
Nsbag3
(g4
g5
NtRp2293
(dp2294
g8
V ERIC STUDIED AT THE SLADE SCHOOL OF ART .
p2295
sg10
VS
sg12
I0
sg13
Nsbag3
(g4
g5
NtRp2296
(dp2297
g8
VERIC
p2298
sg10
VNP
p2299
sg12
I1
sg13
Nsbag3
(g4
g5
NtRp2300
(dp2301
g8
g2298
sg10
VNNP
p2302
sg12
I2
sg13
Nsbag3
(g4
g5
NtRp2303
(dp2304
g8
S'STUDY'
p2305
sg10
VVP
p2306
sg12
I1
sg13
Nsbag3
(g4
g5
NtRp2307
(dp2308
g8
g2305
sg10
VVBD
p2309
sg12
I4
sg13
VSTUDIED
p2310
sbag3
(g4
g5
NtRp2311
(dp2312
g8
S'AT'
p2313
sg10
VPP
p2314
sg12
I4
sg13
Nsbag3
(g4
g5
NtRp2315
(dp2316
g8
g2313
sg10
VIN
p2317
sg12
I6
sg13
VAT
p2318
sbag3
(g4
g5
NtRp2319
(dp2320
g8
S'SLADE'
p2321
sg10
VNP
p2322
sg12
I6
sg13
Nsbag3
(g4
g5
NtRp2323
(dp2324
g8
g2321
sg10
VNP
p2325
sg12
I8
sg13
Nsbag3
(g4
g5
NtRp2326
(dp2327
g8
S'THE'
p2328
sg10
VDT
p2329
sg12
I9
sg13
VTHE
p2330
sbag3
(g4
g5
NtRp2331
(dp2332
g8
g2321
sg10
VNNP
p2333
sg12
I9
sg13
VSLADE
p2334
sbag3
(g4
g5
NtRp2335
(dp2336
g8
S'SCHOOL'
p2337
sg10
VNNP
p2338
sg12
I9
sg13
VSCHOOL
p2339
sbag3
(g4
g5
NtRp2340
(dp2341
g8
S'OF'
p2342
sg10
VPP
p2343
sg12
I8
sg13
Nsbag3
(g4
g5
NtRp2344
(dp2345
g8
g2342
sg10
VIN
p2346
sg12
I13
sg13
VOF
p2347
sbag3
(g4
g5
NtRp2348
(dp2349
g8
S'ART'
p2350
sg10
VNP
p2351
sg12
I13
sg13
VART
p2352
sbag3
(g4
g5
NtRp2353
(dp2354
g8
g2350
sg10
VNNP
p2355
sg12
I15
sg13
VART
p2356
sbag3
(g4
g5
NtRp2357
(dp2358
g8
S'.'
sg10
V.
sg12
I1
sg13
V.
sba(lp2359
(lp2360
I1
aa(lp2361
I2
aI4
aI17
aa(lp2362
I3
aa(lp2363
a(lp2364
I5
aI6
aa(lp2365
a(lp2366
I7
aI8
aa(lp2367
a(lp2368
I9
aI13
aa(lp2369
I10
aI11
aI12
aa(lp2370
a(lp2371
a(lp2372
a(lp2373
I14
aI15
aa(lp2374
a(lp2375
I16
aa(lp2376
a(lp2377
a(lp2378
NaNag110
aNaNaNaNaNaNaNaNag111
aNaNaNaNaNaNaI1
tp2379
a(g2288
g2359
(lp2380
NaNaNaNaNaNaNaNag110
aNaNag111
aNaNaNaNaNaNaI8
tp2381
a((lp2382
g3
(g4
g5
NtRp2383
(dp2384
g8
V BORN IN SAN FRANCISCO , CALIFORNIA , CONRAD GRADUATED FROM TAFT SCHOOL IN WATERTOWN , CONNECTICUT .
p2385
sg10
VROOT
p2386
sg12
Nsg13
Nsbag3
(g4
g5
NtRp2387
(dp2388
g8
V BORN IN SAN FRANCISCO , CALIFORNIA , CONRAD GRADUATED FROM TAFT SCHOOL IN WATERTOWN , CONNECTICUT .
p2389
sg10
VS
sg12
I0
sg13
Nsbag3
(g4
g5
NtRp2390
(dp2391
g8
VBORN
p2392
sg10
VS
sg12
I1
sg13
Nsbag3
(g4
g5
NtRp2393
(dp2394
g8
g2392
sg10
VVP
p2395
sg12
I2
sg13
Nsbag3
(g4
g5
NtRp2396
(dp2397
g8
g2392
sg10
VVBN
p2398
sg12
I3
sg13
Nsbag3
(g4
g5
NtRp2399
(dp2400
g8
S'IN'
p2401
sg10
VPP
p2402
sg12
I3
sg13
Nsbag3
(g4
g5
NtRp2403
(dp2404
g8
g2401
sg10
VIN
p2405
sg12
I5
sg13
VIN
p2406
sbag3
(g4
g5
NtRp2407
(dp2408
g8
S'SAN'
p2409
sg10
VNP
p2410
sg12
I5
sg13
Nsbag3
(g4
g5
NtRp2411
(dp2412
g8
g2409
sg10
VNP
p2413
sg12
I7
sg13
Nsbag3
(g4
g5
NtRp2414
(dp2415
g8
g2409
sg10
VNNP
p2416
sg12
I8
sg13
VSAN
p2417
sbag3
(g4
g5
NtRp2418
(dp2419
g8
S'FRANCISCO'
p2420
sg10
VNNP
p2421
sg12
I8
sg13
VFRANCISCO
p2422
sbag3
(g4
g5
NtRp2423
(dp2424
g8
S','
sg10
V,
sg12
I7
sg13
V,
sbag3
(g4
g5
NtRp2425
(dp2426
g8
S'CALIFORNIA'
p2427
sg10
VNP
p2428
sg12
I7
sg13
VCALIFORNIA
p2429
sbag3
(g4
g5
NtRp2430
(dp2431
g8
g2427
sg10
VNNP
p2432
sg12
I12
sg13
VCALIFORNIA
p2433
sbag3
(g4
g5
NtRp2434
(dp2435
g8
S','
sg10
V,
sg12
I1
sg13
V,
sbag3
(g4
g5
NtRp2436
(dp2437
g8
S'CONRAD'
p2438
sg10
VNP
p2439
sg12
I1
sg13
VCONRAD
p2440
sbag3
(g4
g5
NtRp2441
(dp2442
g8
g2438
sg10
VNNP
p2443
sg12
I15
sg13
VCONRAD
p2444
sbag3
(g4
g5
NtRp2445
(dp2446
g8
S'GRADUATE'
p2447
sg10
VVP
p2448
sg12
I1
sg13
Nsbag3
(g4
g5
NtRp2449
(dp2450
g8
g2447
sg10
VVBD
p2451
sg12
I17
sg13
VGRADUATED
p2452
sbag3
(g4
g5
NtRp2453
(dp2454
g8
S'FROM'
p2455
sg10
VPP
p2456
sg12
I17
sg13
Nsbag3
(g4
g5
NtRp2457
(dp2458
g8
g2455
sg10
VIN
p2459
sg12
I19
sg13
VFROM
p2460
sbag3
(g4
g5
NtRp2461
(dp2462
g8
S'TAFT'
p2463
sg10
VNP
p2464
sg12
I19
sg13
Nsbag3
(g4
g5
NtRp2465
(dp2466
g8
g2463
sg10
VNNP
p2467
sg12
I21
sg13
VTAFT
p2468
sbag3
(g4
g5
NtRp2469
(dp2470
g8
S'SCHOOL'
p2471
sg10
VNNP
p2472
sg12
I21
sg13
VSCHOOL
p2473
sbag3
(g4
g5
NtRp2474
(dp2475
g8
g2401
sg10
VPP
p2476
sg12
I17
sg13
Nsbag3
(g4
g5
NtRp2477
(dp2478
g8
g2401
sg10
VIN
p2479
sg12
I24
sg13
VIN
p2480
sbag3
(g4
g5
NtRp2481
(dp2482
g8
S'WATERTOWN'
p2483
sg10
VNP
p2484
sg12
I24
sg13
Nsbag3
(g4
g5
NtRp2485
(dp2486
g8
g2483
sg10
VNNP
p2487
sg12
I26
sg13
VWATERTOWN
p2488
sbag3
(g4
g5
NtRp2489
(dp2490
g8
S','
sg10
V,
sg12
I26
sg13
V,
sbag3
(g4
g5
NtRp2491
(dp2492
g8
S'CONNECTICUT'
p2493
sg10
VNNP
p2494
sg12
I26
sg13
VCONNECTICUT
p2495
sbag3
(g4
g5
NtRp2496
(dp2497
g8
S'.'
sg10
V.
sg12
I1
sg13
V.
sba(lp2498
(lp2499
I1
aa(lp2500
I2
aI14
aI15
aI17
aI30
aa(lp2501
I3
aa(lp2502
I4
aI5
aa(lp2503
a(lp2504
I6
aI7
aa(lp2505
a(lp2506
I8
aI11
aI12
aa(lp2507
I9
aI10
aa(lp2508
a(lp2509
a(lp2510
a(lp2511
I13
aa(lp2512
a(lp2513
a(lp2514
I16
aa(lp2515
a(lp2516
I18
aI19
aI24
aa(lp2517
a(lp2518
I20
aI21
aa(lp2519
a(lp2520
I22
aI23
aa(lp2521
a(lp2522
a(lp2523
I25
aI26
aa(lp2524
a(lp2525
I27
aI28
aI29
aa(lp2526
a(lp2527
a(lp2528
a(lp2529
a(lp2530
NaNaNaNaNaNaNag110
aNaNaNaNaNaNaNaNaNaNaNaNaNaNag111
aNaNaNaNaNaNaNaNaI1
tp2531
a(g2382
g2498
(lp2532
NaNaNaNaNaNaNaNag110
aNaNaNaNaNaNaNaNaNaNaNaNaNag111
aNaNaNaNaNaNaNaNaI1
tp2533
a(g2382
g2498
(lp2534
NaNaNaNaNaNaNaNaNaNaNaNag110
aNaNaNaNaNaNaNaNaNag111
aNaNaNaNaNaNaNaNaI1
tp2535
a(g2382
g2498
(lp2536
NaNaNaNaNaNaNaNaNaNaNaNaNaNaNag110
aNaNaNaNaNaNag111
aNaNaNaNaNaNaNaNaI1
tp2537
a(g2382
g2498
(lp2538
NaNaNaNaNaNaNaNaNaNaNaNaNaNaNaNaNaNaNaNaNaNag111
aNaNaNag110
aNaNaNaNaI17
tp2539
a((lp2540
g3
(g4
g5
NtRp2541
(dp2542
g8
V BOUNDS GRADUATED WITH HONORS FROM THE UNIVERSITY OF VIRGINIA .
p2543
sg10
VROOT
p2544
sg12
Nsg13
Nsbag3
(g4
g5
NtRp2545
(dp2546
g8
V BOUNDS GRADUATED WITH HONORS FROM THE UNIVERSITY OF VIRGINIA .
p2547
sg10
VS
sg12
I0
sg13
Nsbag3
(g4
g5
NtRp2548
(dp2549
g8
VBOUNDS
p2550
sg10
VNP
p2551
sg12
I1
sg13
Nsbag3
(g4
g5
NtRp2552
(dp2553
g8
g2550
sg10
VNNS
p2554
sg12
I2
sg13
Nsbag3
(g4
g5
NtRp2555
(dp2556
g8
S'GRADUATE'
p2557
sg10
VVP
p2558
sg12
I1
sg13
Nsbag3
(g4
g5
NtRp2559
(dp2560
g8
g2557
sg10
VVBD
p2561
sg12
I4
sg13
VGRADUATED
p2562
sbag3
(g4
g5
NtRp2563
(dp2564
g8
S'WITH'
p2565
sg10
VPP
p2566
sg12
I4
sg13
Nsbag3
(g4
g5
NtRp2567
(dp2568
g8
g2565
sg10
VIN
p2569
sg12
I6
sg13
VWITH
p2570
sbag3
(g4
g5
NtRp2571
(dp2572
g8
S'HONOR'
p2573
sg10
VNP
p2574
sg12
I6
sg13
VHONORS
p2575
sbag3
(g4
g5
NtRp2576
(dp2577
g8
g2573
sg10
VNNS
p2578
sg12
I8
sg13
VHONORS
p2579
sbag3
(g4
g5
NtRp2580
(dp2581
g8
S'FROM'
p2582
sg10
VPP
p2583
sg12
I4
sg13
Nsbag3
(g4
g5
NtRp2584
(dp2585
g8
g2582
sg10
VIN
p2586
sg12
I10
sg13
VFROM
p2587
sbag3
(g4
g5
NtRp2588
(dp2589
g8
S'UNIVERSITY'
p2590
sg10
VNP
p2591
sg12
I10
sg13
Nsbag3
(g4
g5
NtRp2592
(dp2593
g8
g2590
sg10
VNP
p2594
sg12
I12
sg13
Nsbag3
(g4
g5
NtRp2595
(dp2596
g8
S'THE'
p2597
sg10
VDT
p2598
sg12
I13
sg13
VTHE
p2599
sbag3
(g4
g5
NtRp2600
(dp2601
g8
g2590
sg10
VNNP
p2602
sg12
I13
sg13
VUNIVERSITY
p2603
sbag3
(g4
g5
NtRp2604
(dp2605
g8
S'OF'
p2606
sg10
VPP
p2607
sg12
I12
sg13
Nsbag3
(g4
g5
NtRp2608
(dp2609
g8
g2606
sg10
VIN
p2610
sg12
I16
sg13
VOF
p2611
sbag3
(g4
g5
NtRp2612
(dp2613
g8
S'VIRGINIA'
p2614
sg10
VNP
p2615
sg12
I16
sg13
VVIRGINIA
p2616
sbag3
(g4
g5
NtRp2617
(dp2618
g8
g2614
sg10
VNNP
p2619
sg12
I18
sg13
VVIRGINIA
p2620
sbag3
(g4
g5
NtRp2621
(dp2622
g8
S'.'
sg10
V.
sg12
I1
sg13
V.
sba(lp2623
(lp2624
I1
aa(lp2625
I2
aI4
aI20
aa(lp2626
I3
aa(lp2627
a(lp2628
I5
aI6
aI10
aa(lp2629
a(lp2630
I7
aI8
aa(lp2631
a(lp2632
I9
aa(lp2633
a(lp2634
I11
aI12
aa(lp2635
a(lp2636
I13
aI16
aa(lp2637
I14
aI15
aa(lp2638
a(lp2639
a(lp2640
I17
aI18
aa(lp2641
a(lp2642
I19
aa(lp2643
a(lp2644
a(lp2645
NaNag110
aNaNaNaNaNaNaNaNaNaNaNaNag111
aNaNaNaNaNaI1
tp2646
a(g2540
g2623
(lp2647
NaNaNag110
aNaNaNaNaNaNaNaNaNaNaNag111
aNaNaNaNaNaI1
tp2648
a(g2540
g2623
(lp2649
NaNaNaNaNaNaNaNag110
aNaNaNaNaNaNag111
aNaNaNaNaNaI4
tp2650
a(g2540
g2623
(lp2651
NaNaNaNaNaNaNaNaNag110
aNaNaNaNaNag111
aNaNaNaNaNaI4
tp2652
a(g2540
g2623
(lp2653
NaNaNaNaNaNaNaNaNaNaNaNag110
aNaNag111
aNaNaNaNaNaI12
tp2654
a((lp2655
g3
(g4
g5
NtRp2656
(dp2657
g8
V PHILIP MOORE ATTENDED MAIDSTONE GRAMMAR SCHOOL .
p2658
sg10
VROOT
p2659
sg12
Nsg13
Nsbag3
(g4
g5
NtRp2660
(dp2661
g8
V PHILIP MOORE ATTENDED MAIDSTONE GRAMMAR SCHOOL .
p2662
sg10
VS
sg12
I0
sg13
Nsbag3
(g4
g5
NtRp2663
(dp2664
g8
VPHILIP
p2665
sg10
VNP
p2666
sg12
I1
sg13
Nsbag3
(g4
g5
NtRp2667
(dp2668
g8
g2665
sg10
VNNP
p2669
sg12
I2
sg13
Nsbag3
(g4
g5
NtRp2670
(dp2671
g8
S'MOORE'
p2672
sg10
VNNP
p2673
sg12
I2
sg13
VMOORE
p2674
sbag3
(g4
g5
NtRp2675
(dp2676
g8
S'ATTEND'
p2677
sg10
VVP
p2678
sg12
I1
sg13
Nsbag3
(g4
g5
NtRp2679
(dp2680
g8
g2677
sg10
VVBD
p2681
sg12
I5
sg13
VATTENDED
p2682
sbag3
(g4
g5
NtRp2683
(dp2684
g8
S'MAIDSTONE'
p2685
sg10
VNP
p2686
sg12
I5
sg13
Nsbag3
(g4
g5
NtRp2687
(dp2688
g8
g2685
sg10
VNNP
p2689
sg12
I7
sg13
VMAIDSTONE
p2690
sbag3
(g4
g5
NtRp2691
(dp2692
g8
S'GRAMMAR'
p2693
sg10
VNNP
p2694
sg12
I7
sg13
VGRAMMAR
p2695
sbag3
(g4
g5
NtRp2696
(dp2697
g8
S'SCHOOL'
p2698
sg10
VNNP
p2699
sg12
I7
sg13
VSCHOOL
p2700
sbag3
(g4
g5
NtRp2701
(dp2702
g8
S'.'
sg10
V.
sg12
I1
sg13
V.
sba(lp2703
(lp2704
I1
aa(lp2705
I2
aI5
aI11
aa(lp2706
I3
aI4
aa(lp2707
a(lp2708
a(lp2709
I6
aI7
aa(lp2710
a(lp2711
I8
aI9
aI10
aa(lp2712
a(lp2713
a(lp2714
a(lp2715
a(lp2716
NaNag110
aNaNaNaNaNag111
aNaNaNaI1
tp2717
a((lp2718
g3
(g4
g5
NtRp2719
(dp2720
g8
V ROPER WAS EDUCATED AT KEBLE COLLEGE , OXFORD .
p2721
sg10
VROOT
p2722
sg12
Nsg13
Nsbag3
(g4
g5
NtRp2723
(dp2724
g8
V ROPER WAS EDUCATED AT KEBLE COLLEGE , OXFORD .
p2725
sg10
VS
sg12
I0
sg13
Nsbag3
(g4
g5
NtRp2726
(dp2727
g8
VROPER
p2728
sg10
VNP
p2729
sg12
I1
sg13
Nsbag3
(g4
g5
NtRp2730
(dp2731
g8
g2728
sg10
VNNP
p2732
sg12
I2
sg13
Nsbag3
(g4
g5
NtRp2733
(dp2734
g8
S'BE'
p2735
sg10
VVP
p2736
sg12
I1
sg13
Nsbag3
(g4
g5
NtRp2737
(dp2738
g8
g2735
sg10
VVBD
p2739
sg12
I4
sg13
VWAS
p2740
sbag3
(g4
g5
NtRp2741
(dp2742
g8
S'EDUCATE'
p2743
sg10
VVP
p2744
sg12
I4
sg13
Nsbag3
(g4
g5
NtRp2745
(dp2746
g8
g2743
sg10
VVBN
p2747
sg12
I6
sg13
VEDUCATED
p2748
sbag3
(g4
g5
NtRp2749
(dp2750
g8
S'AT'
p2751
sg10
VPP
p2752
sg12
I6
sg13
Nsbag3
(g4
g5
NtRp2753
(dp2754
g8
g2751
sg10
VIN
p2755
sg12
I8
sg13
VAT
p2756
sbag3
(g4
g5
NtRp2757
(dp2758
g8
S'KEBLE'
p2759
sg10
VNP
p2760
sg12
I8
sg13
Nsbag3
(g4
g5
NtRp2761
(dp2762
g8
g2759
sg10
VNP
p2763
sg12
I10
sg13
Nsbag3
(g4
g5
NtRp2764
(dp2765
g8
g2759
sg10
VNNP
p2766
sg12
I11
sg13
VKEBLE
p2767
sbag3
(g4
g5
NtRp2768
(dp2769
g8
S'COLLEGE'
p2770
sg10
VNNP
p2771
sg12
I11
sg13
VCOLLEGE
p2772
sbag3
(g4
g5
NtRp2773
(dp2774
g8
S','
sg10
V,
sg12
I10
sg13
V,
sbag3
(g4
g5
NtRp2775
(dp2776
g8
S'OXFORD'
p2777
sg10
VNP
p2778
sg12
I10
sg13
VOXFORD
p2779
sbag3
(g4
g5
NtRp2780
(dp2781
g8
g2777
sg10
VNNP
p2782
sg12
I15
sg13
VOXFORD
p2783
sbag3
(g4
g5
NtRp2784
(dp2785
g8
S'.'
sg10
V.
sg12
I1
sg13
V.
sba(lp2786
(lp2787
I1
aa(lp2788
I2
aI4
aI17
aa(lp2789
I3
aa(lp2790
a(lp2791
I5
aI6
aa(lp2792
a(lp2793
I7
aI8
aa(lp2794
a(lp2795
I9
aI10
aa(lp2796
a(lp2797
I11
aI14
aI15
aa(lp2798
I12
aI13
aa(lp2799
a(lp2800
a(lp2801
a(lp2802
I16
aa(lp2803
a(lp2804
a(lp2805
NaNag110
aNaNaNaNaNaNaNaNaNag111
aNaNaNaNaNaI1
tp2806
a(g2718
g2786
(lp2807
NaNaNaNaNaNaNaNaNaNag110
aNag111
aNaNaNaNaNaI10
tp2808
a(g2718
g2786
(lp2809
NaNaNaNaNaNaNaNaNaNaNaNag111
aNaNag110
aNaNaI10
tp2810
a((lp2811
g3
(g4
g5
NtRp2812
(dp2813
g8
V PETER CUSHMAN JONES WAS EDUCATED AT THE BOSTON LATIN SCHOOL IN 1849 .
p2814
sg10
VROOT
p2815
sg12
Nsg13
Nsbag3
(g4
g5
NtRp2816
(dp2817
g8
V PETER CUSHMAN JONES WAS EDUCATED AT THE BOSTON LATIN SCHOOL IN 1849 .
p2818
sg10
VS
sg12
I0
sg13
Nsbag3
(g4
g5
NtRp2819
(dp2820
g8
VPETER
p2821
sg10
VNP
p2822
sg12
I1
sg13
Nsbag3
(g4
g5
NtRp2823
(dp2824
g8
g2821
sg10
VNNP
p2825
sg12
I2
sg13
Nsbag3
(g4
g5
NtRp2826
(dp2827
g8
S'CUSHMAN'
p2828
sg10
VNNP
p2829
sg12
I2
sg13
VCUSHMAN
p2830
sbag3
(g4
g5
NtRp2831
(dp2832
g8
S'JONES'
p2833
sg10
VNNP
p2834
sg12
I2
sg13
VJONES
p2835
sbag3
(g4
g5
NtRp2836
(dp2837
g8
S'BE'
p2838
sg10
VVP
p2839
sg12
I1
sg13
Nsbag3
(g4
g5
NtRp2840
(dp2841
g8
g2838
sg10
VVBD
p2842
sg12
I6
sg13
VWAS
p2843
sbag3
(g4
g5
NtRp2844
(dp2845
g8
S'EDUCATE'
p2846
sg10
VVP
p2847
sg12
I6
sg13
Nsbag3
(g4
g5
NtRp2848
(dp2849
g8
g2846
sg10
VVBN
p2850
sg12
I8
sg13
VEDUCATED
p2851
sbag3
(g4
g5
NtRp2852
(dp2853
g8
S'AT'
p2854
sg10
VPP
p2855
sg12
I8
sg13
Nsbag3
(g4
g5
NtRp2856
(dp2857
g8
g2854
sg10
VIN
p2858
sg12
I10
sg13
VAT
p2859
sbag3
(g4
g5
NtRp2860
(dp2861
g8
S'BOSTON'
p2862
sg10
VNP
p2863
sg12
I10
sg13
Nsbag3
(g4
g5
NtRp2864
(dp2865
g8
g2862
sg10
VNP
p2866
sg12
I12
sg13
Nsbag3
(g4
g5
NtRp2867
(dp2868
g8
S'THE'
p2869
sg10
VDT
p2870
sg12
I13
sg13
VTHE
p2871
sbag3
(g4
g5
NtRp2872
(dp2873
g8
g2862
sg10
VNNP
p2874
sg12
I13
sg13
VBOSTON
p2875
sbag3
(g4
g5
NtRp2876
(dp2877
g8
S'LATIN'
p2878
sg10
VNNP
p2879
sg12
I13
sg13
VLATIN
p2880
sbag3
(g4
g5
NtRp2881
(dp2882
g8
S'SCHOOL'
p2883
sg10
VNNP
p2884
sg12
I13
sg13
VSCHOOL
p2885
sbag3
(g4
g5
NtRp2886
(dp2887
g8
S'IN'
p2888
sg10
VPP
p2889
sg12
I12
sg13
Nsbag3
(g4
g5
NtRp2890
(dp2891
g8
g2888
sg10
VIN
p2892
sg12
I18
sg13
VIN
p2893
sbag3
(g4
g5
NtRp2894
(dp2895
g8
S'1849'
p2896
sg10
VNP
p2897
sg12
I18
sg13
V1849
p2898
sbag3
(g4
g5
NtRp2899
(dp2900
g8
g2896
sg10
VCD
p2901
sg12
I20
sg13
V1849
p2902
sbag3
(g4
g5
NtRp2903
(dp2904
g8
S'.'
sg10
V.
sg12
I1
sg13
V.
sba(lp2905
(lp2906
I1
aa(lp2907
I2
aI6
aI22
aa(lp2908
I3
aI4
aI5
aa(lp2909
a(lp2910
a(lp2911
a(lp2912
I7
aI8
aa(lp2913
a(lp2914
I9
aI10
aa(lp2915
a(lp2916
I11
aI12
aa(lp2917
a(lp2918
I13
aI18
aa(lp2919
I14
aI15
aI16
aI17
aa(lp2920
a(lp2921
a(lp2922
a(lp2923
a(lp2924
I19
aI20
aa(lp2925
a(lp2926
I21
aa(lp2927
a(lp2928
a(lp2929
NaNag110
aNaNaNaNaNaNaNaNaNaNaNaNag111
aNaNaNaNaNaNaNaI1
tp2930
a(g2811
g2905
(lp2931
NaNaNaNaNaNaNaNaNaNaNaNag110
aNaNag111
aNaNaNaNaNaNaNaI12
tp2932
a(g2811
g2905
(lp2933
NaNaNaNaNaNaNaNaNaNaNaNaNaNaNag111
aNaNaNaNag110
aNaNaI12
tp2934
a((lp2935
g3
(g4
g5
NtRp2936
(dp2937
g8
V RYAN AMOROSO ATTENDED BURNSVILLE SENIOR HIGH SCHOOL IN BURNSVILLE , MINNESOTA .
p2938
sg10
VROOT
p2939
sg12
Nsg13
Nsbag3
(g4
g5
NtRp2940
(dp2941
g8
V RYAN AMOROSO ATTENDED BURNSVILLE SENIOR HIGH SCHOOL IN BURNSVILLE , MINNESOTA .
p2942
sg10
VS
sg12
I0
sg13
Nsbag3
(g4
g5
NtRp2943
(dp2944
g8
VRYAN
p2945
sg10
VNP
p2946
sg12
I1
sg13
Nsbag3
(g4
g5
NtRp2947
(dp2948
g8
g2945
sg10
VNNP
p2949
sg12
I2
sg13
Nsbag3
(g4
g5
NtRp2950
(dp2951
g8
S'AMOROSO'
p2952
sg10
VNNP
p2953
sg12
I2
sg13
VAMOROSO
p2954
sbag3
(g4
g5
NtRp2955
(dp2956
g8
S'ATTEND'
p2957
sg10
VVP
p2958
sg12
I1
sg13
Nsbag3
(g4
g5
NtRp2959
(dp2960
g8
g2957
sg10
VVBD
p2961
sg12
I5
sg13
VATTENDED
p2962
sbag3
(g4
g5
NtRp2963
(dp2964
g8
S'BURNSVILLE'
p2965
sg10
VNP
p2966
sg12
I5
sg13
Nsbag3
(g4
g5
NtRp2967
(dp2968
g8
g2965
sg10
VNP
p2969
sg12
I7
sg13
Nsbag3
(g4
g5
NtRp2970
(dp2971
g8
g2965
sg10
VNNP
p2972
sg12
I8
sg13
VBURNSVILLE
p2973
sbag3
(g4
g5
NtRp2974
(dp2975
g8
S'SENIOR'
p2976
sg10
VNNP
p2977
sg12
I8
sg13
VSENIOR
p2978
sbag3
(g4
g5
NtRp2979
(dp2980
g8
S'HIGH'
p2981
sg10
VNNP
p2982
sg12
I8
sg13
VHIGH
p2983
sbag3
(g4
g5
NtRp2984
(dp2985
g8
S'SCHOOL'
p2986
sg10
VNNP
p2987
sg12
I8
sg13
VSCHOOL
p2988
sbag3
(g4
g5
NtRp2989
(dp2990
g8
S'IN'
p2991
sg10
VPP
p2992
sg12
I7
sg13
Nsbag3
(g4
g5
NtRp2993
(dp2994
g8
g2991
sg10
VIN
p2995
sg12
I13
sg13
VIN
p2996
sbag3
(g4
g5
NtRp2997
(dp2998
g8
g2965
sg10
VNP
p2999
sg12
I13
sg13
Nsbag3
(g4
g5
NtRp3000
(dp3001
g8
g2965
sg10
VNNP
p3002
sg12
I15
sg13
VBURNSVILLE
p3003
sbag3
(g4
g5
NtRp3004
(dp3005
g8
S','
sg10
V,
sg12
I15
sg13
V,
sbag3
(g4
g5
NtRp3006
(dp3007
g8
S'MINNESOTA'
p3008
sg10
VNNP
p3009
sg12
I15
sg13
VMINNESOTA
p3010
sbag3
(g4
g5
NtRp3011
(dp3012
g8
S'.'
sg10
V.
sg12
I1
sg13
V.
sba(lp3013
(lp3014
I1
aa(lp3015
I2
aI5
aI19
aa(lp3016
I3
aI4
aa(lp3017
a(lp3018
a(lp3019
I6
aI7
aa(lp3020
a(lp3021
I8
aI13
aa(lp3022
I9
aI10
aI11
aI12
aa(lp3023
a(lp3024
a(lp3025
a(lp3026
a(lp3027
I14
aI15
aa(lp3028
a(lp3029
I16
aI17
aI18
aa(lp3030
a(lp3031
a(lp3032
a(lp3033
a(lp3034
NaNag110
aNaNaNaNaNaNaNag111
aNaNaNaNaNaNaNaNaNaI1
tp3035
a(g2935
g3013
(lp3036
NaNaNaNaNaNaNag110
aNaNag111
aNaNaNaNaNaNaNaNaNaI7
tp3037
a(g2935
g3013
(lp3038
NaNaNaNaNaNaNaNaNaNag111
aNaNaNaNag110
aNaNaNaNaI7
tp3039
a((lp3040
g3
(g4
g5
NtRp3041
(dp3042
g8
V SENN GRADUATED FROM BEAVERTON HIGH SCHOOL IN 2003 .
p3043
sg10
VROOT
p3044
sg12
Nsg13
Nsbag3
(g4
g5
NtRp3045
(dp3046
g8
V SENN GRADUATED FROM BEAVERTON HIGH SCHOOL IN 2003 .
p3047
sg10
VS
sg12
I0
sg13
Nsbag3
(g4
g5
NtRp3048
(dp3049
g8
VSENN
p3050
sg10
VNP
p3051
sg12
I1
sg13
Nsbag3
(g4
g5
NtRp3052
(dp3053
g8
g3050
sg10
VNNP
p3054
sg12
I2
sg13
Nsbag3
(g4
g5
NtRp3055
(dp3056
g8
S'GRADUATE'
p3057
sg10
VVP
p3058
sg12
I1
sg13
Nsbag3
(g4
g5
NtRp3059
(dp3060
g8
g3057
sg10
VVBD
p3061
sg12
I4
sg13
VGRADUATED
p3062
sbag3
(g4
g5
NtRp3063
(dp3064
g8
S'FROM'
p3065
sg10
VPP
p3066
sg12
I4
sg13
Nsbag3
(g4
g5
NtRp3067
(dp3068
g8
g3065
sg10
VIN
p3069
sg12
I6
sg13
VFROM
p3070
sbag3
(g4
g5
NtRp3071
(dp3072
g8
S'BEAVERTON'
p3073
sg10
VNP
p3074
sg12
I6
sg13
Nsbag3
(g4
g5
NtRp3075
(dp3076
g8
g3073
sg10
VNP
p3077
sg12
I8
sg13
Nsbag3
(g4
g5
NtRp3078
(dp3079
g8
g3073
sg10
VNNP
p3080
sg12
I9
sg13
VBEAVERTON
p3081
sbag3
(g4
g5
NtRp3082
(dp3083
g8
S'HIGH'
p3084
sg10
VNNP
p3085
sg12
I9
sg13
VHIGH
p3086
sbag3
(g4
g5
NtRp3087
(dp3088
g8
S'SCHOOL'
p3089
sg10
VNNP
p3090
sg12
I9
sg13
VSCHOOL
p3091
sbag3
(g4
g5
NtRp3092
(dp3093
g8
S'IN'
p3094
sg10
VPP
p3095
sg12
I8
sg13
Nsbag3
(g4
g5
NtRp3096
(dp3097
g8
g3094
sg10
VIN
p3098
sg12
I13
sg13
VIN
p3099
sbag3
(g4
g5
NtRp3100
(dp3101
g8
S'2003'
p3102
sg10
VNP
p3103
sg12
I13
sg13
V2003
p3104
sbag3
(g4
g5
NtRp3105
(dp3106
g8
g3102
sg10
VCD
p3107
sg12
I15
sg13
V2003
p3108
sbag3
(g4
g5
NtRp3109
(dp3110
g8
S'.'
sg10
V.
sg12
I1
sg13
V.
sba(lp3111
(lp3112
I1
aa(lp3113
I2
aI4
aI17
aa(lp3114
I3
aa(lp3115
a(lp3116
I5
aI6
aa(lp3117
a(lp3118
I7
aI8
aa(lp3119
a(lp3120
I9
aI13
aa(lp3121
I10
aI11
aI12
aa(lp3122
a(lp3123
a(lp3124
a(lp3125
I14
aI15
aa(lp3126
a(lp3127
I16
aa(lp3128
a(lp3129
a(lp3130
NaNag110
aNaNaNaNaNaNaNag111
aNaNaNaNaNaNaNaI1
tp3131
a(g3040
g3111
(lp3132
NaNaNaNaNaNaNaNag110
aNag111
aNaNaNaNaNaNaNaI8
tp3133
a(g3040
g3111
(lp3134
NaNaNaNaNaNaNaNaNaNag111
aNaNaNaNag110
aNaNaI8
tp3135
a((lp3136
g3
(g4
g5
NtRp3137
(dp3138
g8
V JAMES COLQUHOUN ENTERED ST JOHN 'S COLLEGE , CAMBRIDGE IN 1797 BUT LEFT IN 1798 .
p3139
sg10
VROOT
p3140
sg12
Nsg13
Nsbag3
(g4
g5
NtRp3141
(dp3142
g8
V JAMES COLQUHOUN ENTERED ST JOHN 'S COLLEGE , CAMBRIDGE IN 1797 BUT LEFT IN 1798 .
p3143
sg10
VS
sg12
I0
sg13
Nsbag3
(g4
g5
NtRp3144
(dp3145
g8
VJAMES
p3146
sg10
VNP
p3147
sg12
I1
sg13
Nsbag3
(g4
g5
NtRp3148
(dp3149
g8
g3146
sg10
VNNP
p3150
sg12
I2
sg13
Nsbag3
(g4
g5
NtRp3151
(dp3152
g8
S'COLQUHOUN'
p3153
sg10
VNNP
p3154
sg12
I2
sg13
VCOLQUHOUN
p3155
sbag3
(g4
g5
NtRp3156
(dp3157
g8
S'ENTER'
p3158
sg10
VVP
p3159
sg12
I1
sg13
Nsbag3
(g4
g5
NtRp3160
(dp3161
g8
g3158
sg10
VVP
p3162
sg12
I5
sg13
Nsbag3
(g4
g5
NtRp3163
(dp3164
g8
g3158
sg10
VVBD
p3165
sg12
I6
sg13
VENTERED
p3166
sbag3
(g4
g5
NtRp3167
(dp3168
g8
S'ST'
p3169
sg10
VNP
p3170
sg12
I6
sg13
Nsbag3
(g4
g5
NtRp3171
(dp3172
g8
g3169
sg10
VNP
p3173
sg12
I8
sg13
Nsbag3
(g4
g5
NtRp3174
(dp3175
g8
g3169
sg10
VNP
p3176
sg12
I9
sg13
Nsbag3
(g4
g5
NtRp3177
(dp3178
g8
g3169
sg10
VNNP
p3179
sg12
I10
sg13
VST
p3180
sbag3
(g4
g5
NtRp3181
(dp3182
g8
S'JOHN'
p3183
sg10
VNNP
p3184
sg12
I10
sg13
VJOHN
p3185
sbag3
(g4
g5
NtRp3186
(dp3187
g8
S"'S"
p3188
sg10
VPOS
p3189
sg12
I10
sg13
V'S
p3190
sbag3
(g4
g5
NtRp3191
(dp3192
g8
S'COLLEGE'
p3193
sg10
VNNP
p3194
sg12
I9
sg13
VCOLLEGE
p3195
sbag3
(g4
g5
NtRp3196
(dp3197
g8
S','
sg10
V,
sg12
I8
sg13
V,
sbag3
(g4
g5
NtRp3198
(dp3199
g8
S'CAMBRIDGE'
p3200
sg10
VNP
p3201
sg12
I8
sg13
Nsbag3
(g4
g5
NtRp3202
(dp3203
g8
g3200
sg10
VNP
p3204
sg12
I16
sg13
VCAMBRIDGE
p3205
sbag3
(g4
g5
NtRp3206
(dp3207
g8
g3200
sg10
VNNP
p3208
sg12
I17
sg13
VCAMBRIDGE
p3209
sbag3
(g4
g5
NtRp3210
(dp3211
g8
S'IN'
p3212
sg10
VPP
p3213
sg12
I16
sg13
Nsbag3
(g4
g5
NtRp3214
(dp3215
g8
g3212
sg10
VIN
p3216
sg12
I19
sg13
VIN
p3217
sbag3
(g4
g5
NtRp3218
(dp3219
g8
S'1797'
p3220
sg10
VNP
p3221
sg12
I19
sg13
V1797
p3222
sbag3
(g4
g5
NtRp3223
(dp3224
g8
g3220
sg10
VCD
p3225
sg12
I21
sg13
V1797
p3226
sbag3
(g4
g5
NtRp3227
(dp3228
g8
S'BUT'
p3229
sg10
VCC
p3230
sg12
I5
sg13
VBUT
p3231
sbag3
(g4
g5
NtRp3232
(dp3233
g8
S'LEAVE'
p3234
sg10
VVP
p3235
sg12
I5
sg13
Nsbag3
(g4
g5
NtRp3236
(dp3237
g8
g3234
sg10
VVBD
p3238
sg12
I24
sg13
VLEFT
p3239
sbag3
(g4
g5
NtRp3240
(dp3241
g8
g3212
sg10
VPP
p3242
sg12
I24
sg13
Nsbag3
(g4
g5
NtRp3243
(dp3244
g8
g3212
sg10
VIN
p3245
sg12
I26
sg13
VIN
p3246
sbag3
(g4
g5
NtRp3247
(dp3248
g8
S'1798'
p3249
sg10
VNP
p3250
sg12
I26
sg13
V1798
p3251
sbag3
(g4
g5
NtRp3252
(dp3253
g8
g3249
sg10
VCD
p3254
sg12
I28
sg13
V1798
p3255
sbag3
(g4
g5
NtRp3256
(dp3257
g8
S'.'
sg10
V.
sg12
I1
sg13
V.
sba(lp3258
(lp3259
I1
aa(lp3260
I2
aI5
aI30
aa(lp3261
I3
aI4
aa(lp3262
a(lp3263
a(lp3264
I6
aI23
aI24
aa(lp3265
I7
aI8
aa(lp3266
a(lp3267
I9
aI15
aI16
aa(lp3268
I10
aI14
aa(lp3269
I11
aI12
aI13
aa(lp3270
a(lp3271
a(lp3272
a(lp3273
a(lp3274
a(lp3275
I17
aI19
aa(lp3276
I18
aa(lp3277
a(lp3278
I20
aI21
aa(lp3279
a(lp3280
I22
aa(lp3281
a(lp3282
a(lp3283
I25
aI26
aa(lp3284
a(lp3285
I27
aI28
aa(lp3286
a(lp3287
I29
aa(lp3288
a(lp3289
a(lp3290
NaNag110
aNaNaNaNaNaNaNaNag111
aNaNaNaNaNaNaNaNaNaNaNaNaNaNaNaNaNaNaNaI1
tp3291
a(g3136
g3258
(lp3292
NaNaNaNaNaNaNaNag110
aNaNag111
aNaNaNaNaNaNaNaNaNaNaNaNaNaNaNaNaNaNaNaI8
tp3293
a(g3136
g3258
(lp3294
NaNaNaNaNaNaNaNaNaNaNag111
aNaNaNaNag110
aNaNaNaNaNaNaNaNaNaNaNaNaNaNaI8
tp3295
a(g3136
g3258
(lp3296
NaNaNaNaNaNaNaNaNaNaNag111
aNaNaNaNaNag110
aNaNaNaNaNaNaNaNaNaNaNaNaNaI8
tp3297
a(g3136
g3258
(lp3298
NaNaNaNaNaNaNaNaNaNaNag111
aNaNaNaNaNaNaNaNaNag110
aNaNaNaNaNaNaNaNaNaI8
tp3299
a(g3136
g3258
(lp3300
NaNaNaNaNaNaNaNaNaNaNag111
aNaNaNaNaNaNaNaNaNaNaNaNaNaNaNaNag110
aNaNaI5
tp3301
a((lp3302
g3
(g4
g5
NtRp3303
(dp3304
g8
V WRIGHTON STUDIED AT THE UNIVERSITY OF WARWICK IN THE LATE 1990S .
p3305
sg10
VROOT
p3306
sg12
Nsg13
Nsbag3
(g4
g5
NtRp3307
(dp3308
g8
V WRIGHTON STUDIED AT THE UNIVERSITY OF WARWICK IN THE LATE 1990S .
p3309
sg10
VS
sg12
I0
sg13
Nsbag3
(g4
g5
NtRp3310
(dp3311
g8
VWRIGHTON
p3312
sg10
VNP
p3313
sg12
I1
sg13
Nsbag3
(g4
g5
NtRp3314
(dp3315
g8
g3312
sg10
VNNP
p3316
sg12
I2
sg13
Nsbag3
(g4
g5
NtRp3317
(dp3318
g8
S'STUDY'
p3319
sg10
VVP
p3320
sg12
I1
sg13
Nsbag3
(g4
g5
NtRp3321
(dp3322
g8
g3319
sg10
VVBD
p3323
sg12
I4
sg13
VSTUDIED
p3324
sbag3
(g4
g5
NtRp3325
(dp3326
g8
S'AT'
p3327
sg10
VPP
p3328
sg12
I4
sg13
Nsbag3
(g4
g5
NtRp3329
(dp3330
g8
g3327
sg10
VIN
p3331
sg12
I6
sg13
VAT
p3332
sbag3
(g4
g5
NtRp3333
(dp3334
g8
S'UNIVERSITY'
p3335
sg10
VNP
p3336
sg12
I6
sg13
Nsbag3
(g4
g5
NtRp3337
(dp3338
g8
g3335
sg10
VNP
p3339
sg12
I8
sg13
Nsbag3
(g4
g5
NtRp3340
(dp3341
g8
S'THE'
p3342
sg10
VDT
p3343
sg12
I9
sg13
VTHE
p3344
sbag3
(g4
g5
NtRp3345
(dp3346
g8
g3335
sg10
VNNP
p3347
sg12
I9
sg13
VUNIVERSITY
p3348
sbag3
(g4
g5
NtRp3349
(dp3350
g8
S'OF'
p3351
sg10
VPP
p3352
sg12
I8
sg13
Nsbag3
(g4
g5
NtRp3353
(dp3354
g8
g3351
sg10
VIN
p3355
sg12
I12
sg13
VOF
p3356
sbag3
(g4
g5
NtRp3357
(dp3358
g8
S'WARWICK'
p3359
sg10
VNP
p3360
sg12
I12
sg13
VWARWICK
p3361
sbag3
(g4
g5
NtRp3362
(dp3363
g8
g3359
sg10
VNNP
p3364
sg12
I14
sg13
VWARWICK
p3365
sbag3
(g4
g5
NtRp3366
(dp3367
g8
S'IN'
p3368
sg10
VPP
p3369
sg12
I4
sg13
Nsbag3
(g4
g5
NtRp3370
(dp3371
g8
g3368
sg10
VIN
p3372
sg12
I16
sg13
VIN
p3373
sbag3
(g4
g5
NtRp3374
(dp3375
g8
S'1990'
p3376
sg10
VNP
p3377
sg12
I16
sg13
Nsbag3
(g4
g5
NtRp3378
(dp3379
g8
g3342
sg10
VDT
p3380
sg12
I18
sg13
VTHE
p3381
sbag3
(g4
g5
NtRp3382
(dp3383
g8
S'LATE'
p3384
sg10
VJJ
p3385
sg12
I18
sg13
VLATE
p3386
sbag3
(g4
g5
NtRp3387
(dp3388
g8
g3376
sg10
VNNS
p3389
sg12
I18
sg13
V1990S
p3390
sbag3
(g4
g5
NtRp3391
(dp3392
g8
S'.'
sg10
V.
sg12
I1
sg13
V.
sba(lp3393
(lp3394
I1
aa(lp3395
I2
aI4
aI22
aa(lp3396
I3
aa(lp3397
a(lp3398
I5
aI6
aI16
aa(lp3399
a(lp3400
I7
aI8
aa(lp3401
a(lp3402
I9
aI12
aa(lp3403
I10
aI11
aa(lp3404
a(lp3405
a(lp3406
I13
aI14
aa(lp3407
a(lp3408
I15
aa(lp3409
a(lp3410
I17
aI18
aa(lp3411
a(lp3412
I19
aI20
aI21
aa(lp3413
a(lp3414
a(lp3415
a(lp3416
a(lp3417
NaNag110
aNaNaNaNaNaNaNaNag111
aNaNaNaNaNaNaNaNaNaNaNaI1
tp3418
a(g3302
g3393
(lp3419
NaNaNaNaNaNaNaNag110
aNaNag111
aNaNaNaNaNaNaNaNaNaNaNaI8
tp3420
a(g3302
g3393
(lp3421
NaNaNaNaNaNaNaNaNaNaNag111
aNaNaNaNaNaNag110
aNaNaNaNaI4
tp3422
a(g3302
g3393
(lp3423
NaNaNaNaNaNaNaNaNaNaNag111
aNaNaNaNaNaNaNaNaNag110
aNaI4
tp3424
a((lp3425
g3
(g4
g5
NtRp3426
(dp3427
g8
V SEAN MACKIN ATTENDED DOUGLAS ANDERSON SCHOOL OF THE ARTS .
p3428
sg10
VROOT
p3429
sg12
Nsg13
Nsbag3
(g4
g5
NtRp3430
(dp3431
g8
V SEAN MACKIN ATTENDED DOUGLAS ANDERSON SCHOOL OF THE ARTS .
p3432
sg10
VS
sg12
I0
sg13
Nsbag3
(g4
g5
NtRp3433
(dp3434
g8
VSEAN
p3435
sg10
VNP
p3436
sg12
I1
sg13
Nsbag3
(g4
g5
NtRp3437
(dp3438
g8
g3435
sg10
VNNP
p3439
sg12
I2
sg13
Nsbag3
(g4
g5
NtRp3440
(dp3441
g8
S'MACKIN'
p3442
sg10
VNNP
p3443
sg12
I2
sg13
VMACKIN
p3444
sbag3
(g4
g5
NtRp3445
(dp3446
g8
S'ATTEND'
p3447
sg10
VVP
p3448
sg12
I1
sg13
Nsbag3
(g4
g5
NtRp3449
(dp3450
g8
g3447
sg10
VVBD
p3451
sg12
I5
sg13
VATTENDED
p3452
sbag3
(g4
g5
NtRp3453
(dp3454
g8
S'DOUGLAS'
p3455
sg10
VNP
p3456
sg12
I5
sg13
Nsbag3
(g4
g5
NtRp3457
(dp3458
g8
g3455
sg10
VNP
p3459
sg12
I7
sg13
Nsbag3
(g4
g5
NtRp3460
(dp3461
g8
g3455
sg10
VNNP
p3462
sg12
I8
sg13
VDOUGLAS
p3463
sbag3
(g4
g5
NtRp3464
(dp3465
g8
S'ANDERSON'
p3466
sg10
VNNP
p3467
sg12
I8
sg13
VANDERSON
p3468
sbag3
(g4
g5
NtRp3469
(dp3470
g8
S'SCHOOL'
p3471
sg10
VNNP
p3472
sg12
I8
sg13
VSCHOOL
p3473
sbag3
(g4
g5
NtRp3474
(dp3475
g8
S'OF'
p3476
sg10
VPP
p3477
sg12
I7
sg13
Nsbag3
(g4
g5
NtRp3478
(dp3479
g8
g3476
sg10
VIN
p3480
sg12
I12
sg13
VOF
p3481
sbag3
(g4
g5
NtRp3482
(dp3483
g8
S'ART'
p3484
sg10
VNP
p3485
sg12
I12
sg13
Nsbag3
(g4
g5
NtRp3486
(dp3487
g8
S'THE'
p3488
sg10
VDT
p3489
sg12
I14
sg13
VTHE
p3490
sbag3
(g4
g5
NtRp3491
(dp3492
g8
g3484
sg10
VNNS
p3493
sg12
I14
sg13
VARTS
p3494
sbag3
(g4
g5
NtRp3495
(dp3496
g8
S'.'
sg10
V.
sg12
I1
sg13
V.
sba(lp3497
(lp3498
I1
aa(lp3499
I2
aI5
aI17
aa(lp3500
I3
aI4
aa(lp3501
a(lp3502
a(lp3503
I6
aI7
aa(lp3504
a(lp3505
I8
aI12
aa(lp3506
I9
aI10
aI11
aa(lp3507
a(lp3508
a(lp3509
a(lp3510
I13
aI14
aa(lp3511
a(lp3512
I15
aI16
aa(lp3513
a(lp3514
a(lp3515
a(lp3516
NaNag110
aNaNaNaNaNaNag111
aNaNaNaNaNaNaNaNaI1
tp3517
a(g3425
g3497
(lp3518
NaNaNaNaNaNaNag110
aNag111
aNaNaNaNaNaNaNaNaI7
tp3519
a(g3425
g3497
(lp3520
NaNaNaNaNaNaNaNaNag111
aNaNaNaNag110
aNaNaNaI7
tp3521
a(g3425
g3497
(lp3522
NaNaNaNaNaNaNaNaNag111
aNaNaNaNaNaNag110
aNaI7
tp3523
a((lp3524
g3
(g4
g5
NtRp3525
(dp3526
g8
V BORN IN THOMASTON , MAINE , WATTS RECEIVED HIS BACHELORS DEGREE FROM BOWDOIN COLLEGE .
p3527
sg10
VROOT
p3528
sg12
Nsg13
Nsbag3
(g4
g5
NtRp3529
(dp3530
g8
V BORN IN THOMASTON , MAINE , WATTS RECEIVED HIS BACHELORS DEGREE FROM BOWDOIN COLLEGE .
p3531
sg10
VS
sg12
I0
sg13
Nsbag3
(g4
g5
NtRp3532
(dp3533
g8
VBORN
p3534
sg10
VS
sg12
I1
sg13
Nsbag3
(g4
g5
NtRp3535
(dp3536
g8
g3534
sg10
VVP
p3537
sg12
I2
sg13
Nsbag3
(g4
g5
NtRp3538
(dp3539
g8
g3534
sg10
VVBN
p3540
sg12
I3
sg13
Nsbag3
(g4
g5
NtRp3541
(dp3542
g8
S'IN'
p3543
sg10
VPP
p3544
sg12
I3
sg13
Nsbag3
(g4
g5
NtRp3545
(dp3546
g8
g3543
sg10
VIN
p3547
sg12
I5
sg13
VIN
p3548
sbag3
(g4
g5
NtRp3549
(dp3550
g8
S'THOMASTON'
p3551
sg10
VNP
p3552
sg12
I5
sg13
Nsbag3
(g4
g5
NtRp3553
(dp3554
g8
g3551
sg10
VNNP
p3555
sg12
I7
sg13
VTHOMASTON
p3556
sbag3
(g4
g5
NtRp3557
(dp3558
g8
S','
sg10
V,
sg12
I7
sg13
V,
sbag3
(g4
g5
NtRp3559
(dp3560
g8
S'MAINE'
p3561
sg10
VNNP
p3562
sg12
I7
sg13
VMAINE
p3563
sbag3
(g4
g5
NtRp3564
(dp3565
g8
S','
sg10
V,
sg12
I1
sg13
V,
sbag3
(g4
g5
NtRp3566
(dp3567
g8
S'WATTS'
p3568
sg10
VNP
p3569
sg12
I1
sg13
VWATTS
p3570
sbag3
(g4
g5
NtRp3571
(dp3572
g8
g3568
sg10
VNNP
p3573
sg12
I12
sg13
VWATTS
p3574
sbag3
(g4
g5
NtRp3575
(dp3576
g8
S'RECEIVE'
p3577
sg10
VVP
p3578
sg12
I1
sg13
Nsbag3
(g4
g5
NtRp3579
(dp3580
g8
g3577
sg10
VVBD
p3581
sg12
I14
sg13
VRECEIVED
p3582
sbag3
(g4
g5
NtRp3583
(dp3584
g8
S'BACHELOR'
p3585
sg10
VNP
p3586
sg12
I14
sg13
Nsbag3
(g4
g5
NtRp3587
(dp3588
g8
S'HE'
p3589
sg10
VPRP$
p3590
sg12
I16
sg13
VHIS
p3591
sbag3
(g4
g5
NtRp3592
(dp3593
g8
g3585
sg10
VNNS
p3594
sg12
I16
sg13
VBACHELORS
p3595
sbag3
(g4
g5
NtRp3596
(dp3597
g8
S'DEGREE'
p3598
sg10
VNN
p3599
sg12
I16
sg13
VDEGREE
p3600
sbag3
(g4
g5
NtRp3601
(dp3602
g8
S'FROM'
p3603
sg10
VPP
p3604
sg12
I14
sg13
Nsbag3
(g4
g5
NtRp3605
(dp3606
g8
g3603
sg10
VIN
p3607
sg12
I20
sg13
VFROM
p3608
sbag3
(g4
g5
NtRp3609
(dp3610
g8
S'BOWDOIN'
p3611
sg10
VNP
p3612
sg12
I20
sg13
Nsbag3
(g4
g5
NtRp3613
(dp3614
g8
g3611
sg10
VNNP
p3615
sg12
I22
sg13
VBOWDOIN
p3616
sbag3
(g4
g5
NtRp3617
(dp3618
g8
S'COLLEGE'
p3619
sg10
VNNP
p3620
sg12
I22
sg13
VCOLLEGE
p3621
sbag3
(g4
g5
NtRp3622
(dp3623
g8
S'.'
sg10
V.
sg12
I1
sg13
V.
sba(lp3624
(lp3625
I1
aa(lp3626
I2
aI11
aI12
aI14
aI25
aa(lp3627
I3
aa(lp3628
I4
aI5
aa(lp3629
a(lp3630
I6
aI7
aa(lp3631
a(lp3632
I8
aI9
aI10
aa(lp3633
a(lp3634
a(lp3635
a(lp3636
a(lp3637
I13
aa(lp3638
a(lp3639
I15
aI16
aI20
aa(lp3640
a(lp3641
I17
aI18
aI19
aa(lp3642
a(lp3643
a(lp3644
a(lp3645
I21
aI22
aa(lp3646
a(lp3647
I23
aI24
aa(lp3648
a(lp3649
a(lp3650
a(lp3651
NaNaNaNaNaNaNag110
aNaNaNaNaNaNaNaNaNaNaNaNaNaNaNag111
aNaNaI1
tp3652
a(g3524
g3624
(lp3653
NaNaNaNaNaNaNaNaNaNaNaNag110
aNaNaNaNaNaNaNaNaNaNag111
aNaNaI1
tp3654
a(g3524
g3624
(lp3655
NaNaNaNaNaNaNaNaNaNaNaNaNaNaNaNag110
aNaNaNaNaNaNag111
aNaNaI14
tp3656
a(g3524
g3624
(lp3657
NaNaNaNaNaNaNaNaNaNaNaNaNaNaNaNaNaNag110
aNaNaNaNag111
aNaNaI14
tp3658
a(g3524
g3624
(lp3659
NaNaNaNaNaNaNaNaNaNaNaNaNaNaNaNaNaNaNag110
aNaNaNag111
aNaNaI14
tp3660
a((lp3661
g3
(g4
g5
NtRp3662
(dp3663
g8
V KELLY ALSO ATTENDED DOAN 'S HOLLOW PUBLIC SCHOOL IN PORT DOVER .
p3664
sg10
VROOT
p3665
sg12
Nsg13
Nsbag3
(g4
g5
NtRp3666
(dp3667
g8
V KELLY ALSO ATTENDED DOAN 'S HOLLOW PUBLIC SCHOOL IN PORT DOVER .
p3668
sg10
VS
sg12
I0
sg13
Nsbag3
(g4
g5
NtRp3669
(dp3670
g8
VKELLY
p3671
sg10
VNP
p3672
sg12
I1
sg13
Nsbag3
(g4
g5
NtRp3673
(dp3674
g8
g3671
sg10
VNNP
p3675
sg12
I2
sg13
Nsbag3
(g4
g5
NtRp3676
(dp3677
g8
S'ALSO'
p3678
sg10
VADVP
p3679
sg12
I1
sg13
VALSO
p3680
sbag3
(g4
g5
NtRp3681
(dp3682
g8
g3678
sg10
VRB
p3683
sg12
I4
sg13
VALSO
p3684
sbag3
(g4
g5
NtRp3685
(dp3686
g8
S'ATTEND'
p3687
sg10
VVP
p3688
sg12
I1
sg13
Nsbag3
(g4
g5
NtRp3689
(dp3690
g8
g3687
sg10
VVBD
p3691
sg12
I6
sg13
VATTENDED
p3692
sbag3
(g4
g5
NtRp3693
(dp3694
g8
S'DOAN'
p3695
sg10
VNP
p3696
sg12
I6
sg13
Nsbag3
(g4
g5
NtRp3697
(dp3698
g8
g3695
sg10
VNP
p3699
sg12
I8
sg13
Nsbag3
(g4
g5
NtRp3700
(dp3701
g8
g3695
sg10
VNP
p3702
sg12
I9
sg13
Nsbag3
(g4
g5
NtRp3703
(dp3704
g8
g3695
sg10
VNNP
p3705
sg12
I10
sg13
VDOAN
p3706
sbag3
(g4
g5
NtRp3707
(dp3708
g8
S"'S"
p3709
sg10
VPOS
p3710
sg12
I10
sg13
V'S
p3711
sbag3
(g4
g5
NtRp3712
(dp3713
g8
S'HOLLOW'
p3714
sg10
VNNP
p3715
sg12
I9
sg13
VHOLLOW
p3716
sbag3
(g4
g5
NtRp3717
(dp3718
g8
S'PUBLIC'
p3719
sg10
VNNP
p3720
sg12
I9
sg13
VPUBLIC
p3721
sbag3
(g4
g5
NtRp3722
(dp3723
g8
S'SCHOOL'
p3724
sg10
VNNP
p3725
sg12
I9
sg13
VSCHOOL
p3726
sbag3
(g4
g5
NtRp3727
(dp3728
g8
S'IN'
p3729
sg10
VPP
p3730
sg12
I8
sg13
Nsbag3
(g4
g5
NtRp3731
(dp3732
g8
g3729
sg10
VIN
p3733
sg12
I16
sg13
VIN
p3734
sbag3
(g4
g5
NtRp3735
(dp3736
g8
S'PORT'
p3737
sg10
VNP
p3738
sg12
I16
sg13
Nsbag3
(g4
g5
NtRp3739
(dp3740
g8
g3737
sg10
VNNP
p3741
sg12
I18
sg13
VPORT
p3742
sbag3
(g4
g5
NtRp3743
(dp3744
g8
S'DOVER'
p3745
sg10
VNNP
p3746
sg12
I18
sg13
VDOVER
p3747
sbag3
(g4
g5
NtRp3748
(dp3749
g8
S'.'
sg10
V.
sg12
I1
sg13
V.
sba(lp3750
(lp3751
I1
aa(lp3752
I2
aI4
aI6
aI21
aa(lp3753
I3
aa(lp3754
a(lp3755
I5
aa(lp3756
a(lp3757
I7
aI8
aa(lp3758
a(lp3759
I9
aI16
aa(lp3760
I10
aI13
aI14
aI15
aa(lp3761
I11
aI12
aa(lp3762
a(lp3763
a(lp3764
a(lp3765
a(lp3766
a(lp3767
I17
aI18
aa(lp3768
a(lp3769
I19
aI20
aa(lp3770
a(lp3771
a(lp3772
a(lp3773
NaNag110
aNaNaNaNaNaNaNaNaNaNag111
aNaNaNaNaNaNaNaNaI1
tp3774
a(g3661
g3750
(lp3775
NaNaNaNaNaNaNaNag110
aNaNaNaNag111
aNaNaNaNaNaNaNaNaI8
tp3776
a(g3661
g3750
(lp3777
NaNaNaNaNaNaNaNaNaNag110
aNaNag111
aNaNaNaNaNaNaNaNaI9
tp3778
a(g3661
g3750
(lp3779
NaNaNaNaNaNaNaNaNaNaNaNaNag111
aNaNaNaNag110
aNaNaNaI8
tp3780
a((lp3781
g3
(g4
g5
NtRp3782
(dp3783
g8
V DEBORAH WALLEY ATTENDED CENTRAL HIGH SCHOOL IN BRIDGEPORT .
p3784
sg10
VROOT
p3785
sg12
Nsg13
Nsbag3
(g4
g5
NtRp3786
(dp3787
g8
V DEBORAH WALLEY ATTENDED CENTRAL HIGH SCHOOL IN BRIDGEPORT .
p3788
sg10
VS
sg12
I0
sg13
Nsbag3
(g4
g5
NtRp3789
(dp3790
g8
VDEBORAH
p3791
sg10
VNP
p3792
sg12
I1
sg13
Nsbag3
(g4
g5
NtRp3793
(dp3794
g8
g3791
sg10
VNNP
p3795
sg12
I2
sg13
Nsbag3
(g4
g5
NtRp3796
(dp3797
g8
S'WALLEY'
p3798
sg10
VNNP
p3799
sg12
I2
sg13
VWALLEY
p3800
sbag3
(g4
g5
NtRp3801
(dp3802
g8
S'ATTEND'
p3803
sg10
VVP
p3804
sg12
I1
sg13
Nsbag3
(g4
g5
NtRp3805
(dp3806
g8
g3803
sg10
VVBD
p3807
sg12
I5
sg13
VATTENDED
p3808
sbag3
(g4
g5
NtRp3809
(dp3810
g8
S'CENTRAL'
p3811
sg10
VNP
p3812
sg12
I5
sg13
Nsbag3
(g4
g5
NtRp3813
(dp3814
g8
g3811
sg10
VNP
p3815
sg12
I7
sg13
Nsbag3
(g4
g5
NtRp3816
(dp3817
g8
g3811
sg10
VNNP
p3818
sg12
I8
sg13
VCENTRAL
p3819
sbag3
(g4
g5
NtRp3820
(dp3821
g8
S'HIGH'
p3822
sg10
VNNP
p3823
sg12
I8
sg13
VHIGH
p3824
sbag3
(g4
g5
NtRp3825
(dp3826
g8
S'SCHOOL'
p3827
sg10
VNNP
p3828
sg12
I8
sg13
VSCHOOL
p3829
sbag3
(g4
g5
NtRp3830
(dp3831
g8
S'IN'
p3832
sg10
VPP
p3833
sg12
I7
sg13
Nsbag3
(g4
g5
NtRp3834
(dp3835
g8
g3832
sg10
VIN
p3836
sg12
I12
sg13
VIN
p3837
sbag3
(g4
g5
NtRp3838
(dp3839
g8
S'BRIDGEPORT'
p3840
sg10
VNP
p3841
sg12
I12
sg13
VBRIDGEPORT
p3842
sbag3
(g4
g5
NtRp3843
(dp3844
g8
g3840
sg10
VNNP
p3845
sg12
I14
sg13
VBRIDGEPORT
p3846
sbag3
(g4
g5
NtRp3847
(dp3848
g8
S'.'
sg10
V.
sg12
I1
sg13
V.
sba(lp3849
(lp3850
I1
aa(lp3851
I2
aI5
aI16
aa(lp3852
I3
aI4
aa(lp3853
a(lp3854
a(lp3855
I6
aI7
aa(lp3856
a(lp3857
I8
aI12
aa(lp3858
I9
aI10
aI11
aa(lp3859
a(lp3860
a(lp3861
a(lp3862
I13
aI14
aa(lp3863
a(lp3864
I15
aa(lp3865
a(lp3866
a(lp3867
NaNag110
aNaNaNaNaNaNag111
aNaNaNaNaNaNaNaI1
tp3868
a(g3781
g3849
(lp3869
NaNaNaNaNaNaNag110
aNag111
aNaNaNaNaNaNaNaI7
tp3870
a(g3781
g3849
(lp3871
NaNaNaNaNaNaNaNaNag111
aNaNaNaNag110
aNaNaI7
tp3872
a((lp3873
g3
(g4
g5
NtRp3874
(dp3875
g8
V CANDY DEVINE WAS EDUCATED AT LOURDES HILL COLLEGE IN BRISBANE .
p3876
sg10
VROOT
p3877
sg12
Nsg13
Nsbag3
(g4
g5
NtRp3878
(dp3879
g8
V CANDY DEVINE WAS EDUCATED AT LOURDES HILL COLLEGE IN BRISBANE .
p3880
sg10
VS
sg12
I0
sg13
Nsbag3
(g4
g5
NtRp3881
(dp3882
g8
VCANDY
p3883
sg10
VNP
p3884
sg12
I1
sg13
Nsbag3
(g4
g5
NtRp3885
(dp3886
g8
g3883
sg10
VNN
p3887
sg12
I2
sg13
Nsbag3
(g4
g5
NtRp3888
(dp3889
g8
S'DEVINE'
p3890
sg10
VJJ
p3891
sg12
I2
sg13
VDEVINE
p3892
sbag3
(g4
g5
NtRp3893
(dp3894
g8
S'BE'
p3895
sg10
VVP
p3896
sg12
I1
sg13
Nsbag3
(g4
g5
NtRp3897
(dp3898
g8
g3895
sg10
VVBD
p3899
sg12
I5
sg13
VWAS
p3900
sbag3
(g4
g5
NtRp3901
(dp3902
g8
S'EDUCATE'
p3903
sg10
VVP
p3904
sg12
I5
sg13
Nsbag3
(g4
g5
NtRp3905
(dp3906
g8
g3903
sg10
VVBN
p3907
sg12
I7
sg13
VEDUCATED
p3908
sbag3
(g4
g5
NtRp3909
(dp3910
g8
S'AT'
p3911
sg10
VPP
p3912
sg12
I7
sg13
Nsbag3
(g4
g5
NtRp3913
(dp3914
g8
g3911
sg10
VIN
p3915
sg12
I9
sg13
VAT
p3916
sbag3
(g4
g5
NtRp3917
(dp3918
g8
S'LOURDES'
p3919
sg10
VNP
p3920
sg12
I9
sg13
Nsbag3
(g4
g5
NtRp3921
(dp3922
g8
g3919
sg10
VNP
p3923
sg12
I11
sg13
Nsbag3
(g4
g5
NtRp3924
(dp3925
g8
g3919
sg10
VNNP
p3926
sg12
I12
sg13
VLOURDES
p3927
sbag3
(g4
g5
NtRp3928
(dp3929
g8
S'HILL'
p3930
sg10
VNNP
p3931
sg12
I12
sg13
VHILL
p3932
sbag3
(g4
g5
NtRp3933
(dp3934
g8
S'COLLEGE'
p3935
sg10
VNNP
p3936
sg12
I12
sg13
VCOLLEGE
p3937
sbag3
(g4
g5
NtRp3938
(dp3939
g8
S'IN'
p3940
sg10
VPP
p3941
sg12
I11
sg13
Nsbag3
(g4
g5
NtRp3942
(dp3943
g8
g3940
sg10
VIN
p3944
sg12
I16
sg13
VIN
p3945
sbag3
(g4
g5
NtRp3946
(dp3947
g8
S'BRISBANE'
p3948
sg10
VNP
p3949
sg12
I16
sg13
VBRISBANE
p3950
sbag3
(g4
g5
NtRp3951
(dp3952
g8
g3948
sg10
VNNP
p3953
sg12
I18
sg13
VBRISBANE
p3954
sbag3
(g4
g5
NtRp3955
(dp3956
g8
S'.'
sg10
V.
sg12
I1
sg13
V.
sba(lp3957
(lp3958
I1
aa(lp3959
I2
aI5
aI20
aa(lp3960
I3
aI4
aa(lp3961
a(lp3962
a(lp3963
I6
aI7
aa(lp3964
a(lp3965
I8
aI9
aa(lp3966
a(lp3967
I10
aI11
aa(lp3968
a(lp3969
I12
aI16
aa(lp3970
I13
aI14
aI15
aa(lp3971
a(lp3972
a(lp3973
a(lp3974
I17
aI18
aa(lp3975
a(lp3976
I19
aa(lp3977
a(lp3978
a(lp3979
NaNag110
aNaNaNaNaNaNaNaNaNaNag111
aNaNaNaNaNaNaNaI1
tp3980
a(g3873
g3957
(lp3981
NaNaNag110
aNaNaNaNaNaNaNaNaNag111
aNaNaNaNaNaNaNaI1
tp3982
a(g3873
g3957
(lp3983
NaNaNaNaNaNaNaNaNaNaNag110
aNag111
aNaNaNaNaNaNaNaI11
tp3984
a(g3873
g3957
(lp3985
NaNaNaNaNaNaNaNaNaNaNaNaNag111
aNaNaNaNag110
aNaNaI11
tp3986
a((lp3987
g3
(g4
g5
NtRp3988
(dp3989
g8
V SUE C. PAYTON WAS EDUCATED AT EASTERN ILLINOIS UNIVERSITY , RECEIVING A B.S.
p3990
sg10
VROOT
p3991
sg12
Nsg13
Nsbag3
(g4
g5
NtRp3992
(dp3993
g8
V SUE C. PAYTON WAS EDUCATED AT EASTERN ILLINOIS UNIVERSITY , RECEIVING A B.S.
p3994
sg10
VS
sg12
I0
sg13
Nsbag3
(g4
g5
NtRp3995
(dp3996
g8
VSUE
p3997
sg10
VVP
p3998
sg12
I1
sg13
Nsbag3
(g4
g5
NtRp3999
(dp4000
g8
g3997
sg10
VVB
p4001
sg12
I2
sg13
Nsbag3
(g4
g5
NtRp4002
(dp4003
g8
S'C.'
p4004
sg10
VSBAR
p4005
sg12
I2
sg13
Nsbag3
(g4
g5
NtRp4006
(dp4007
g8
g4004
sg10
VS
sg12
I4
sg13
Nsbag3
(g4
g5
NtRp4008
(dp4009
g8
g4004
sg10
VNP
p4010
sg12
I5
sg13
Nsbag3
(g4
g5
NtRp4011
(dp4012
g8
g4004
sg10
VNNP
p4013
sg12
I6
sg13
VC.
p4014
sbag3
(g4
g5
NtRp4015
(dp4016
g8
S'PAYTON'
p4017
sg10
VNNP
p4018
sg12
I6
sg13
VPAYTON
p4019
sbag3
(g4
g5
NtRp4020
(dp4021
g8
S'BE'
p4022
sg10
VVP
p4023
sg12
I5
sg13
Nsbag3
(g4
g5
NtRp4024
(dp4025
g8
g4022
sg10
VVBD
p4026
sg12
I9
sg13
VWAS
p4027
sbag3
(g4
g5
NtRp4028
(dp4029
g8
S'EDUCATE'
p4030
sg10
VVP
p4031
sg12
I9
sg13
Nsbag3
(g4
g5
NtRp4032
(dp4033
g8
g4030
sg10
VVBN
p4034
sg12
I11
sg13
VEDUCATED
p4035
sbag3
(g4
g5
NtRp4036
(dp4037
g8
S'AT'
p4038
sg10
VPP
p4039
sg12
I11
sg13
Nsbag3
(g4
g5
NtRp4040
(dp4041
g8
g4038
sg10
VIN
p4042
sg12
I13
sg13
VAT
p4043
sbag3
(g4
g5
NtRp4044
(dp4045
g8
S'EASTERN'
p4046
sg10
VNP
p4047
sg12
I13
sg13
Nsbag3
(g4
g5
NtRp4048
(dp4049
g8
g4046
sg10
VNNP
p4050
sg12
I15
sg13
VEASTERN
p4051
sbag3
(g4
g5
NtRp4052
(dp4053
g8
S'ILLINOIS'
p4054
sg10
VNNP
p4055
sg12
I15
sg13
VILLINOIS
p4056
sbag3
(g4
g5
NtRp4057
(dp4058
g8
S'UNIVERSITY'
p4059
sg10
VNNP
p4060
sg12
I15
sg13
VUNIVERSITY
p4061
sbag3
(g4
g5
NtRp4062
(dp4063
g8
S','
sg10
V,
sg12
I11
sg13
V,
sbag3
(g4
g5
NtRp4064
(dp4065
g8
S'RECEIVE'
p4066
sg10
VS
sg12
I11
sg13
Nsbag3
(g4
g5
NtRp4067
(dp4068
g8
g4066
sg10
VVP
p4069
sg12
I20
sg13
Nsbag3
(g4
g5
NtRp4070
(dp4071
g8
g4066
sg10
VVBG
p4072
sg12
I21
sg13
VRECEIVING
p4073
sbag3
(g4
g5
NtRp4074
(dp4075
g8
S'B.S.'
p4076
sg10
VNP
p4077
sg12
I21
sg13
Nsbag3
(g4
g5
NtRp4078
(dp4079
g8
S'A'
sg10
VDT
p4080
sg12
I23
sg13
VA
sbag3
(g4
g5
NtRp4081
(dp4082
g8
g4076
sg10
VNN
p4083
sg12
I23
sg13
VB.S.
p4084
sba(lp4085
(lp4086
I1
aa(lp4087
I2
aa(lp4088
I3
aI4
aa(lp4089
a(lp4090
I5
aa(lp4091
I6
aI9
aa(lp4092
I7
aI8
aa(lp4093
a(lp4094
a(lp4095
I10
aI11
aa(lp4096
a(lp4097
I12
aI13
aI19
aI20
aa(lp4098
a(lp4099
I14
aI15
aa(lp4100
a(lp4101
I16
aI17
aI18
aa(lp4102
a(lp4103
a(lp4104
a(lp4105
a(lp4106
I21
aa(lp4107
I22
aI23
aa(lp4108
a(lp4109
I24
aI25
aa(lp4110
a(lp4111
a(lp4112
NaNaNaNaNaNag110
aNaNaNaNaNaNaNaNaNag111
aNaNaNaNaNaNaNaNaNaI5
tp4113
a(g3987
g4085
(lp4114
NaNaNaNaNaNaNaNaNaNaNaNaNaNaNaNag111
aNaNaNaNaNaNag110
aNaNaI11
tp4115
a(g3987
g4085
(lp4116
NaNaNaNaNaNaNaNaNaNaNaNaNaNaNaNag111
aNaNaNaNaNaNaNaNag110
aI11
tp4117
a((lp4118
g3
(g4
g5
NtRp4119
(dp4120
g8
V DIETRICHSON WAS EDUCATED AT OSLO NATIONAL ACADEMY OF THE ARTS -LRB- 2000-2004 -RRB- .
p4121
sg10
VROOT
p4122
sg12
Nsg13
Nsbag3
(g4
g5
NtRp4123
(dp4124
g8
V DIETRICHSON WAS EDUCATED AT OSLO NATIONAL ACADEMY OF THE ARTS -LRB- 2000-2004 -RRB- .
p4125
sg10
VS
sg12
I0
sg13
Nsbag3
(g4
g5
NtRp4126
(dp4127
g8
VDIETRICHSON
p4128
sg10
VNP
p4129
sg12
I1
sg13
Nsbag3
(g4
g5
NtRp4130
(dp4131
g8
g4128
sg10
VNNP
p4132
sg12
I2
sg13
Nsbag3
(g4
g5
NtRp4133
(dp4134
g8
S'BE'
p4135
sg10
VVP
p4136
sg12
I1
sg13
Nsbag3
(g4
g5
NtRp4137
(dp4138
g8
g4135
sg10
VVBD
p4139
sg12
I4
sg13
VWAS
p4140
sbag3
(g4
g5
NtRp4141
(dp4142
g8
S'EDUCATE'
p4143
sg10
VVP
p4144
sg12
I4
sg13
Nsbag3
(g4
g5
NtRp4145
(dp4146
g8
g4143
sg10
VVBN
p4147
sg12
I6
sg13
VEDUCATED
p4148
sbag3
(g4
g5
NtRp4149
(dp4150
g8
S'AT'
p4151
sg10
VPP
p4152
sg12
I6
sg13
Nsbag3
(g4
g5
NtRp4153
(dp4154
g8
g4151
sg10
VIN
p4155
sg12
I8
sg13
VAT
p4156
sbag3
(g4
g5
NtRp4157
(dp4158
g8
S'OSLO'
p4159
sg10
VNP
p4160
sg12
I8
sg13
Nsbag3
(g4
g5
NtRp4161
(dp4162
g8
g4159
sg10
VNP
p4163
sg12
I10
sg13
Nsbag3
(g4
g5
NtRp4164
(dp4165
g8
g4159
sg10
VNNP
p4166
sg12
I11
sg13
VOSLO
p4167
sbag3
(g4
g5
NtRp4168
(dp4169
g8
S'NATIONAL'
p4170
sg10
VNNP
p4171
sg12
I11
sg13
VNATIONAL
p4172
sbag3
(g4
g5
NtRp4173
(dp4174
g8
S'ACADEMY'
p4175
sg10
VNNP
p4176
sg12
I11
sg13
VACADEMY
p4177
sbag3
(g4
g5
NtRp4178
(dp4179
g8
S'OF'
p4180
sg10
VPP
p4181
sg12
I10
sg13
Nsbag3
(g4
g5
NtRp4182
(dp4183
g8
g4180
sg10
VIN
p4184
sg12
I15
sg13
VOF
p4185
sbag3
(g4
g5
NtRp4186
(dp4187
g8
S'ART'
p4188
sg10
VNP
p4189
sg12
I15
sg13
Nsbag3
(g4
g5
NtRp4190
(dp4191
g8
g4188
sg10
VNP
p4192
sg12
I17
sg13
Nsbag3
(g4
g5
NtRp4193
(dp4194
g8
S'THE'
p4195
sg10
VDT
p4196
sg12
I18
sg13
VTHE
p4197
sbag3
(g4
g5
NtRp4198
(dp4199
g8
g4188
sg10
VNNS
p4200
sg12
I18
sg13
VARTS
p4201
sbag3
(g4
g5
NtRp4202
(dp4203
g8
S'-LRB-'
p4204
sg10
VPRN
p4205
sg12
I17
sg13
Nsbag3
(g4
g5
NtRp4206
(dp4207
g8
g4204
sg10
V-LRB-
p4208
sg12
I21
sg13
V-LRB-
p4209
sbag3
(g4
g5
NtRp4210
(dp4211
g8
S'2000-2004'
p4212
sg10
VNP
p4213
sg12
I21
sg13
V2000-2004
p4214
sbag3
(g4
g5
NtRp4215
(dp4216
g8
g4212
sg10
VCD
p4217
sg12
I23
sg13
V2000-2004
p4218
sbag3
(g4
g5
NtRp4219
(dp4220
g8
S'-RRB-'
p4221
sg10
V-RRB-
p4222
sg12
I21
sg13
V-RRB-
p4223
sbag3
(g4
g5
NtRp4224
(dp4225
g8
S'.'
sg10
V.
sg12
I1
sg13
V.
sba(lp4226
(lp4227
I1
aa(lp4228
I2
aI4
aI26
aa(lp4229
I3
aa(lp4230
a(lp4231
I5
aI6
aa(lp4232
a(lp4233
I7
aI8
aa(lp4234
a(lp4235
I9
aI10
aa(lp4236
a(lp4237
I11
aI15
aa(lp4238
I12
aI13
aI14
aa(lp4239
a(lp4240
a(lp4241
a(lp4242
I16
aI17
aa(lp4243
a(lp4244
I18
aI21
aa(lp4245
I19
aI20
aa(lp4246
a(lp4247
a(lp4248
I22
aI23
aI25
aa(lp4249
a(lp4250
I24
aa(lp4251
a(lp4252
a(lp4253
a(lp4254
NaNag110
aNaNaNaNaNaNaNaNaNag111
aNaNaNaNaNaNaNaNaNaNaNaNaNaNaI1
tp4255
a(g4118
g4226
(lp4256
NaNaNaNaNaNaNaNaNaNag110
aNag111
aNaNaNaNaNaNaNaNaNaNaNaNaNaNaI10
tp4257
a(g4118
g4226
(lp4258
NaNaNaNaNaNaNaNaNaNaNaNag111
aNaNaNaNag110
aNaNaNaNaNaNaNaNaNaI10
tp4259
a(g4118
g4226
(lp4260
NaNaNaNaNaNaNaNaNaNaNaNag111
aNaNaNaNaNaNaNaNaNaNag110
aNaNaNaI10
tp4261
a((lp4262
g3
(g4
g5
NtRp4263
(dp4264
g8
V RICHARDS DID UNDERGRADUATE STUDIES AT THE UNIVERSITY OF UTAH .
p4265
sg10
VROOT
p4266
sg12
Nsg13
Nsbag3
(g4
g5
NtRp4267
(dp4268
g8
V RICHARDS DID UNDERGRADUATE STUDIES AT THE UNIVERSITY OF UTAH .
p4269
sg10
VS
sg12
I0
sg13
Nsbag3
(g4
g5
NtRp4270
(dp4271
g8
VRICHARDS
p4272
sg10
VNP
p4273
sg12
I1
sg13
Nsbag3
(g4
g5
NtRp4274
(dp4275
g8
g4272
sg10
VNNP
p4276
sg12
I2
sg13
Nsbag3
(g4
g5
NtRp4277
(dp4278
g8
S'DO'
p4279
sg10
VVP
p4280
sg12
I1
sg13
Nsbag3
(g4
g5
NtRp4281
(dp4282
g8
g4279
sg10
VVBD
p4283
sg12
I4
sg13
VDID
p4284
sbag3
(g4
g5
NtRp4285
(dp4286
g8
S'STUDY'
p4287
sg10
VNP
p4288
sg12
I4
sg13
Nsbag3
(g4
g5
NtRp4289
(dp4290
g8
S'UNDERGRADUATE'
p4291
sg10
VJJ
p4292
sg12
I6
sg13
VUNDERGRADUATE
p4293
sbag3
(g4
g5
NtRp4294
(dp4295
g8
g4287
sg10
VNNS
p4296
sg12
I6
sg13
VSTUDIES
p4297
sbag3
(g4
g5
NtRp4298
(dp4299
g8
S'AT'
p4300
sg10
VPP
p4301
sg12
I4
sg13
Nsbag3
(g4
g5
NtRp4302
(dp4303
g8
g4300
sg10
VIN
p4304
sg12
I9
sg13
VAT
p4305
sbag3
(g4
g5
NtRp4306
(dp4307
g8
S'UNIVERSITY'
p4308
sg10
VNP
p4309
sg12
I9
sg13
Nsbag3
(g4
g5
NtRp4310
(dp4311
g8
g4308
sg10
VNP
p4312
sg12
I11
sg13
Nsbag3
(g4
g5
NtRp4313
(dp4314
g8
S'THE'
p4315
sg10
VDT
p4316
sg12
I12
sg13
VTHE
p4317
sbag3
(g4
g5
NtRp4318
(dp4319
g8
g4308
sg10
VNNP
p4320
sg12
I12
sg13
VUNIVERSITY
p4321
sbag3
(g4
g5
NtRp4322
(dp4323
g8
S'OF'
p4324
sg10
VPP
p4325
sg12
I11
sg13
Nsbag3
(g4
g5
NtRp4326
(dp4327
g8
g4324
sg10
VIN
p4328
sg12
I15
sg13
VOF
p4329
sbag3
(g4
g5
NtRp4330
(dp4331
g8
S'UTAH'
p4332
sg10
VNP
p4333
sg12
I15
sg13
VUTAH
p4334
sbag3
(g4
g5
NtRp4335
(dp4336
g8
g4332
sg10
VNNP
p4337
sg12
I17
sg13
VUTAH
p4338
sbag3
(g4
g5
NtRp4339
(dp4340
g8
S'.'
sg10
V.
sg12
I1
sg13
V.
sba(lp4341
(lp4342
I1
aa(lp4343
I2
aI4
aI19
aa(lp4344
I3
aa(lp4345
a(lp4346
I5
aI6
aI9
aa(lp4347
a(lp4348
I7
aI8
aa(lp4349
a(lp4350
a(lp4351
I10
aI11
aa(lp4352
a(lp4353
I12
aI15
aa(lp4354
I13
aI14
aa(lp4355
a(lp4356
a(lp4357
I16
aI17
aa(lp4358
a(lp4359
I18
aa(lp4360
a(lp4361
a(lp4362
NaNag110
aNaNaNaNaNaNaNaNaNaNaNag111
aNaNaNaNaNaI1
tp4363
a(g4262
g4341
(lp4364
NaNaNaNaNaNag110
aNaNaNaNaNaNaNag111
aNaNaNaNaNaI4
tp4365
a(g4262
g4341
(lp4366
NaNaNaNaNaNaNaNag110
aNaNaNaNaNag111
aNaNaNaNaNaI4
tp4367
a(g4262
g4341
(lp4368
NaNaNaNaNaNaNaNaNaNaNag110
aNaNag111
aNaNaNaNaNaI11
tp4369
a((lp4370
g3
(g4
g5
NtRp4371
(dp4372
g8
V NISHIMURA GRADUATED FROM HANAZONO UNIVERSITY FROM THEIR DEPARTMENT OF BUDDHIST STUDIES IN 1956 .
p4373
sg10
VROOT
p4374
sg12
Nsg13
Nsbag3
(g4
g5
NtRp4375
(dp4376
g8
V NISHIMURA GRADUATED FROM HANAZONO UNIVERSITY FROM THEIR DEPARTMENT OF BUDDHIST STUDIES IN 1956 .
p4377
sg10
VS
sg12
I0
sg13
Nsbag3
(g4
g5
NtRp4378
(dp4379
g8
VNISHIMURA
p4380
sg10
VNP
p4381
sg12
I1
sg13
Nsbag3
(g4
g5
NtRp4382
(dp4383
g8
g4380
sg10
VNNP
p4384
sg12
I2
sg13
Nsbag3
(g4
g5
NtRp4385
(dp4386
g8
S'GRADUATE'
p4387
sg10
VVP
p4388
sg12
I1
sg13
Nsbag3
(g4
g5
NtRp4389
(dp4390
g8
g4387
sg10
VVBD
p4391
sg12
I4
sg13
VGRADUATED
p4392
sbag3
(g4
g5
NtRp4393
(dp4394
g8
S'FROM'
p4395
sg10
VPP
p4396
sg12
I4
sg13
Nsbag3
(g4
g5
NtRp4397
(dp4398
g8
g4395
sg10
VIN
p4399
sg12
I6
sg13
VFROM
p4400
sbag3
(g4
g5
NtRp4401
(dp4402
g8
S'HANAZONO'
p4403
sg10
VNP
p4404
sg12
I6
sg13
Nsbag3
(g4
g5
NtRp4405
(dp4406
g8
g4403
sg10
VNP
p4407
sg12
I8
sg13
Nsbag3
(g4
g5
NtRp4408
(dp4409
g8
g4403
sg10
VNNP
p4410
sg12
I9
sg13
VHANAZONO
p4411
sbag3
(g4
g5
NtRp4412
(dp4413
g8
S'UNIVERSITY'
p4414
sg10
VNNP
p4415
sg12
I9
sg13
VUNIVERSITY
p4416
sbag3
(g4
g5
NtRp4417
(dp4418
g8
g4395
sg10
VPP
p4419
sg12
I8
sg13
Nsbag3
(g4
g5
NtRp4420
(dp4421
g8
g4395
sg10
VIN
p4422
sg12
I12
sg13
VFROM
p4423
sbag3
(g4
g5
NtRp4424
(dp4425
g8
S'STUDY'
p4426
sg10
VNP
p4427
sg12
I12
sg13
Nsbag3
(g4
g5
NtRp4428
(dp4429
g8
S'THEY'
p4430
sg10
VPRP$
p4431
sg12
I14
sg13
VTHEIR
p4432
sbag3
(g4
g5
NtRp4433
(dp4434
g8
S'DEPARTMENT'
p4435
sg10
VNAC
p4436
sg12
I14
sg13
Nsbag3
(g4
g5
NtRp4437
(dp4438
g8
g4435
sg10
VNNP
p4439
sg12
I16
sg13
VDEPARTMENT
p4440
sbag3
(g4
g5
NtRp4441
(dp4442
g8
S'OF'
p4443
sg10
VPP
p4444
sg12
I16
sg13
Nsbag3
(g4
g5
NtRp4445
(dp4446
g8
g4443
sg10
VIN
p4447
sg12
I18
sg13
VOF
p4448
sbag3
(g4
g5
NtRp4449
(dp4450
g8
S'BUDDHIST'
p4451
sg10
VNP
p4452
sg12
I18
sg13
VBUDDHIST
p4453
sbag3
(g4
g5
NtRp4454
(dp4455
g8
g4451
sg10
VNNP
p4456
sg12
I20
sg13
VBUDDHIST
p4457
sbag3
(g4
g5
NtRp4458
(dp4459
g8
g4426
sg10
VNNS
p4460
sg12
I14
sg13
VSTUDIES
p4461
sbag3
(g4
g5
NtRp4462
(dp4463
g8
S'IN'
p4464
sg10
VPP
p4465
sg12
I4
sg13
Nsbag3
(g4
g5
NtRp4466
(dp4467
g8
g4464
sg10
VIN
p4468
sg12
I23
sg13
VIN
p4469
sbag3
(g4
g5
NtRp4470
(dp4471
g8
S'1956'
p4472
sg10
VNP
p4473
sg12
I23
sg13
V1956
p4474
sbag3
(g4
g5
NtRp4475
(dp4476
g8
g4472
sg10
VCD
p4477
sg12
I25
sg13
V1956
p4478
sbag3
(g4
g5
NtRp4479
(dp4480
g8
S'.'
sg10
V.
sg12
I1
sg13
V.
sba(lp4481
(lp4482
I1
aa(lp4483
I2
aI4
aI27
aa(lp4484
I3
aa(lp4485
a(lp4486
I5
aI6
aI23
aa(lp4487
a(lp4488
I7
aI8
aa(lp4489
a(lp4490
I9
aI12
aa(lp4491
I10
aI11
aa(lp4492
a(lp4493
a(lp4494
I13
aI14
aa(lp4495
a(lp4496
I15
aI16
aI22
aa(lp4497
a(lp4498
I17
aI18
aa(lp4499
a(lp4500
I19
aI20
aa(lp4501
a(lp4502
I21
aa(lp4503
a(lp4504
a(lp4505
I24
aI25
aa(lp4506
a(lp4507
I26
aa(lp4508
a(lp4509
a(lp4510
NaNag110
aNaNaNaNaNaNaNag111
aNaNaNaNaNaNaNaNaNaNaNaNaNaNaNaNaNaI1
tp4511
a(g4370
g4481
(lp4512
NaNaNaNaNaNaNaNag110
aNag111
aNaNaNaNaNaNaNaNaNaNaNaNaNaNaNaNaNaI8
tp4513
a(g4370
g4481
(lp4514
NaNaNaNaNaNaNaNaNaNag111
aNaNaNaNaNaNaNaNaNaNaNaNaNaNag110
aNaNaI4
tp4515
a(g4370
g4481
(lp4516
NaNag110
aNaNaNaNaNaNaNaNaNaNaNaNaNaNag111
aNaNaNaNaNaNaNaNaNaNaI1
tp4517
a(g4370
g4481
(lp4518
NaNaNaNaNaNaNaNag110
aNaNaNaNaNaNaNaNag111
aNaNaNaNaNaNaNaNaNaNaI8
tp4519
a(g4370
g4481
(lp4520
NaNaNaNaNaNaNaNaNaNaNaNaNaNaNaNaNag111
aNaNaNaNaNaNaNag110
aNaNaI4
tp4521
a((lp4522
g3
(g4
g5
NtRp4523
(dp4524
g8
V CUI PENG GRADUATED FROM BEIJING FILM ACADEMY .
p4525
sg10
VROOT
p4526
sg12
Nsg13
Nsbag3
(g4
g5
NtRp4527
(dp4528
g8
V CUI PENG GRADUATED FROM BEIJING FILM ACADEMY .
p4529
sg10
VS
sg12
I0
sg13
Nsbag3
(g4
g5
NtRp4530
(dp4531
g8
VCUI
p4532
sg10
VNP
p4533
sg12
I1
sg13
Nsbag3
(g4
g5
NtRp4534
(dp4535
g8
g4532
sg10
VNNP
p4536
sg12
I2
sg13
Nsbag3
(g4
g5
NtRp4537
(dp4538
g8
S'PENG'
p4539
sg10
VNNP
p4540
sg12
I2
sg13
VPENG
p4541
sbag3
(g4
g5
NtRp4542
(dp4543
g8
S'GRADUATE'
p4544
sg10
VVP
p4545
sg12
I1
sg13
Nsbag3
(g4
g5
NtRp4546
(dp4547
g8
g4544
sg10
VVBD
p4548
sg12
I5
sg13
VGRADUATED
p4549
sbag3
(g4
g5
NtRp4550
(dp4551
g8
S'FROM'
p4552
sg10
VPP
p4553
sg12
I5
sg13
Nsbag3
(g4
g5
NtRp4554
(dp4555
g8
g4552
sg10
VIN
p4556
sg12
I7
sg13
VFROM
p4557
sbag3
(g4
g5
NtRp4558
(dp4559
g8
S'BEIJING'
p4560
sg10
VNP
p4561
sg12
I7
sg13
Nsbag3
(g4
g5
NtRp4562
(dp4563
g8
g4560
sg10
VNNP
p4564
sg12
I9
sg13
VBEIJING
p4565
sbag3
(g4
g5
NtRp4566
(dp4567
g8
S'FILM'
p4568
sg10
VNNP
p4569
sg12
I9
sg13
VFILM
p4570
sbag3
(g4
g5
NtRp4571
(dp4572
g8
S'ACADEMY'
p4573
sg10
VNNP
p4574
sg12
I9
sg13
VACADEMY
p4575
sbag3
(g4
g5
NtRp4576
(dp4577
g8
S'.'
sg10
V.
sg12
I1
sg13
V.
sba(lp4578
(lp4579
I1
aa(lp4580
I2
aI5
aI13
aa(lp4581
I3
aI4
aa(lp4582
a(lp4583
a(lp4584
I6
aI7
aa(lp4585
a(lp4586
I8
aI9
aa(lp4587
a(lp4588
I10
aI11
aI12
aa(lp4589
a(lp4590
a(lp4591
a(lp4592
a(lp4593
NaNag110
aNaNaNaNaNaNaNag111
aNaNaNaI1
tp4594
a((lp4595
g3
(g4
g5
NtRp4596
(dp4597
g8
V EVANS GRADUATED FROM COTTONWOOD HIGH SCHOOL IN SALT LAKE CITY .
p4598
sg10
VROOT
p4599
sg12
Nsg13
Nsbag3
(g4
g5
NtRp4600
(dp4601
g8
V EVANS GRADUATED FROM COTTONWOOD HIGH SCHOOL IN SALT LAKE CITY .
p4602
sg10
VS
sg12
I0
sg13
Nsbag3
(g4
g5
NtRp4603
(dp4604
g8
VEVANS
p4605
sg10
VNP
p4606
sg12
I1
sg13
Nsbag3
(g4
g5
NtRp4607
(dp4608
g8
g4605
sg10
VNNP
p4609
sg12
I2
sg13
Nsbag3
(g4
g5
NtRp4610
(dp4611
g8
S'GRADUATE'
p4612
sg10
VVP
p4613
sg12
I1
sg13
Nsbag3
(g4
g5
NtRp4614
(dp4615
g8
g4612
sg10
VVBD
p4616
sg12
I4
sg13
VGRADUATED
p4617
sbag3
(g4
g5
NtRp4618
(dp4619
g8
S'FROM'
p4620
sg10
VPP
p4621
sg12
I4
sg13
Nsbag3
(g4
g5
NtRp4622
(dp4623
g8
g4620
sg10
VIN
p4624
sg12
I6
sg13
VFROM
p4625
sbag3
(g4
g5
NtRp4626
(dp4627
g8
S'COTTONWOOD'
p4628
sg10
VNP
p4629
sg12
I6
sg13
Nsbag3
(g4
g5
NtRp4630
(dp4631
g8
g4628
sg10
VNP
p4632
sg12
I8
sg13
Nsbag3
(g4
g5
NtRp4633
(dp4634
g8
g4628
sg10
VNNP
p4635
sg12
I9
sg13
VCOTTONWOOD
p4636
sbag3
(g4
g5
NtRp4637
(dp4638
g8
S'HIGH'
p4639
sg10
VNNP
p4640
sg12
I9
sg13
VHIGH
p4641
sbag3
(g4
g5
NtRp4642
(dp4643
g8
S'SCHOOL'
p4644
sg10
VNNP
p4645
sg12
I9
sg13
VSCHOOL
p4646
sbag3
(g4
g5
NtRp4647
(dp4648
g8
S'IN'
p4649
sg10
VPP
p4650
sg12
I8
sg13
Nsbag3
(g4
g5
NtRp4651
(dp4652
g8
g4649
sg10
VIN
p4653
sg12
I13
sg13
VIN
p4654
sbag3
(g4
g5
NtRp4655
(dp4656
g8
S'SALT'
p4657
sg10
VNP
p4658
sg12
I13
sg13
Nsbag3
(g4
g5
NtRp4659
(dp4660
g8
g4657
sg10
VNNP
p4661
sg12
I15
sg13
VSALT
p4662
sbag3
(g4
g5
NtRp4663
(dp4664
g8
S'LAKE'
p4665
sg10
VNNP
p4666
sg12
I15
sg13
VLAKE
p4667
sbag3
(g4
g5
NtRp4668
(dp4669
g8
S'CITY'
p4670
sg10
VNNP
p4671
sg12
I15
sg13
VCITY
p4672
sbag3
(g4
g5
NtRp4673
(dp4674
g8
S'.'
sg10
V.
sg12
I1
sg13
V.
sba(lp4675
(lp4676
I1
aa(lp4677
I2
aI4
aI19
aa(lp4678
I3
aa(lp4679
a(lp4680
I5
aI6
aa(lp4681
a(lp4682
I7
aI8
aa(lp4683
a(lp4684
I9
aI13
aa(lp4685
I10
aI11
aI12
aa(lp4686
a(lp4687
a(lp4688
a(lp4689
I14
aI15
aa(lp4690
a(lp4691
I16
aI17
aI18
aa(lp4692
a(lp4693
a(lp4694
a(lp4695
a(lp4696
NaNag110
aNaNaNaNaNaNaNag111
aNaNaNaNaNaNaNaNaNaI1
tp4697
a(g4595
g4675
(lp4698
NaNaNaNaNaNaNaNag110
aNag111
aNaNaNaNaNaNaNaNaNaI8
tp4699
a(g4595
g4675
(lp4700
NaNaNaNaNaNaNaNaNaNag111
aNaNaNaNag110
aNaNaNaNaI8
tp4701
a((lp4702
g3
(g4
g5
NtRp4703
(dp4704
g8
V DANNY VASQUEZ LATER PLAYED COLLEGE SOCCER AT FLORIDA INTERNATIONAL UNIVERSITY .
p4705
sg10
VROOT
p4706
sg12
Nsg13
Nsbag3
(g4
g5
NtRp4707
(dp4708
g8
V DANNY VASQUEZ LATER PLAYED COLLEGE SOCCER AT FLORIDA INTERNATIONAL UNIVERSITY .
p4709
sg10
VS
sg12
I0
sg13
Nsbag3
(g4
g5
NtRp4710
(dp4711
g8
VDANNY
p4712
sg10
VNP
p4713
sg12
I1
sg13
Nsbag3
(g4
g5
NtRp4714
(dp4715
g8
g4712
sg10
VNNP
p4716
sg12
I2
sg13
Nsbag3
(g4
g5
NtRp4717
(dp4718
g8
S'VASQUEZ'
p4719
sg10
VNNP
p4720
sg12
I2
sg13
VVASQUEZ
p4721
sbag3
(g4
g5
NtRp4722
(dp4723
g8
S'LATER'
p4724
sg10
VADVP
p4725
sg12
I1
sg13
VLATER
p4726
sbag3
(g4
g5
NtRp4727
(dp4728
g8
g4724
sg10
VRB
p4729
sg12
I5
sg13
VLATER
p4730
sbag3
(g4
g5
NtRp4731
(dp4732
g8
S'PLAY'
p4733
sg10
VVP
p4734
sg12
I1
sg13
Nsbag3
(g4
g5
NtRp4735
(dp4736
g8
g4733
sg10
VVBD
p4737
sg12
I7
sg13
VPLAYED
p4738
sbag3
(g4
g5
NtRp4739
(dp4740
g8
S'COLLEGE'
p4741
sg10
VNP
p4742
sg12
I7
sg13
Nsbag3
(g4
g5
NtRp4743
(dp4744
g8
g4741
sg10
VNN
p4745
sg12
I9
sg13
VCOLLEGE
p4746
sbag3
(g4
g5
NtRp4747
(dp4748
g8
S'SOCCER'
p4749
sg10
VNN
p4750
sg12
I9
sg13
VSOCCER
p4751
sbag3
(g4
g5
NtRp4752
(dp4753
g8
S'AT'
p4754
sg10
VPP
p4755
sg12
I7
sg13
Nsbag3
(g4
g5
NtRp4756
(dp4757
g8
g4754
sg10
VIN
p4758
sg12
I12
sg13
VAT
p4759
sbag3
(g4
g5
NtRp4760
(dp4761
g8
S'FLORIDA'
p4762
sg10
VNP
p4763
sg12
I12
sg13
Nsbag3
(g4
g5
NtRp4764
(dp4765
g8
g4762
sg10
VNNP
p4766
sg12
I14
sg13
VFLORIDA
p4767
sbag3
(g4
g5
NtRp4768
(dp4769
g8
S'INTERNATIONAL'
p4770
sg10
VNNP
p4771
sg12
I14
sg13
VINTERNATIONAL
p4772
sbag3
(g4
g5
NtRp4773
(dp4774
g8
S'UNIVERSITY'
p4775
sg10
VNNP
p4776
sg12
I14
sg13
VUNIVERSITY
p4777
sbag3
(g4
g5
NtRp4778
(dp4779
g8
S'.'
sg10
V.
sg12
I1
sg13
V.
sba(lp4780
(lp4781
I1
aa(lp4782
I2
aI5
aI7
aI18
aa(lp4783
I3
aI4
aa(lp4784
a(lp4785
a(lp4786
I6
aa(lp4787
a(lp4788
I8
aI9
aI12
aa(lp4789
a(lp4790
I10
aI11
aa(lp4791
a(lp4792
a(lp4793
I13
aI14
aa(lp4794
a(lp4795
I15
aI16
aI17
aa(lp4796
a(lp4797
a(lp4798
a(lp4799
a(lp4800
NaNag110
aNaNaNaNaNaNaNaNaNaNaNaNag111
aNaNaNaI1
tp4801
a(g4702
g4780
(lp4802
NaNaNaNaNaNaNaNaNag110
aNaNaNaNaNag111
aNaNaNaI7
tp4803
a(g4702
g4780
(lp4804
NaNaNaNaNaNaNaNaNaNag110
aNaNaNaNag111
aNaNaNaI7
tp4805
a(g4702
g4780
(lp4806
NaNaNaNaNaNaNaNaNaNaNag110
aNaNaNag111
aNaNaNaI7
tp4807
a((lp4808
g3
(g4
g5
NtRp4809
(dp4810
g8
V HAROLD KOPLOW THEN ENROLLED AT TUFTS UNIVERSITY FOR A GRADUATE DEGREE IN PHYSICS .
p4811
sg10
VROOT
p4812
sg12
Nsg13
Nsbag3
(g4
g5
NtRp4813
(dp4814
g8
V HAROLD KOPLOW THEN ENROLLED AT TUFTS UNIVERSITY FOR A GRADUATE DEGREE IN PHYSICS .
p4815
sg10
VS
sg12
I0
sg13
Nsbag3
(g4
g5
NtRp4816
(dp4817
g8
VHAROLD
p4818
sg10
VNP
p4819
sg12
I1
sg13
Nsbag3
(g4
g5
NtRp4820
(dp4821
g8
g4818
sg10
VNNP
p4822
sg12
I2
sg13
Nsbag3
(g4
g5
NtRp4823
(dp4824
g8
S'KOPLOW'
p4825
sg10
VNNP
p4826
sg12
I2
sg13
VKOPLOW
p4827
sbag3
(g4
g5
NtRp4828
(dp4829
g8
S'THEN'
p4830
sg10
VADVP
p4831
sg12
I1
sg13
VTHEN
p4832
sbag3
(g4
g5
NtRp4833
(dp4834
g8
g4830
sg10
VRB
p4835
sg12
I5
sg13
VTHEN
p4836
sbag3
(g4
g5
NtRp4837
(dp4838
g8
S'ENROL'
p4839
sg10
VVP
p4840
sg12
I1
sg13
Nsbag3
(g4
g5
NtRp4841
(dp4842
g8
g4839
sg10
VVBD
p4843
sg12
I7
sg13
VENROLLED
p4844
sbag3
(g4
g5
NtRp4845
(dp4846
g8
S'AT'
p4847
sg10
VPP
p4848
sg12
I7
sg13
Nsbag3
(g4
g5
NtRp4849
(dp4850
g8
g4847
sg10
VIN
p4851
sg12
I9
sg13
VAT
p4852
sbag3
(g4
g5
NtRp4853
(dp4854
g8
S'TUFTS'
p4855
sg10
VNP
p4856
sg12
I9
sg13
Nsbag3
(g4
g5
NtRp4857
(dp4858
g8
g4855
sg10
VNP
p4859
sg12
I11
sg13
Nsbag3
(g4
g5
NtRp4860
(dp4861
g8
g4855
sg10
VNNP
p4862
sg12
I12
sg13
VTUFTS
p4863
sbag3
(g4
g5
NtRp4864
(dp4865
g8
S'UNIVERSITY'
p4866
sg10
VNNP
p4867
sg12
I12
sg13
VUNIVERSITY
p4868
sbag3
(g4
g5
NtRp4869
(dp4870
g8
S'FOR'
p4871
sg10
VPP
p4872
sg12
I11
sg13
Nsbag3
(g4
g5
NtRp4873
(dp4874
g8
g4871
sg10
VIN
p4875
sg12
I15
sg13
VFOR
p4876
sbag3
(g4
g5
NtRp4877
(dp4878
g8
S'DEGREE'
p4879
sg10
VNP
p4880
sg12
I15
sg13
Nsbag3
(g4
g5
NtRp4881
(dp4882
g8
S'A'
sg10
VDT
p4883
sg12
I17
sg13
VA
sbag3
(g4
g5
NtRp4884
(dp4885
g8
S'GRADUATE'
p4886
sg10
VJJ
p4887
sg12
I17
sg13
VGRADUATE
p4888
sbag3
(g4
g5
NtRp4889
(dp4890
g8
g4879
sg10
VNN
p4891
sg12
I17
sg13
VDEGREE
p4892
sbag3
(g4
g5
NtRp4893
(dp4894
g8
S'IN'
p4895
sg10
VPP
p4896
sg12
I7
sg13
Nsbag3
(g4
g5
NtRp4897
(dp4898
g8
g4895
sg10
VIN
p4899
sg12
I21
sg13
VIN
p4900
sbag3
(g4
g5
NtRp4901
(dp4902
g8
S'PHYSICS'
p4903
sg10
VNP
p4904
sg12
I21
sg13
VPHYSICS
p4905
sbag3
(g4
g5
NtRp4906
(dp4907
g8
g4903
sg10
VNN
p4908
sg12
I23
sg13
VPHYSICS
p4909
sbag3
(g4
g5
NtRp4910
(dp4911
g8
S'.'
sg10
V.
sg12
I1
sg13
V.
sba(lp4912
(lp4913
I1
aa(lp4914
I2
aI5
aI7
aI25
aa(lp4915
I3
aI4
aa(lp4916
a(lp4917
a(lp4918
I6
aa(lp4919
a(lp4920
I8
aI9
aI21
aa(lp4921
a(lp4922
I10
aI11
aa(lp4923
a(lp4924
I12
aI15
aa(lp4925
I13
aI14
aa(lp4926
a(lp4927
a(lp4928
I16
aI17
aa(lp4929
a(lp4930
I18
aI19
aI20
aa(lp4931
a(lp4932
a(lp4933
a(lp4934
I22
aI23
aa(lp4935
a(lp4936
I24
aa(lp4937
a(lp4938
a(lp4939
NaNag110
aNaNaNaNaNaNaNaNaNaNag111
aNaNaNaNaNaNaNaNaNaNaNaNaI1
tp4940
a(g4808
g4912
(lp4941
NaNaNaNaNaNaNaNaNaNaNag110
aNag111
aNaNaNaNaNaNaNaNaNaNaNaNaI11
tp4942
a(g4808
g4912
(lp4943
NaNaNaNaNaNaNaNaNaNaNaNaNag111
aNaNaNag110
aNaNaNaNaNaNaNaNaI11
tp4944
a(g4808
g4912
(lp4945
NaNaNaNaNaNaNaNaNaNaNaNaNag111
aNaNaNaNaNaNag110
aNaNaNaNaNaI11
tp4946
a(g4808
g4912
(lp4947
NaNaNaNaNaNaNaNaNaNaNaNaNag111
aNaNaNaNaNaNaNaNaNag110
aNaNaI7
tp4948
a(g4808
g4912
(lp4949
NaNaNaNaNaNaNaNaNaNaNaNaNag111
aNaNaNaNaNaNaNaNaNaNag110
aNaI7
tp4950
a((lp4951
g3
(g4
g5
NtRp4952
(dp4953
g8
V MENDTE GRADUATED FROM MONSIGNOR BONNER HIGH SCHOOL IN NEARBY DREXEL HILL .
p4954
sg10
VROOT
p4955
sg12
Nsg13
Nsbag3
(g4
g5
NtRp4956
(dp4957
g8
V MENDTE GRADUATED FROM MONSIGNOR BONNER HIGH SCHOOL IN NEARBY DREXEL HILL .
p4958
sg10
VS
sg12
I0
sg13
Nsbag3
(g4
g5
NtRp4959
(dp4960
g8
VMENDTE
p4961
sg10
VNP
p4962
sg12
I1
sg13
Nsbag3
(g4
g5
NtRp4963
(dp4964
g8
g4961
sg10
VNNP
p4965
sg12
I2
sg13
Nsbag3
(g4
g5
NtRp4966
(dp4967
g8
S'GRADUATE'
p4968
sg10
VVP
p4969
sg12
I1
sg13
Nsbag3
(g4
g5
NtRp4970
(dp4971
g8
g4968
sg10
VVBD
p4972
sg12
I4
sg13
VGRADUATED
p4973
sbag3
(g4
g5
NtRp4974
(dp4975
g8
S'FROM'
p4976
sg10
VPP
p4977
sg12
I4
sg13
Nsbag3
(g4
g5
NtRp4978
(dp4979
g8
g4976
sg10
VIN
p4980
sg12
I6
sg13
VFROM
p4981
sbag3
(g4
g5
NtRp4982
(dp4983
g8
S'MONSIGNOR'
p4984
sg10
VNP
p4985
sg12
I6
sg13
Nsbag3
(g4
g5
NtRp4986
(dp4987
g8
g4984
sg10
VNNP
p4988
sg12
I8
sg13
VMONSIGNOR
p4989
sbag3
(g4
g5
NtRp4990
(dp4991
g8
S'BONNER'
p4992
sg10
VNNP
p4993
sg12
I8
sg13
VBONNER
p4994
sbag3
(g4
g5
NtRp4995
(dp4996
g8
S'HIGH'
p4997
sg10
VNNP
p4998
sg12
I8
sg13
VHIGH
p4999
sbag3
(g4
g5
NtRp5000
(dp5001
g8
S'SCHOOL'
p5002
sg10
VNNP
p5003
sg12
I8
sg13
VSCHOOL
p5004
sbag3
(g4
g5
NtRp5005
(dp5006
g8
S'IN'
p5007
sg10
VPP
p5008
sg12
I4
sg13
Nsbag3
(g4
g5
NtRp5009
(dp5010
g8
g5007
sg10
VIN
p5011
sg12
I13
sg13
VIN
p5012
sbag3
(g4
g5
NtRp5013
(dp5014
g8
S'DREXEL'
p5015
sg10
VNP
p5016
sg12
I13
sg13
Nsbag3
(g4
g5
NtRp5017
(dp5018
g8
S'NEARBY'
p5019
sg10
VJJ
p5020
sg12
I15
sg13
VNEARBY
p5021
sbag3
(g4
g5
NtRp5022
(dp5023
g8
g5015
sg10
VNNP
p5024
sg12
I15
sg13
VDREXEL
p5025
sbag3
(g4
g5
NtRp5026
(dp5027
g8
S'HILL'
p5028
sg10
VNNP
p5029
sg12
I15
sg13
VHILL
p5030
sbag3
(g4
g5
NtRp5031
(dp5032
g8
S'.'
sg10
V.
sg12
I1
sg13
V.
sba(lp5033
(lp5034
I1
aa(lp5035
I2
aI4
aI19
aa(lp5036
I3
aa(lp5037
a(lp5038
I5
aI6
aI13
aa(lp5039
a(lp5040
I7
aI8
aa(lp5041
a(lp5042
I9
aI10
aI11
aI12
aa(lp5043
a(lp5044
a(lp5045
a(lp5046
a(lp5047
I14
aI15
aa(lp5048
a(lp5049
I16
aI17
aI18
aa(lp5050
a(lp5051
a(lp5052
a(lp5053
a(lp5054
NaNag110
aNaNaNaNaNaNag111
aNaNaNaNaNaNaNaNaNaNaI1
tp5055
a(g4951
g5033
(lp5056
NaNaNaNaNaNaNaNaNag111
aNaNaNaNaNag110
aNaNaNaNaI4
tp5057
a((lp5058
g3
(g4
g5
NtRp5059
(dp5060
g8
V VICTOR E. ENGSTROM GRADUATED FROM LEHIGH UNIVERSITY IN 1936 .
p5061
sg10
VROOT
p5062
sg12
Nsg13
Nsbag3
(g4
g5
NtRp5063
(dp5064
g8
V VICTOR E. ENGSTROM GRADUATED FROM LEHIGH UNIVERSITY IN 1936 .
p5065
sg10
VS
sg12
I0
sg13
Nsbag3
(g4
g5
NtRp5066
(dp5067
g8
VVICTOR
p5068
sg10
VNP
p5069
sg12
I1
sg13
Nsbag3
(g4
g5
NtRp5070
(dp5071
g8
g5068
sg10
VNNP
p5072
sg12
I2
sg13
Nsbag3
(g4
g5
NtRp5073
(dp5074
g8
S'E.'
p5075
sg10
VNNP
p5076
sg12
I2
sg13
VE.
p5077
sbag3
(g4
g5
NtRp5078
(dp5079
g8
S'ENGSTROM'
p5080
sg10
VNNP
p5081
sg12
I2
sg13
VENGSTROM
p5082
sbag3
(g4
g5
NtRp5083
(dp5084
g8
S'GRADUATE'
p5085
sg10
VVP
p5086
sg12
I1
sg13
Nsbag3
(g4
g5
NtRp5087
(dp5088
g8
g5085
sg10
VVBD
p5089
sg12
I6
sg13
VGRADUATED
p5090
sbag3
(g4
g5
NtRp5091
(dp5092
g8
S'FROM'
p5093
sg10
VPP
p5094
sg12
I6
sg13
Nsbag3
(g4
g5
NtRp5095
(dp5096
g8
g5093
sg10
VIN
p5097
sg12
I8
sg13
VFROM
p5098
sbag3
(g4
g5
NtRp5099
(dp5100
g8
S'LEHIGH'
p5101
sg10
VNP
p5102
sg12
I8
sg13
Nsbag3
(g4
g5
NtRp5103
(dp5104
g8
g5101
sg10
VNNP
p5105
sg12
I10
sg13
VLEHIGH
p5106
sbag3
(g4
g5
NtRp5107
(dp5108
g8
S'UNIVERSITY'
p5109
sg10
VNNP
p5110
sg12
I10
sg13
VUNIVERSITY
p5111
sbag3
(g4
g5
NtRp5112
(dp5113
g8
S'IN'
p5114
sg10
VPP
p5115
sg12
I6
sg13
Nsbag3
(g4
g5
NtRp5116
(dp5117
g8
g5114
sg10
VIN
p5118
sg12
I13
sg13
VIN
p5119
sbag3
(g4
g5
NtRp5120
(dp5121
g8
S'1936'
p5122
sg10
VNP
p5123
sg12
I13
sg13
V1936
p5124
sbag3
(g4
g5
NtRp5125
(dp5126
g8
g5122
sg10
VCD
p5127
sg12
I15
sg13
V1936
p5128
sbag3
(g4
g5
NtRp5129
(dp5130
g8
S'.'
sg10
V.
sg12
I1
sg13
V.
sba(lp5131
(lp5132
I1
aa(lp5133
I2
aI6
aI17
aa(lp5134
I3
aI4
aI5
aa(lp5135
a(lp5136
a(lp5137
a(lp5138
I7
aI8
aI13
aa(lp5139
a(lp5140
I9
aI10
aa(lp5141
a(lp5142
I11
aI12
aa(lp5143
a(lp5144
a(lp5145
I14
aI15
aa(lp5146
a(lp5147
I16
aa(lp5148
a(lp5149
a(lp5150
NaNag110
aNaNaNaNaNaNaNaNag111
aNaNaNaNaNaNaI1
tp5151
a(g5058
g5131
(lp5152
NaNaNaNaNaNaNaNaNaNaNag111
aNaNaNag110
aNaNaI6
tp5153
a((lp5154
g3
(g4
g5
NtRp5155
(dp5156
g8
V SARAH STEVENSON ATTENDED THE DON VALLEY HIGH SCHOOL IN SCAWTHORPE , NORTH DONCASTER .
p5157
sg10
VROOT
p5158
sg12
Nsg13
Nsbag3
(g4
g5
NtRp5159
(dp5160
g8
V SARAH STEVENSON ATTENDED THE DON VALLEY HIGH SCHOOL IN SCAWTHORPE , NORTH DONCASTER .
p5161
sg10
VS
sg12
I0
sg13
Nsbag3
(g4
g5
NtRp5162
(dp5163
g8
VSARAH
p5164
sg10
VNP
p5165
sg12
I1
sg13
Nsbag3
(g4
g5
NtRp5166
(dp5167
g8
g5164
sg10
VNNP
p5168
sg12
I2
sg13
Nsbag3
(g4
g5
NtRp5169
(dp5170
g8
S'STEVENSON'
p5171
sg10
VNNP
p5172
sg12
I2
sg13
VSTEVENSON
p5173
sbag3
(g4
g5
NtRp5174
(dp5175
g8
S'ATTEND'
p5176
sg10
VVP
p5177
sg12
I1
sg13
Nsbag3
(g4
g5
NtRp5178
(dp5179
g8
g5176
sg10
VVBD
p5180
sg12
I5
sg13
VATTENDED
p5181
sbag3
(g4
g5
NtRp5182
(dp5183
g8
S'DON'
p5184
sg10
VNP
p5185
sg12
I5
sg13
Nsbag3
(g4
g5
NtRp5186
(dp5187
g8
S'THE'
p5188
sg10
VDT
p5189
sg12
I7
sg13
VTHE
p5190
sbag3
(g4
g5
NtRp5191
(dp5192
g8
g5184
sg10
VNNP
p5193
sg12
I7
sg13
VDON
p5194
sbag3
(g4
g5
NtRp5195
(dp5196
g8
S'VALLEY'
p5197
sg10
VNNP
p5198
sg12
I7
sg13
VVALLEY
p5199
sbag3
(g4
g5
NtRp5200
(dp5201
g8
S'HIGH'
p5202
sg10
VNNP
p5203
sg12
I7
sg13
VHIGH
p5204
sbag3
(g4
g5
NtRp5205
(dp5206
g8
S'SCHOOL'
p5207
sg10
VNNP
p5208
sg12
I7
sg13
VSCHOOL
p5209
sbag3
(g4
g5
NtRp5210
(dp5211
g8
S'IN'
p5212
sg10
VPP
p5213
sg12
I5
sg13
Nsbag3
(g4
g5
NtRp5214
(dp5215
g8
g5212
sg10
VIN
p5216
sg12
I13
sg13
VIN
p5217
sbag3
(g4
g5
NtRp5218
(dp5219
g8
S'SCAWTHORPE'
p5220
sg10
VNP
p5221
sg12
I13
sg13
VSCAWTHORPE
p5222
sbag3
(g4
g5
NtRp5223
(dp5224
g8
g5220
sg10
VNNP
p5225
sg12
I15
sg13
VSCAWTHORPE
p5226
sbag3
(g4
g5
NtRp5227
(dp5228
g8
S','
sg10
V,
sg12
I5
sg13
V,
sbag3
(g4
g5
NtRp5229
(dp5230
g8
S'NORTH'
p5231
sg10
VADVP
p5232
sg12
I5
sg13
Nsbag3
(g4
g5
NtRp5233
(dp5234
g8
g5231
sg10
VRB
p5235
sg12
I18
sg13
VNORTH
p5236
sbag3
(g4
g5
NtRp5237
(dp5238
g8
S'DONCASTER'
p5239
sg10
VNP
p5240
sg12
I18
sg13
VDONCASTER
p5241
sbag3
(g4
g5
NtRp5242
(dp5243
g8
g5239
sg10
VNNP
p5244
sg12
I20
sg13
VDONCASTER
p5245
sbag3
(g4
g5
NtRp5246
(dp5247
g8
S'.'
sg10
V.
sg12
I1
sg13
V.
sba(lp5248
(lp5249
I1
aa(lp5250
I2
aI5
aI22
aa(lp5251
I3
aI4
aa(lp5252
a(lp5253
a(lp5254
I6
aI7
aI13
aI17
aI18
aa(lp5255
a(lp5256
I8
aI9
aI10
aI11
aI12
aa(lp5257
a(lp5258
a(lp5259
a(lp5260
a(lp5261
a(lp5262
I14
aI15
aa(lp5263
a(lp5264
I16
aa(lp5265
a(lp5266
a(lp5267
I19
aI20
aa(lp5268
a(lp5269
I21
aa(lp5270
a(lp5271
a(lp5272
NaNag110
aNaNaNaNaNaNag111
aNaNaNaNaNaNaNaNaNaNaNaNaNaI1
tp5273
a(g5154
g5248
(lp5274
NaNaNaNaNaNaNaNaNag111
aNaNaNaNaNag110
aNaNaNaNaNaNaNaI5
tp5275
a(g5154
g5248
(lp5276
NaNaNaNaNaNaNaNaNag111
aNaNaNaNaNaNaNaNaNaNag110
aNaNaI5
tp5277
a((lp5278
g3
(g4
g5
NtRp5279
(dp5280
g8
V JAMES BOWEN EVERHART STUDIED LAW AT HARVARD UNIVERSITY AND IN PHILADELPHIA , PENNSYLVANIA .
p5281
sg10
VROOT
p5282
sg12
Nsg13
Nsbag3
(g4
g5
NtRp5283
(dp5284
g8
V JAMES BOWEN EVERHART STUDIED LAW AT HARVARD UNIVERSITY AND IN PHILADELPHIA , PENNSYLVANIA .
p5285
sg10
VS
sg12
I0
sg13
Nsbag3
(g4
g5
NtRp5286
(dp5287
g8
VJAMES
p5288
sg10
VNP
p5289
sg12
I1
sg13
Nsbag3
(g4
g5
NtRp5290
(dp5291
g8
g5288
sg10
VNNP
p5292
sg12
I2
sg13
Nsbag3
(g4
g5
NtRp5293
(dp5294
g8
S'BOWEN'
p5295
sg10
VNNP
p5296
sg12
I2
sg13
VBOWEN
p5297
sbag3
(g4
g5
NtRp5298
(dp5299
g8
S'EVERHART'
p5300
sg10
VNNP
p5301
sg12
I2
sg13
VEVERHART
p5302
sbag3
(g4
g5
NtRp5303
(dp5304
g8
S'STUDY'
p5305
sg10
VVP
p5306
sg12
I1
sg13
Nsbag3
(g4
g5
NtRp5307
(dp5308
g8
g5305
sg10
VVBD
p5309
sg12
I6
sg13
VSTUDIED
p5310
sbag3
(g4
g5
NtRp5311
(dp5312
g8
S'LAW'
p5313
sg10
VNP
p5314
sg12
I6
sg13
VLAW
p5315
sbag3
(g4
g5
NtRp5316
(dp5317
g8
g5313
sg10
VNN
p5318
sg12
I8
sg13
VLAW
p5319
sbag3
(g4
g5
NtRp5320
(dp5321
g8
S'AT'
p5322
sg10
VPP
p5323
sg12
I6
sg13
Nsbag3
(g4
g5
NtRp5324
(dp5325
g8
g5322
sg10
VPP
p5326
sg12
I10
sg13
Nsbag3
(g4
g5
NtRp5327
(dp5328
g8
g5322
sg10
VIN
p5329
sg12
I11
sg13
VAT
p5330
sbag3
(g4
g5
NtRp5331
(dp5332
g8
S'HARVARD'
p5333
sg10
VNP
p5334
sg12
I11
sg13
Nsbag3
(g4
g5
NtRp5335
(dp5336
g8
g5333
sg10
VNNP
p5337
sg12
I13
sg13
VHARVARD
p5338
sbag3
(g4
g5
NtRp5339
(dp5340
g8
S'UNIVERSITY'
p5341
sg10
VNNP
p5342
sg12
I13
sg13
VUNIVERSITY
p5343
sbag3
(g4
g5
NtRp5344
(dp5345
g8
S'AND'
p5346
sg10
VCC
p5347
sg12
I10
sg13
VAND
p5348
sbag3
(g4
g5
NtRp5349
(dp5350
g8
S'IN'
p5351
sg10
VPP
p5352
sg12
I10
sg13
Nsbag3
(g4
g5
NtRp5353
(dp5354
g8
g5351
sg10
VIN
p5355
sg12
I17
sg13
VIN
p5356
sbag3
(g4
g5
NtRp5357
(dp5358
g8
S'PHILADELPHIA'
p5359
sg10
VNP
p5360
sg12
I17
sg13
Nsbag3
(g4
g5
NtRp5361
(dp5362
g8
g5359
sg10
VNNP
p5363
sg12
I19
sg13
VPHILADELPHIA
p5364
sbag3
(g4
g5
NtRp5365
(dp5366
g8
S','
sg10
V,
sg12
I19
sg13
V,
sbag3
(g4
g5
NtRp5367
(dp5368
g8
S'PENNSYLVANIA'
p5369
sg10
VNNP
p5370
sg12
I19
sg13
VPENNSYLVANIA
p5371
sbag3
(g4
g5
NtRp5372
(dp5373
g8
S'.'
sg10
V.
sg12
I1
sg13
V.
sba(lp5374
(lp5375
I1
aa(lp5376
I2
aI6
aI23
aa(lp5377
I3
aI4
aI5
aa(lp5378
a(lp5379
a(lp5380
a(lp5381
I7
aI8
aI10
aa(lp5382
a(lp5383
I9
aa(lp5384
a(lp5385
I11
aI16
aI17
aa(lp5386
I12
aI13
aa(lp5387
a(lp5388
I14
aI15
aa(lp5389
a(lp5390
a(lp5391
a(lp5392
I18
aI19
aa(lp5393
a(lp5394
I20
aI21
aI22
aa(lp5395
a(lp5396
a(lp5397
a(lp5398
a(lp5399
NaNag110
aNaNaNaNaNaNaNaNaNaNaNag111
aNaNaNaNaNaNaNaNaNaI1
tp5400
a(g5278
g5374
(lp5401
NaNaNaNaNaNaNaNag110
aNaNaNaNaNag111
aNaNaNaNaNaNaNaNaNaI6
tp5402
a(g5278
g5374
(lp5403
NaNaNaNaNaNaNaNaNag110
aNaNaNaNag111
aNaNaNaNaNaNaNaNaNaI6
tp5404
a(g5278
g5374
(lp5405
NaNaNaNaNaNaNaNaNaNaNaNaNaNag111
aNaNaNaNag110
aNaNaNaNaI10
tp5406
a((lp5407
g3
(g4
g5
NtRp5408
(dp5409
g8
V GEORGE D. ARCHIBALD GRADUATED FROM WASHINGTON & JEFFERSON COLLEGE .
p5410
sg10
VROOT
p5411
sg12
Nsg13
Nsbag3
(g4
g5
NtRp5412
(dp5413
g8
V GEORGE D. ARCHIBALD GRADUATED FROM WASHINGTON & JEFFERSON COLLEGE .
p5414
sg10
VS
sg12
I0
sg13
Nsbag3
(g4
g5
NtRp5415
(dp5416
g8
VGEORGE
p5417
sg10
VNP
p5418
sg12
I1
sg13
Nsbag3
(g4
g5
NtRp5419
(dp5420
g8
g5417
sg10
VNNP
p5421
sg12
I2
sg13
Nsbag3
(g4
g5
NtRp5422
(dp5423
g8
S'D.'
p5424
sg10
VNNP
p5425
sg12
I2
sg13
VD.
p5426
sbag3
(g4
g5
NtRp5427
(dp5428
g8
S'ARCHIBALD'
p5429
sg10
VNNP
p5430
sg12
I2
sg13
VARCHIBALD
p5431
sbag3
(g4
g5
NtRp5432
(dp5433
g8
S'GRADUATE'
p5434
sg10
VVP
p5435
sg12
I1
sg13
Nsbag3
(g4
g5
NtRp5436
(dp5437
g8
g5434
sg10
VVBD
p5438
sg12
I6
sg13
VGRADUATED
p5439
sbag3
(g4
g5
NtRp5440
(dp5441
g8
S'FROM'
p5442
sg10
VPP
p5443
sg12
I6
sg13
Nsbag3
(g4
g5
NtRp5444
(dp5445
g8
g5442
sg10
VIN
p5446
sg12
I8
sg13
VFROM
p5447
sbag3
(g4
g5
NtRp5448
(dp5449
g8
S'WASHINGTON'
p5450
sg10
VNP
p5451
sg12
I8
sg13
Nsbag3
(g4
g5
NtRp5452
(dp5453
g8
g5450
sg10
VNNP
p5454
sg12
I10
sg13
VWASHINGTON
p5455
sbag3
(g4
g5
NtRp5456
(dp5457
g8
S'&'
sg10
VCC
p5458
sg12
I10
sg13
V&
sbag3
(g4
g5
NtRp5459
(dp5460
g8
S'JEFFERSON'
p5461
sg10
VNNP
p5462
sg12
I10
sg13
VJEFFERSON
p5463
sbag3
(g4
g5
NtRp5464
(dp5465
g8
S'COLLEGE'
p5466
sg10
VNNP
p5467
sg12
I10
sg13
VCOLLEGE
p5468
sbag3
(g4
g5
NtRp5469
(dp5470
g8
S'.'
sg10
V.
sg12
I1
sg13
V.
sba(lp5471
(lp5472
I1
aa(lp5473
I2
aI6
aI15
aa(lp5474
I3
aI4
aI5
aa(lp5475
a(lp5476
a(lp5477
a(lp5478
I7
aI8
aa(lp5479
a(lp5480
I9
aI10
aa(lp5481
a(lp5482
I11
aI12
aI13
aI14
aa(lp5483
a(lp5484
a(lp5485
a(lp5486
a(lp5487
a(lp5488
NaNag110
aNaNaNaNaNaNaNaNag111
aNaNaNaNaI1
tp5489
a((lp5490
g3
(g4
g5
NtRp5491
(dp5492
g8
V ALEX BOONE PLAYED HIGH SCHOOL FOOTBALL AT ST. EDWARD HIGH SCHOOL IN LAKEWOOD .
p5493
sg10
VROOT
p5494
sg12
Nsg13
Nsbag3
(g4
g5
NtRp5495
(dp5496
g8
V ALEX BOONE PLAYED HIGH SCHOOL FOOTBALL AT ST. EDWARD HIGH SCHOOL IN LAKEWOOD .
p5497
sg10
VS
sg12
I0
sg13
Nsbag3
(g4
g5
NtRp5498
(dp5499
g8
VALEX
p5500
sg10
VNP
p5501
sg12
I1
sg13
Nsbag3
(g4
g5
NtRp5502
(dp5503
g8
g5500
sg10
VNNP
p5504
sg12
I2
sg13
Nsbag3
(g4
g5
NtRp5505
(dp5506
g8
S'BOONE'
p5507
sg10
VNNP
p5508
sg12
I2
sg13
VBOONE
p5509
sbag3
(g4
g5
NtRp5510
(dp5511
g8
S'PLAY'
p5512
sg10
VVP
p5513
sg12
I1
sg13
Nsbag3
(g4
g5
NtRp5514
(dp5515
g8
g5512
sg10
VVBD
p5516
sg12
I5
sg13
VPLAYED
p5517
sbag3
(g4
g5
NtRp5518
(dp5519
g8
S'SCHOOL'
p5520
sg10
VNP
p5521
sg12
I5
sg13
Nsbag3
(g4
g5
NtRp5522
(dp5523
g8
S'HIGH'
p5524
sg10
VJJ
p5525
sg12
I7
sg13
VHIGH
p5526
sbag3
(g4
g5
NtRp5527
(dp5528
g8
g5520
sg10
VNN
p5529
sg12
I7
sg13
VSCHOOL
p5530
sbag3
(g4
g5
NtRp5531
(dp5532
g8
S'FOOTBALL'
p5533
sg10
VNN
p5534
sg12
I7
sg13
VFOOTBALL
p5535
sbag3
(g4
g5
NtRp5536
(dp5537
g8
S'AT'
p5538
sg10
VPP
p5539
sg12
I5
sg13
Nsbag3
(g4
g5
NtRp5540
(dp5541
g8
g5538
sg10
VIN
p5542
sg12
I11
sg13
VAT
p5543
sbag3
(g4
g5
NtRp5544
(dp5545
g8
S'ST.'
p5546
sg10
VNP
p5547
sg12
I11
sg13
Nsbag3
(g4
g5
NtRp5548
(dp5549
g8
g5546
sg10
VNNP
p5550
sg12
I13
sg13
VST.
p5551
sbag3
(g4
g5
NtRp5552
(dp5553
g8
S'EDWARD'
p5554
sg10
VNNP
p5555
sg12
I13
sg13
VEDWARD
p5556
sbag3
(g4
g5
NtRp5557
(dp5558
g8
g5524
sg10
VNNP
p5559
sg12
I13
sg13
VHIGH
p5560
sbag3
(g4
g5
NtRp5561
(dp5562
g8
g5520
sg10
VNNP
p5563
sg12
I13
sg13
VSCHOOL
p5564
sbag3
(g4
g5
NtRp5565
(dp5566
g8
S'IN'
p5567
sg10
VPP
p5568
sg12
I5
sg13
Nsbag3
(g4
g5
NtRp5569
(dp5570
g8
g5567
sg10
VIN
p5571
sg12
I18
sg13
VIN
p5572
sbag3
(g4
g5
NtRp5573
(dp5574
g8
S'LAKEWOOD'
p5575
sg10
VNP
p5576
sg12
I18
sg13
VLAKEWOOD
p5577
sbag3
(g4
g5
NtRp5578
(dp5579
g8
g5575
sg10
VNNP
p5580
sg12
I20
sg13
VLAKEWOOD
p5581
sbag3
(g4
g5
NtRp5582
(dp5583
g8
S'.'
sg10
V.
sg12
I1
sg13
V.
sba(lp5584
(lp5585
I1
aa(lp5586
I2
aI5
aI22
aa(lp5587
I3
aI4
aa(lp5588
a(lp5589
a(lp5590
I6
aI7
aI11
aI18
aa(lp5591
a(lp5592
I8
aI9
aI10
aa(lp5593
a(lp5594
a(lp5595
a(lp5596
I12
aI13
aa(lp5597
a(lp5598
I14
aI15
aI16
aI17
aa(lp5599
a(lp5600
a(lp5601
a(lp5602
a(lp5603
I19
aI20
aa(lp5604
a(lp5605
I21
aa(lp5606
a(lp5607
a(lp5608
NaNag110
aNaNaNaNaNaNag111
aNaNaNaNaNaNaNaNaNaNaNaNaNaI1
tp5609
a(g5490
g5584
(lp5610
NaNaNaNaNaNaNaNaNag111
ag110
aNaNaNaNaNaNaNaNaNaNaNaNaI7
tp5611
a(g5490
g5584
(lp5612
NaNaNaNaNaNaNaNaNag111
aNaNaNaNaNaNaNaNaNaNag110
aNaNaI5
tp5613
a(g5490
g5584
(lp5614
NaNag110
aNaNaNaNaNaNaNaNaNaNaNag111
aNaNaNaNaNaNaNaNaI1
tp5615
a(g5490
g5584
(lp5616
NaNaNaNaNaNaNaNaNaNag110
aNaNaNag111
aNaNaNaNaNaNaNaNaI5
tp5617
a(g5490
g5584
(lp5618
NaNaNaNaNaNaNaNaNaNaNaNaNaNag111
aNaNaNaNaNag110
aNaNaI5
tp5619
a((lp5620
g3
(g4
g5
NtRp5621
(dp5622
g8
V DAVID JANSSEN ATTENDED FAIRFAX HIGH SCHOOL IN LOS ANGELES .
p5623
sg10
VROOT
p5624
sg12
Nsg13
Nsbag3
(g4
g5
NtRp5625
(dp5626
g8
V DAVID JANSSEN ATTENDED FAIRFAX HIGH SCHOOL IN LOS ANGELES .
p5627
sg10
VS
sg12
I0
sg13
Nsbag3
(g4
g5
NtRp5628
(dp5629
g8
VDAVID
p5630
sg10
VNP
p5631
sg12
I1
sg13
Nsbag3
(g4
g5
NtRp5632
(dp5633
g8
g5630
sg10
VNNP
p5634
sg12
I2
sg13
Nsbag3
(g4
g5
NtRp5635
(dp5636
g8
S'JANSSEN'
p5637
sg10
VNNP
p5638
sg12
I2
sg13
VJANSSEN
p5639
sbag3
(g4
g5
NtRp5640
(dp5641
g8
S'ATTEND'
p5642
sg10
VVP
p5643
sg12
I1
sg13
Nsbag3
(g4
g5
NtRp5644
(dp5645
g8
g5642
sg10
VVBD
p5646
sg12
I5
sg13
VATTENDED
p5647
sbag3
(g4
g5
NtRp5648
(dp5649
g8
S'FAIRFAX'
p5650
sg10
VNP
p5651
sg12
I5
sg13
Nsbag3
(g4
g5
NtRp5652
(dp5653
g8
g5650
sg10
VNP
p5654
sg12
I7
sg13
Nsbag3
(g4
g5
NtRp5655
(dp5656
g8
g5650
sg10
VNNP
p5657
sg12
I8
sg13
VFAIRFAX
p5658
sbag3
(g4
g5
NtRp5659
(dp5660
g8
S'HIGH'
p5661
sg10
VNNP
p5662
sg12
I8
sg13
VHIGH
p5663
sbag3
(g4
g5
NtRp5664
(dp5665
g8
S'SCHOOL'
p5666
sg10
VNNP
p5667
sg12
I8
sg13
VSCHOOL
p5668
sbag3
(g4
g5
NtRp5669
(dp5670
g8
S'IN'
p5671
sg10
VPP
p5672
sg12
I7
sg13
Nsbag3
(g4
g5
NtRp5673
(dp5674
g8
g5671
sg10
VIN
p5675
sg12
I12
sg13
VIN
p5676
sbag3
(g4
g5
NtRp5677
(dp5678
g8
S'LOS'
p5679
sg10
VNP
p5680
sg12
I12
sg13
Nsbag3
(g4
g5
NtRp5681
(dp5682
g8
g5679
sg10
VNNP
p5683
sg12
I14
sg13
VLOS
p5684
sbag3
(g4
g5
NtRp5685
(dp5686
g8
S'ANGELES'
p5687
sg10
VNNP
p5688
sg12
I14
sg13
VANGELES
p5689
sbag3
(g4
g5
NtRp5690
(dp5691
g8
S'.'
sg10
V.
sg12
I1
sg13
V.
sba(lp5692
(lp5693
I1
aa(lp5694
I2
aI5
aI17
aa(lp5695
I3
aI4
aa(lp5696
a(lp5697
a(lp5698
I6
aI7
aa(lp5699
a(lp5700
I8
aI12
aa(lp5701
I9
aI10
aI11
aa(lp5702
a(lp5703
a(lp5704
a(lp5705
I13
aI14
aa(lp5706
a(lp5707
I15
aI16
aa(lp5708
a(lp5709
a(lp5710
a(lp5711
NaNag110
aNaNaNaNaNaNag111
aNaNaNaNaNaNaNaNaI1
tp5712
a(g5620
g5692
(lp5713
NaNaNaNaNaNaNag110
aNag111
aNaNaNaNaNaNaNaNaI7
tp5714
a(g5620
g5692
(lp5715
NaNaNaNaNaNaNaNaNag111
aNaNaNaNag110
aNaNaNaI7
tp5716
a((lp5717
g3
(g4
g5
NtRp5718
(dp5719
g8
V RIPIA ATTENDED ROTORUA BOYS ' HIGH SCHOOL .
p5720
sg10
VROOT
p5721
sg12
Nsg13
Nsbag3
(g4
g5
NtRp5722
(dp5723
g8
V RIPIA ATTENDED ROTORUA BOYS ' HIGH SCHOOL .
p5724
sg10
VS
sg12
I0
sg13
Nsbag3
(g4
g5
NtRp5725
(dp5726
g8
VRIPIA
p5727
sg10
VNP
p5728
sg12
I1
sg13
Nsbag3
(g4
g5
NtRp5729
(dp5730
g8
g5727
sg10
VNNP
p5731
sg12
I2
sg13
Nsbag3
(g4
g5
NtRp5732
(dp5733
g8
S'ATTEND'
p5734
sg10
VVP
p5735
sg12
I1
sg13
Nsbag3
(g4
g5
NtRp5736
(dp5737
g8
g5734
sg10
VVBD
p5738
sg12
I4
sg13
VATTENDED
p5739
sbag3
(g4
g5
NtRp5740
(dp5741
g8
S'ROTORUA'
p5742
sg10
VNP
p5743
sg12
I4
sg13
Nsbag3
(g4
g5
NtRp5744
(dp5745
g8
g5742
sg10
VNP
p5746
sg12
I6
sg13
Nsbag3
(g4
g5
NtRp5747
(dp5748
g8
g5742
sg10
VNNP
p5749
sg12
I7
sg13
VROTORUA
p5750
sbag3
(g4
g5
NtRp5751
(dp5752
g8
S'BOYS'
p5753
sg10
VNNPS
p5754
sg12
I7
sg13
VBOYS
p5755
sbag3
(g4
g5
NtRp5756
(dp5757
g8
S"'"
sg10
VPOS
p5758
sg12
I7
sg13
V'
sbag3
(g4
g5
NtRp5759
(dp5760
g8
S'HIGH'
p5761
sg10
VNNP
p5762
sg12
I6
sg13
VHIGH
p5763
sbag3
(g4
g5
NtRp5764
(dp5765
g8
S'SCHOOL'
p5766
sg10
VNNP
p5767
sg12
I6
sg13
VSCHOOL
p5768
sbag3
(g4
g5
NtRp5769
(dp5770
g8
S'.'
sg10
V.
sg12
I1
sg13
V.
sba(lp5771
(lp5772
I1
aa(lp5773
I2
aI4
aI13
aa(lp5774
I3
aa(lp5775
a(lp5776
I5
aI6
aa(lp5777
a(lp5778
I7
aI11
aI12
aa(lp5779
I8
aI9
aI10
aa(lp5780
a(lp5781
a(lp5782
a(lp5783
a(lp5784
a(lp5785
a(lp5786
NaNag110
aNaNaNaNaNag111
aNaNaNaNaNaI1
tp5787
a((lp5788
g3
(g4
g5
NtRp5789
(dp5790
g8
V HENRY CECIL KENNEDY WYLD STUDIED AT CHARTERHOUSE FROM 1883 TO 1885 .
p5791
sg10
VROOT
p5792
sg12
Nsg13
Nsbag3
(g4
g5
NtRp5793
(dp5794
g8
V HENRY CECIL KENNEDY WYLD STUDIED AT CHARTERHOUSE FROM 1883 TO 1885 .
p5795
sg10
VS
sg12
I0
sg13
Nsbag3
(g4
g5
NtRp5796
(dp5797
g8
VHENRY
p5798
sg10
VNP
p5799
sg12
I1
sg13
Nsbag3
(g4
g5
NtRp5800
(dp5801
g8
g5798
sg10
VNNP
p5802
sg12
I2
sg13
Nsbag3
(g4
g5
NtRp5803
(dp5804
g8
S'CECIL'
p5805
sg10
VNNP
p5806
sg12
I2
sg13
VCECIL
p5807
sbag3
(g4
g5
NtRp5808
(dp5809
g8
S'KENNEDY'
p5810
sg10
VNNP
p5811
sg12
I2
sg13
VKENNEDY
p5812
sbag3
(g4
g5
NtRp5813
(dp5814
g8
S'WYLD'
p5815
sg10
VNNP
p5816
sg12
I2
sg13
VWYLD
p5817
sbag3
(g4
g5
NtRp5818
(dp5819
g8
S'STUDY'
p5820
sg10
VVP
p5821
sg12
I1
sg13
Nsbag3
(g4
g5
NtRp5822
(dp5823
g8
g5820
sg10
VVBN
p5824
sg12
I7
sg13
VSTUDIED
p5825
sbag3
(g4
g5
NtRp5826
(dp5827
g8
S'AT'
p5828
sg10
VPP
p5829
sg12
I7
sg13
Nsbag3
(g4
g5
NtRp5830
(dp5831
g8
g5828
sg10
VIN
p5832
sg12
I9
sg13
VAT
p5833
sbag3
(g4
g5
NtRp5834
(dp5835
g8
S'CHARTERHOUSE'
p5836
sg10
VNP
p5837
sg12
I9
sg13
VCHARTERHOUSE
p5838
sbag3
(g4
g5
NtRp5839
(dp5840
g8
g5836
sg10
VNNP
p5841
sg12
I11
sg13
VCHARTERHOUSE
p5842
sbag3
(g4
g5
NtRp5843
(dp5844
g8
S'FROM'
p5845
sg10
VPP
p5846
sg12
I7
sg13
Nsbag3
(g4
g5
NtRp5847
(dp5848
g8
g5845
sg10
VIN
p5849
sg12
I13
sg13
VFROM
p5850
sbag3
(g4
g5
NtRp5851
(dp5852
g8
S'1883'
p5853
sg10
VNP
p5854
sg12
I13
sg13
V1883
p5855
sbag3
(g4
g5
NtRp5856
(dp5857
g8
g5853
sg10
VCD
p5858
sg12
I15
sg13
V1883
p5859
sbag3
(g4
g5
NtRp5860
(dp5861
g8
S'TO'
p5862
sg10
VPP
p5863
sg12
I7
sg13
Nsbag3
(g4
g5
NtRp5864
(dp5865
g8
g5862
sg10
VTO
p5866
sg12
I17
sg13
VTO
p5867
sbag3
(g4
g5
NtRp5868
(dp5869
g8
S'1885'
p5870
sg10
VNP
p5871
sg12
I17
sg13
V1885
p5872
sbag3
(g4
g5
NtRp5873
(dp5874
g8
g5870
sg10
VNNP
p5875
sg12
I19
sg13
V1885
p5876
sbag3
(g4
g5
NtRp5877
(dp5878
g8
S'.'
sg10
V.
sg12
I1
sg13
V.
sba(lp5879
(lp5880
I1
aa(lp5881
I2
aI7
aI21
aa(lp5882
I3
aI4
aI5
aI6
aa(lp5883
a(lp5884
a(lp5885
a(lp5886
a(lp5887
I8
aI9
aI13
aI17
aa(lp5888
a(lp5889
I10
aI11
aa(lp5890
a(lp5891
I12
aa(lp5892
a(lp5893
I14
aI15
aa(lp5894
a(lp5895
I16
aa(lp5896
a(lp5897
I18
aI19
aa(lp5898
a(lp5899
I20
aa(lp5900
a(lp5901
a(lp5902
NaNag110
aNaNaNaNaNaNaNaNag111
aNaNaNaNaNaNaNaNaNaNaI1
tp5903
a(g5788
g5879
(lp5904
NaNaNaNaNaNaNaNaNaNaNag111
aNaNaNag110
aNaNaNaNaNaNaI7
tp5905
a(g5788
g5879
(lp5906
NaNaNaNaNaNaNaNaNaNaNag111
aNaNaNaNaNaNaNag110
aNaNaI7
tp5907
a((lp5908
g3
(g4
g5
NtRp5909
(dp5910
g8
V ROBERT HILL WAS EDUCATED AT CHRIST 'S COLLEGE , CAMBRIDGE , AND GRADUATED B.A.
p5911
sg10
VROOT
p5912
sg12
Nsg13
Nsbag3
(g4
g5
NtRp5913
(dp5914
g8
V ROBERT HILL WAS EDUCATED AT CHRIST 'S COLLEGE , CAMBRIDGE , AND GRADUATED B.A.
p5915
sg10
VS
sg12
I0
sg13
Nsbag3
(g4
g5
NtRp5916
(dp5917
g8
VROBERT
p5918
sg10
VNP
p5919
sg12
I1
sg13
Nsbag3
(g4
g5
NtRp5920
(dp5921
g8
g5918
sg10
VNNP
p5922
sg12
I2
sg13
Nsbag3
(g4
g5
NtRp5923
(dp5924
g8
S'HILL'
p5925
sg10
VNNP
p5926
sg12
I2
sg13
VHILL
p5927
sbag3
(g4
g5
NtRp5928
(dp5929
g8
S'BE'
p5930
sg10
VVP
p5931
sg12
I1
sg13
Nsbag3
(g4
g5
NtRp5932
(dp5933
g8
g5930
sg10
VVP
p5934
sg12
I5
sg13
Nsbag3
(g4
g5
NtRp5935
(dp5936
g8
g5930
sg10
VVBD
p5937
sg12
I6
sg13
VWAS
p5938
sbag3
(g4
g5
NtRp5939
(dp5940
g8
S'EDUCATE'
p5941
sg10
VVP
p5942
sg12
I6
sg13
Nsbag3
(g4
g5
NtRp5943
(dp5944
g8
g5941
sg10
VVBN
p5945
sg12
I8
sg13
VEDUCATED
p5946
sbag3
(g4
g5
NtRp5947
(dp5948
g8
S'AT'
p5949
sg10
VPP
p5950
sg12
I8
sg13
Nsbag3
(g4
g5
NtRp5951
(dp5952
g8
g5949
sg10
VIN
p5953
sg12
I10
sg13
VAT
p5954
sbag3
(g4
g5
NtRp5955
(dp5956
g8
S'CHRIST'
p5957
sg10
VNP
p5958
sg12
I10
sg13
Nsbag3
(g4
g5
NtRp5959
(dp5960
g8
g5957
sg10
VNP
p5961
sg12
I12
sg13
Nsbag3
(g4
g5
NtRp5962
(dp5963
g8
g5957
sg10
VNNP
p5964
sg12
I13
sg13
VCHRIST
p5965
sbag3
(g4
g5
NtRp5966
(dp5967
g8
S"'S"
p5968
sg10
VPOS
p5969
sg12
I13
sg13
V'S
p5970
sbag3
(g4
g5
NtRp5971
(dp5972
g8
S'COLLEGE'
p5973
sg10
VNAC
p5974
sg12
I12
sg13
Nsbag3
(g4
g5
NtRp5975
(dp5976
g8
g5973
sg10
VNNP
p5977
sg12
I16
sg13
VCOLLEGE
p5978
sbag3
(g4
g5
NtRp5979
(dp5980
g8
S','
sg10
V,
sg12
I16
sg13
V,
sbag3
(g4
g5
NtRp5981
(dp5982
g8
S'CAMBRIDGE'
p5983
sg10
VNNP
p5984
sg12
I16
sg13
VCAMBRIDGE
p5985
sbag3
(g4
g5
NtRp5986
(dp5987
g8
S','
sg10
V,
sg12
I16
sg13
V,
sbag3
(g4
g5
NtRp5988
(dp5989
g8
S'AND'
p5990
sg10
VCC
p5991
sg12
I5
sg13
VAND
p5992
sbag3
(g4
g5
NtRp5993
(dp5994
g8
S'GRADUATE'
p5995
sg10
VVP
p5996
sg12
I5
sg13
Nsbag3
(g4
g5
NtRp5997
(dp5998
g8
g5995
sg10
VVBD
p5999
sg12
I22
sg13
VGRADUATED
p6000
sbag3
(g4
g5
NtRp6001
(dp6002
g8
S'B.A.'
p6003
sg10
VNP
p6004
sg12
I22
sg13
VB.A.
p6005
sbag3
(g4
g5
NtRp6006
(dp6007
g8
g6003
sg10
VNNP
p6008
sg12
I24
sg13
VB.A.
p6009
sba(lp6010
(lp6011
I1
aa(lp6012
I2
aI5
aa(lp6013
I3
aI4
aa(lp6014
a(lp6015
a(lp6016
I6
aI21
aI22
aa(lp6017
I7
aI8
aa(lp6018
a(lp6019
I9
aI10
aa(lp6020
a(lp6021
I11
aI12
aa(lp6022
a(lp6023
I13
aI16
aa(lp6024
I14
aI15
aa(lp6025
a(lp6026
a(lp6027
I17
aI18
aI19
aI20
aa(lp6028
a(lp6029
a(lp6030
a(lp6031
a(lp6032
a(lp6033
I23
aI24
aa(lp6034
a(lp6035
I25
aa(lp6036
a(lp6037
NaNag110
aNaNaNaNaNaNaNaNaNaNaNag111
aNaNaNaNaNaNaNaNaNaNaNaI1
tp6038
a(g5908
g6010
(lp6039
NaNaNaNaNaNaNaNaNaNaNaNag110
aNag111
aNaNaNaNaNaNaNaNaNaNaNaI12
tp6040
a(g5908
g6010
(lp6041
NaNaNaNaNaNaNaNaNaNaNaNaNaNag111
aNaNaNaNaNaNaNaNaNag110
aNaI5
tp6042
a(g5908
g6010
(lp6043
NaNag110
aNaNaNaNaNaNaNaNaNaNaNaNaNaNag111
aNaNaNaNaNaNaNaNaI1
tp6044
a(g5908
g6010
(lp6045
NaNaNaNaNaNaNaNaNaNaNaNag110
aNaNaNaNag111
aNaNaNaNaNaNaNaNaI12
tp6046
a(g5908
g6010
(lp6047
NaNaNaNaNaNaNaNaNaNaNaNaNaNaNaNaNag111
aNaNaNaNaNaNag110
aNaI5
tp6048
a((lp6049
g3
(g4
g5
NtRp6050
(dp6051
g8
V WILLIAM HAMILTON FYFE ATTENDED FETTES COLLEGE IN EDINBURGH , SCOTLAND .
p6052
sg10
VROOT
p6053
sg12
Nsg13
Nsbag3
(g4
g5
NtRp6054
(dp6055
g8
V WILLIAM HAMILTON FYFE ATTENDED FETTES COLLEGE IN EDINBURGH , SCOTLAND .
p6056
sg10
VS
sg12
I0
sg13
Nsbag3
(g4
g5
NtRp6057
(dp6058
g8
VWILLIAM
p6059
sg10
VNP
p6060
sg12
I1
sg13
Nsbag3
(g4
g5
NtRp6061
(dp6062
g8
g6059
sg10
VNNP
p6063
sg12
I2
sg13
Nsbag3
(g4
g5
NtRp6064
(dp6065
g8
S'HAMILTON'
p6066
sg10
VNNP
p6067
sg12
I2
sg13
VHAMILTON
p6068
sbag3
(g4
g5
NtRp6069
(dp6070
g8
S'FYFE'
p6071
sg10
VNNP
p6072
sg12
I2
sg13
VFYFE
p6073
sbag3
(g4
g5
NtRp6074
(dp6075
g8
S'ATTEND'
p6076
sg10
VVP
p6077
sg12
I1
sg13
Nsbag3
(g4
g5
NtRp6078
(dp6079
g8
g6076
sg10
VVBD
p6080
sg12
I6
sg13
VATTENDED
p6081
sbag3
(g4
g5
NtRp6082
(dp6083
g8
S'FETTES'
p6084
sg10
VNP
p6085
sg12
I6
sg13
Nsbag3
(g4
g5
NtRp6086
(dp6087
g8
g6084
sg10
VNP
p6088
sg12
I8
sg13
Nsbag3
(g4
g5
NtRp6089
(dp6090
g8
g6084
sg10
VNNP
p6091
sg12
I9
sg13
VFETTES
p6092
sbag3
(g4
g5
NtRp6093
(dp6094
g8
S'COLLEGE'
p6095
sg10
VNNP
p6096
sg12
I9
sg13
VCOLLEGE
p6097
sbag3
(g4
g5
NtRp6098
(dp6099
g8
S'IN'
p6100
sg10
VPP
p6101
sg12
I8
sg13
Nsbag3
(g4
g5
NtRp6102
(dp6103
g8
g6100
sg10
VIN
p6104
sg12
I12
sg13
VIN
p6105
sbag3
(g4
g5
NtRp6106
(dp6107
g8
S'EDINBURGH'
p6108
sg10
VNP
p6109
sg12
I12
sg13
Nsbag3
(g4
g5
NtRp6110
(dp6111
g8
g6108
sg10
VNNP
p6112
sg12
I14
sg13
VEDINBURGH
p6113
sbag3
(g4
g5
NtRp6114
(dp6115
g8
S','
sg10
V,
sg12
I14
sg13
V,
sbag3
(g4
g5
NtRp6116
(dp6117
g8
S'SCOTLAND'
p6118
sg10
VNNP
p6119
sg12
I14
sg13
VSCOTLAND
p6120
sbag3
(g4
g5
NtRp6121
(dp6122
g8
S'.'
sg10
V.
sg12
I1
sg13
V.
sba(lp6123
(lp6124
I1
aa(lp6125
I2
aI6
aI18
aa(lp6126
I3
aI4
aI5
aa(lp6127
a(lp6128
a(lp6129
a(lp6130
I7
aI8
aa(lp6131
a(lp6132
I9
aI12
aa(lp6133
I10
aI11
aa(lp6134
a(lp6135
a(lp6136
I13
aI14
aa(lp6137
a(lp6138
I15
aI16
aI17
aa(lp6139
a(lp6140
a(lp6141
a(lp6142
a(lp6143
NaNag110
aNaNaNaNaNaNaNag111
aNaNaNaNaNaNaNaNaI1
tp6144
a(g6049
g6123
(lp6145
NaNaNaNaNaNaNaNag110
aNag111
aNaNaNaNaNaNaNaNaI8
tp6146
a(g6049
g6123
(lp6147
NaNaNaNaNaNaNaNaNaNag111
aNaNaNag110
aNaNaNaNaI8
tp6148
a((lp6149
g3
(g4
g5
NtRp6150
(dp6151
g8
V VICTOR HETTIGODA RECEIVED HIS EDUCATION AT RAHULA COLLEGE , MATARA .
p6152
sg10
VROOT
p6153
sg12
Nsg13
Nsbag3
(g4
g5
NtRp6154
(dp6155
g8
V VICTOR HETTIGODA RECEIVED HIS EDUCATION AT RAHULA COLLEGE , MATARA .
p6156
sg10
VS
sg12
I0
sg13
Nsbag3
(g4
g5
NtRp6157
(dp6158
g8
VVICTOR
p6159
sg10
VNP
p6160
sg12
I1
sg13
Nsbag3
(g4
g5
NtRp6161
(dp6162
g8
g6159
sg10
VNNP
p6163
sg12
I2
sg13
Nsbag3
(g4
g5
NtRp6164
(dp6165
g8
S'HETTIGODA'
p6166
sg10
VNNP
p6167
sg12
I2
sg13
VHETTIGODA
p6168
sbag3
(g4
g5
NtRp6169
(dp6170
g8
S'RECEIVE'
p6171
sg10
VVP
p6172
sg12
I1
sg13
Nsbag3
(g4
g5
NtRp6173
(dp6174
g8
g6171
sg10
VVBD
p6175
sg12
I5
sg13
VRECEIVED
p6176
sbag3
(g4
g5
NtRp6177
(dp6178
g8
S'EDUCATION'
p6179
sg10
VNP
p6180
sg12
I5
sg13
Nsbag3
(g4
g5
NtRp6181
(dp6182
g8
S'HE'
p6183
sg10
VPRP$
p6184
sg12
I7
sg13
VHIS
p6185
sbag3
(g4
g5
NtRp6186
(dp6187
g8
g6179
sg10
VNN
p6188
sg12
I7
sg13
VEDUCATION
p6189
sbag3
(g4
g5
NtRp6190
(dp6191
g8
S'AT'
p6192
sg10
VPP
p6193
sg12
I5
sg13
Nsbag3
(g4
g5
NtRp6194
(dp6195
g8
g6192
sg10
VIN
p6196
sg12
I10
sg13
VAT
p6197
sbag3
(g4
g5
NtRp6198
(dp6199
g8
S'RAHULA'
p6200
sg10
VNP
p6201
sg12
I10
sg13
Nsbag3
(g4
g5
NtRp6202
(dp6203
g8
g6200
sg10
VNP
p6204
sg12
I12
sg13
Nsbag3
(g4
g5
NtRp6205
(dp6206
g8
g6200
sg10
VNNP
p6207
sg12
I13
sg13
VRAHULA
p6208
sbag3
(g4
g5
NtRp6209
(dp6210
g8
S'COLLEGE'
p6211
sg10
VNNP
p6212
sg12
I13
sg13
VCOLLEGE
p6213
sbag3
(g4
g5
NtRp6214
(dp6215
g8
S','
sg10
V,
sg12
I12
sg13
V,
sbag3
(g4
g5
NtRp6216
(dp6217
g8
S'MATARA'
p6218
sg10
VNP
p6219
sg12
I12
sg13
VMATARA
p6220
sbag3
(g4
g5
NtRp6221
(dp6222
g8
g6218
sg10
VNNP
p6223
sg12
I17
sg13
VMATARA
p6224
sbag3
(g4
g5
NtRp6225
(dp6226
g8
S'.'
sg10
V.
sg12
I1
sg13
V.
sba(lp6227
(lp6228
I1
aa(lp6229
I2
aI5
aI19
aa(lp6230
I3
aI4
aa(lp6231
a(lp6232
a(lp6233
I6
aI7
aI10
aa(lp6234
a(lp6235
I8
aI9
aa(lp6236
a(lp6237
a(lp6238
I11
aI12
aa(lp6239
a(lp6240
I13
aI16
aI17
aa(lp6241
I14
aI15
aa(lp6242
a(lp6243
a(lp6244
a(lp6245
I18
aa(lp6246
a(lp6247
a(lp6248
NaNag110
aNaNaNaNaNaNaNaNaNaNaNag111
aNaNaNaNaNaI1
tp6249
a(g6149
g6227
(lp6250
NaNaNaNaNaNaNag110
aNaNaNaNaNaNag111
aNaNaNaNaNaI5
tp6251
a(g6149
g6227
(lp6252
NaNaNaNaNaNaNaNaNag110
aNaNaNaNag111
aNaNaNaNaNaI5
tp6253
a(g6149
g6227
(lp6254
NaNaNaNaNaNaNaNaNaNaNaNag110
aNag111
aNaNaNaNaNaI12
tp6255
a(g6149
g6227
(lp6256
NaNaNaNaNaNaNaNaNaNaNaNaNaNag111
aNaNag110
aNaNaI12
tp6257
a((lp6258
g3
(g4
g5
NtRp6259
(dp6260
g8
V GEDEON ATTENDED WILLIAM CULLEN BRYANT HIGH SCHOOL .
p6261
sg10
VROOT
p6262
sg12
Nsg13
Nsbag3
(g4
g5
NtRp6263
(dp6264
g8
V GEDEON ATTENDED WILLIAM CULLEN BRYANT HIGH SCHOOL .
p6265
sg10
VS
sg12
I0
sg13
Nsbag3
(g4
g5
NtRp6266
(dp6267
g8
VGEDEON
p6268
sg10
VNP
p6269
sg12
I1
sg13
Nsbag3
(g4
g5
NtRp6270
(dp6271
g8
g6268
sg10
VNN
p6272
sg12
I2
sg13
Nsbag3
(g4
g5
NtRp6273
(dp6274
g8
S'ATTEND'
p6275
sg10
VVP
p6276
sg12
I1
sg13
Nsbag3
(g4
g5
NtRp6277
(dp6278
g8
g6275
sg10
VVBD
p6279
sg12
I4
sg13
VATTENDED
p6280
sbag3
(g4
g5
NtRp6281
(dp6282
g8
S'WILLIAM'
p6283
sg10
VNP
p6284
sg12
I4
sg13
Nsbag3
(g4
g5
NtRp6285
(dp6286
g8
g6283
sg10
VNNP
p6287
sg12
I6
sg13
VWILLIAM
p6288
sbag3
(g4
g5
NtRp6289
(dp6290
g8
S'CULLEN'
p6291
sg10
VNNP
p6292
sg12
I6
sg13
VCULLEN
p6293
sbag3
(g4
g5
NtRp6294
(dp6295
g8
S'BRYANT'
p6296
sg10
VNNP
p6297
sg12
I6
sg13
VBRYANT
p6298
sbag3
(g4
g5
NtRp6299
(dp6300
g8
S'HIGH'
p6301
sg10
VNNP
p6302
sg12
I6
sg13
VHIGH
p6303
sbag3
(g4
g5
NtRp6304
(dp6305
g8
S'SCHOOL'
p6306
sg10
VNNP
p6307
sg12
I6
sg13
VSCHOOL
p6308
sbag3
(g4
g5
NtRp6309
(dp6310
g8
S'.'
sg10
V.
sg12
I1
sg13
V.
sba(lp6311
(lp6312
I1
aa(lp6313
I2
aI4
aI12
aa(lp6314
I3
aa(lp6315
a(lp6316
I5
aI6
aa(lp6317
a(lp6318
I7
aI8
aI9
aI10
aI11
aa(lp6319
a(lp6320
a(lp6321
a(lp6322
a(lp6323
a(lp6324
a(lp6325
NaNag110
aNaNaNaNag111
aNaNaNaNaNaI1
tp6326
a(g6258
g6311
(lp6327
NaNaNag110
aNaNaNag111
aNaNaNaNaNaI1
tp6328
a((lp6329
g3
(g4
g5
NtRp6330
(dp6331
g8
V ROBERT GREY BUSHONG ATTENDED PHILLIPS ACADEMY IN ANDOVER , MASSACHUSETTS .
p6332
sg10
VROOT
p6333
sg12
Nsg13
Nsbag3
(g4
g5
NtRp6334
(dp6335
g8
V ROBERT GREY BUSHONG ATTENDED PHILLIPS ACADEMY IN ANDOVER , MASSACHUSETTS .
p6336
sg10
VS
sg12
I0
sg13
Nsbag3
(g4
g5
NtRp6337
(dp6338
g8
VROBERT
p6339
sg10
VNP
p6340
sg12
I1
sg13
Nsbag3
(g4
g5
NtRp6341
(dp6342
g8
g6339
sg10
VNNP
p6343
sg12
I2
sg13
Nsbag3
(g4
g5
NtRp6344
(dp6345
g8
S'GREY'
p6346
sg10
VNNP
p6347
sg12
I2
sg13
VGREY
p6348
sbag3
(g4
g5
NtRp6349
(dp6350
g8
S'BUSHONG'
p6351
sg10
VNNP
p6352
sg12
I2
sg13
VBUSHONG
p6353
sbag3
(g4
g5
NtRp6354
(dp6355
g8
S'ATTEND'
p6356
sg10
VVP
p6357
sg12
I1
sg13
Nsbag3
(g4
g5
NtRp6358
(dp6359
g8
g6356
sg10
VVBD
p6360
sg12
I6
sg13
VATTENDED
p6361
sbag3
(g4
g5
NtRp6362
(dp6363
g8
S'PHILLIPS'
p6364
sg10
VNP
p6365
sg12
I6
sg13
Nsbag3
(g4
g5
NtRp6366
(dp6367
g8
g6364
sg10
VNP
p6368
sg12
I8
sg13
Nsbag3
(g4
g5
NtRp6369
(dp6370
g8
g6364
sg10
VNNP
p6371
sg12
I9
sg13
VPHILLIPS
p6372
sbag3
(g4
g5
NtRp6373
(dp6374
g8
S'ACADEMY'
p6375
sg10
VNNP
p6376
sg12
I9
sg13
VACADEMY
p6377
sbag3
(g4
g5
NtRp6378
(dp6379
g8
S'IN'
p6380
sg10
VPP
p6381
sg12
I8
sg13
Nsbag3
(g4
g5
NtRp6382
(dp6383
g8
g6380
sg10
VIN
p6384
sg12
I12
sg13
VIN
p6385
sbag3
(g4
g5
NtRp6386
(dp6387
g8
S'ANDOVER'
p6388
sg10
VNP
p6389
sg12
I12
sg13
Nsbag3
(g4
g5
NtRp6390
(dp6391
g8
g6388
sg10
VNNP
p6392
sg12
I14
sg13
VANDOVER
p6393
sbag3
(g4
g5
NtRp6394
(dp6395
g8
S','
sg10
V,
sg12
I14
sg13
V,
sbag3
(g4
g5
NtRp6396
(dp6397
g8
S'MASSACHUSETTS'
p6398
sg10
VNNP
p6399
sg12
I14
sg13
VMASSACHUSETTS
p6400
sbag3
(g4
g5
NtRp6401
(dp6402
g8
S'.'
sg10
V.
sg12
I1
sg13
V.
sba(lp6403
(lp6404
I1
aa(lp6405
I2
aI6
aI18
aa(lp6406
I3
aI4
aI5
aa(lp6407
a(lp6408
a(lp6409
a(lp6410
I7
aI8
aa(lp6411
a(lp6412
I9
aI12
aa(lp6413
I10
aI11
aa(lp6414
a(lp6415
a(lp6416
I13
aI14
aa(lp6417
a(lp6418
I15
aI16
aI17
aa(lp6419
a(lp6420
a(lp6421
a(lp6422
a(lp6423
NaNag110
aNaNaNaNaNaNaNag111
aNaNaNaNaNaNaNaNaI1
tp6424
a(g6329
g6403
(lp6425
NaNaNaNaNaNaNaNag110
aNag111
aNaNaNaNaNaNaNaNaI8
tp6426
a(g6329
g6403
(lp6427
NaNaNaNaNaNaNaNaNaNag111
aNaNaNag110
aNaNaNaNaI8
tp6428
a((lp6429
g3
(g4
g5
NtRp6430
(dp6431
g8
V DAVID A. LEVINSON IS A 1997 GRADUATE OF EMERSON COLLEGE IN BOSTON .
p6432
sg10
VROOT
p6433
sg12
Nsg13
Nsbag3
(g4
g5
NtRp6434
(dp6435
g8
V DAVID A. LEVINSON IS A 1997 GRADUATE OF EMERSON COLLEGE IN BOSTON .
p6436
sg10
VS
sg12
I0
sg13
Nsbag3
(g4
g5
NtRp6437
(dp6438
g8
VDAVID
p6439
sg10
VNP
p6440
sg12
I1
sg13
Nsbag3
(g4
g5
NtRp6441
(dp6442
g8
g6439
sg10
VNNP
p6443
sg12
I2
sg13
Nsbag3
(g4
g5
NtRp6444
(dp6445
g8
S'A.'
p6446
sg10
VNNP
p6447
sg12
I2
sg13
VA.
p6448
sbag3
(g4
g5
NtRp6449
(dp6450
g8
S'LEVINSON'
p6451
sg10
VNNP
p6452
sg12
I2
sg13
VLEVINSON
p6453
sbag3
(g4
g5
NtRp6454
(dp6455
g8
S'BE'
p6456
sg10
VVP
p6457
sg12
I1
sg13
Nsbag3
(g4
g5
NtRp6458
(dp6459
g8
g6456
sg10
VVBZ
p6460
sg12
I6
sg13
VIS
p6461
sbag3
(g4
g5
NtRp6462
(dp6463
g8
S'GRADUATE'
p6464
sg10
VNP
p6465
sg12
I6
sg13
Nsbag3
(g4
g5
NtRp6466
(dp6467
g8
g6464
sg10
VNP
p6468
sg12
I8
sg13
Nsbag3
(g4
g5
NtRp6469
(dp6470
g8
S'A'
sg10
VDT
p6471
sg12
I9
sg13
VA
sbag3
(g4
g5
NtRp6472
(dp6473
g8
S'1997'
p6474
sg10
VCD
p6475
sg12
I9
sg13
V1997
p6476
sbag3
(g4
g5
NtRp6477
(dp6478
g8
g6464
sg10
VNN
p6479
sg12
I9
sg13
VGRADUATE
p6480
sbag3
(g4
g5
NtRp6481
(dp6482
g8
S'OF'
p6483
sg10
VPP
p6484
sg12
I8
sg13
Nsbag3
(g4
g5
NtRp6485
(dp6486
g8
g6483
sg10
VIN
p6487
sg12
I13
sg13
VOF
p6488
sbag3
(g4
g5
NtRp6489
(dp6490
g8
S'EMERSON'
p6491
sg10
VNP
p6492
sg12
I13
sg13
Nsbag3
(g4
g5
NtRp6493
(dp6494
g8
g6491
sg10
VNP
p6495
sg12
I15
sg13
Nsbag3
(g4
g5
NtRp6496
(dp6497
g8
g6491
sg10
VNNP
p6498
sg12
I16
sg13
VEMERSON
p6499
sbag3
(g4
g5
NtRp6500
(dp6501
g8
S'COLLEGE'
p6502
sg10
VNNP
p6503
sg12
I16
sg13
VCOLLEGE
p6504
sbag3
(g4
g5
NtRp6505
(dp6506
g8
S'IN'
p6507
sg10
VPP
p6508
sg12
I15
sg13
Nsbag3
(g4
g5
NtRp6509
(dp6510
g8
g6507
sg10
VIN
p6511
sg12
I19
sg13
VIN
p6512
sbag3
(g4
g5
NtRp6513
(dp6514
g8
S'BOSTON'
p6515
sg10
VNP
p6516
sg12
I19
sg13
VBOSTON
p6517
sbag3
(g4
g5
NtRp6518
(dp6519
g8
g6515
sg10
VNNP
p6520
sg12
I21
sg13
VBOSTON
p6521
sbag3
(g4
g5
NtRp6522
(dp6523
g8
S'.'
sg10
V.
sg12
I1
sg13
V.
sba(lp6524
(lp6525
I1
aa(lp6526
I2
aI6
aI23
aa(lp6527
I3
aI4
aI5
aa(lp6528
a(lp6529
a(lp6530
a(lp6531
I7
aI8
aa(lp6532
a(lp6533
I9
aI13
aa(lp6534
I10
aI11
aI12
aa(lp6535
a(lp6536
a(lp6537
a(lp6538
I14
aI15
aa(lp6539
a(lp6540
I16
aI19
aa(lp6541
I17
aI18
aa(lp6542
a(lp6543
a(lp6544
I20
aI21
aa(lp6545
a(lp6546
I22
aa(lp6547
a(lp6548
a(lp6549
NaNag110
aNaNaNaNaNaNaNaNaNaNaNaNaNaNag111
aNaNaNaNaNaNaI1
tp6550
a(g6429
g6524
(lp6551
NaNaNaNaNaNaNaNag110
aNaNaNaNaNaNaNaNag111
aNaNaNaNaNaNaI8
tp6552
a(g6429
g6524
(lp6553
NaNaNaNaNaNaNaNaNag110
aNaNaNaNaNaNaNag111
aNaNaNaNaNaNaI8
tp6554
a(g6429
g6524
(lp6555
NaNaNaNaNaNaNaNaNaNaNaNag110
aNaNaNaNag111
aNaNaNaNaNaNaI8
tp6556
a(g6429
g6524
(lp6557
NaNaNaNaNaNaNaNaNaNaNaNaNaNaNag110
aNag111
aNaNaNaNaNaNaI15
tp6558
a(g6429
g6524
(lp6559
NaNaNaNaNaNaNaNaNaNaNaNaNaNaNaNaNag111
aNaNaNag110
aNaNaI15
tp6560
a((lp6561
g3
(g4
g5
NtRp6562
(dp6563
g8
V ANDERSON GRADUATED FROM WASHINGTON HIGH SCHOOL IN TWO RIVERS , WISCONSIN .
p6564
sg10
VROOT
p6565
sg12
Nsg13
Nsbag3
(g4
g5
NtRp6566
(dp6567
g8
V ANDERSON GRADUATED FROM WASHINGTON HIGH SCHOOL IN TWO RIVERS , WISCONSIN .
p6568
sg10
VS
sg12
I0
sg13
Nsbag3
(g4
g5
NtRp6569
(dp6570
g8
VANDERSON
p6571
sg10
VNP
p6572
sg12
I1
sg13
Nsbag3
(g4
g5
NtRp6573
(dp6574
g8
g6571
sg10
VNNP
p6575
sg12
I2
sg13
Nsbag3
(g4
g5
NtRp6576
(dp6577
g8
S'GRADUATE'
p6578
sg10
VVP
p6579
sg12
I1
sg13
Nsbag3
(g4
g5
NtRp6580
(dp6581
g8
g6578
sg10
VVBD
p6582
sg12
I4
sg13
VGRADUATED
p6583
sbag3
(g4
g5
NtRp6584
(dp6585
g8
S'FROM'
p6586
sg10
VPP
p6587
sg12
I4
sg13
Nsbag3
(g4
g5
NtRp6588
(dp6589
g8
g6586
sg10
VIN
p6590
sg12
I6
sg13
VFROM
p6591
sbag3
(g4
g5
NtRp6592
(dp6593
g8
S'WASHINGTON'
p6594
sg10
VNP
p6595
sg12
I6
sg13
Nsbag3
(g4
g5
NtRp6596
(dp6597
g8
g6594
sg10
VNNP
p6598
sg12
I8
sg13
VWASHINGTON
p6599
sbag3
(g4
g5
NtRp6600
(dp6601
g8
S'HIGH'
p6602
sg10
VNNP
p6603
sg12
I8
sg13
VHIGH
p6604
sbag3
(g4
g5
NtRp6605
(dp6606
g8
S'SCHOOL'
p6607
sg10
VNNP
p6608
sg12
I8
sg13
VSCHOOL
p6609
sbag3
(g4
g5
NtRp6610
(dp6611
g8
S'IN'
p6612
sg10
VPP
p6613
sg12
I4
sg13
Nsbag3
(g4
g5
NtRp6614
(dp6615
g8
g6612
sg10
VIN
p6616
sg12
I12
sg13
VIN
p6617
sbag3
(g4
g5
NtRp6618
(dp6619
g8
S'RIVER'
p6620
sg10
VNP
p6621
sg12
I12
sg13
Nsbag3
(g4
g5
NtRp6622
(dp6623
g8
g6620
sg10
VNP
p6624
sg12
I14
sg13
Nsbag3
(g4
g5
NtRp6625
(dp6626
g8
S'TWO'
p6627
sg10
VCD
p6628
sg12
I15
sg13
VTWO
p6629
sbag3
(g4
g5
NtRp6630
(dp6631
g8
g6620
sg10
VNNS
p6632
sg12
I15
sg13
VRIVERS
p6633
sbag3
(g4
g5
NtRp6634
(dp6635
g8
S','
sg10
V,
sg12
I14
sg13
V,
sbag3
(g4
g5
NtRp6636
(dp6637
g8
S'WISCONSIN'
p6638
sg10
VNP
p6639
sg12
I14
sg13
VWISCONSIN
p6640
sbag3
(g4
g5
NtRp6641
(dp6642
g8
g6638
sg10
VNNP
p6643
sg12
I19
sg13
VWISCONSIN
p6644
sbag3
(g4
g5
NtRp6645
(dp6646
g8
S'.'
sg10
V.
sg12
I1
sg13
V.
sba(lp6647
(lp6648
I1
aa(lp6649
I2
aI4
aI21
aa(lp6650
I3
aa(lp6651
a(lp6652
I5
aI6
aI12
aa(lp6653
a(lp6654
I7
aI8
aa(lp6655
a(lp6656
I9
aI10
aI11
aa(lp6657
a(lp6658
a(lp6659
a(lp6660
I13
aI14
aa(lp6661
a(lp6662
I15
aI18
aI19
aa(lp6663
I16
aI17
aa(lp6664
a(lp6665
a(lp6666
a(lp6667
I20
aa(lp6668
a(lp6669
a(lp6670
NaNag110
aNaNaNaNaNaNag111
aNaNaNaNaNaNaNaNaNaNaNaNaI1
tp6671
a(g6561
g6647
(lp6672
NaNaNaNaNaNaNaNaNag111
aNaNaNaNag110
aNaNaNaNaNaNaNaI4
tp6673
a(g6561
g6647
(lp6674
NaNaNaNaNaNaNaNaNag111
aNaNaNaNaNag110
aNaNaNaNaNaNaI4
tp6675
a(g6561
g6647
(lp6676
NaNaNaNaNaNaNaNaNag111
aNaNaNaNaNaNaNag110
aNaNaNaNaI4
tp6677
a(g6561
g6647
(lp6678
NaNaNaNaNaNaNaNaNag111
aNaNaNaNaNaNaNaNaNag110
aNaNaI4
tp6679
a((lp6680
g3
(g4
g5
NtRp6681
(dp6682
g8
V WESTON WAS EDUCATED AT BLUNDELL 'S SCHOOL , ETON COLLEGE AND EXETER COLLEGE , OXFORD .
p6683
sg10
VROOT
p6684
sg12
Nsg13
Nsbag3
(g4
g5
NtRp6685
(dp6686
g8
V WESTON WAS EDUCATED AT BLUNDELL 'S SCHOOL , ETON COLLEGE AND EXETER COLLEGE , OXFORD .
p6687
sg10
VS
sg12
I0
sg13
Nsbag3
(g4
g5
NtRp6688
(dp6689
g8
VWESTON
p6690
sg10
VNP
p6691
sg12
I1
sg13
Nsbag3
(g4
g5
NtRp6692
(dp6693
g8
g6690
sg10
VNNP
p6694
sg12
I2
sg13
Nsbag3
(g4
g5
NtRp6695
(dp6696
g8
S'BE'
p6697
sg10
VVP
p6698
sg12
I1
sg13
Nsbag3
(g4
g5
NtRp6699
(dp6700
g8
g6697
sg10
VVBD
p6701
sg12
I4
sg13
VWAS
p6702
sbag3
(g4
g5
NtRp6703
(dp6704
g8
S'EDUCATE'
p6705
sg10
VVP
p6706
sg12
I4
sg13
Nsbag3
(g4
g5
NtRp6707
(dp6708
g8
g6705
sg10
VVBN
p6709
sg12
I6
sg13
VEDUCATED
p6710
sbag3
(g4
g5
NtRp6711
(dp6712
g8
S'AT'
p6713
sg10
VPP
p6714
sg12
I6
sg13
Nsbag3
(g4
g5
NtRp6715
(dp6716
g8
g6713
sg10
VIN
p6717
sg12
I8
sg13
VAT
p6718
sbag3
(g4
g5
NtRp6719
(dp6720
g8
S'BLUNDELL'
p6721
sg10
VNP
p6722
sg12
I8
sg13
Nsbag3
(g4
g5
NtRp6723
(dp6724
g8
g6721
sg10
VNP
p6725
sg12
I10
sg13
Nsbag3
(g4
g5
NtRp6726
(dp6727
g8
g6721
sg10
VNNP
p6728
sg12
I11
sg13
VBLUNDELL
p6729
sbag3
(g4
g5
NtRp6730
(dp6731
g8
S"'S"
p6732
sg10
VPOS
p6733
sg12
I11
sg13
V'S
p6734
sbag3
(g4
g5
NtRp6735
(dp6736
g8
S'SCHOOL'
p6737
sg10
VNNP
p6738
sg12
I10
sg13
VSCHOOL
p6739
sbag3
(g4
g5
NtRp6740
(dp6741
g8
S','
sg10
VPRN
p6742
sg12
I10
sg13
Nsbag3
(g4
g5
NtRp6743
(dp6744
g8
S','
sg10
V,
sg12
I15
sg13
V,
sbag3
(g4
g5
NtRp6745
(dp6746
g8
S'ETON'
p6747
sg10
VNP
p6748
sg12
I15
sg13
Nsbag3
(g4
g5
NtRp6749
(dp6750
g8
g6747
sg10
VNP
p6751
sg12
I17
sg13
Nsbag3
(g4
g5
NtRp6752
(dp6753
g8
g6747
sg10
VNNP
p6754
sg12
I18
sg13
VETON
p6755
sbag3
(g4
g5
NtRp6756
(dp6757
g8
S'COLLEGE'
p6758
sg10
VNNP
p6759
sg12
I18
sg13
VCOLLEGE
p6760
sbag3
(g4
g5
NtRp6761
(dp6762
g8
S'AND'
p6763
sg10
VCC
p6764
sg12
I17
sg13
VAND
p6765
sbag3
(g4
g5
NtRp6766
(dp6767
g8
S'EXETER'
p6768
sg10
VNP
p6769
sg12
I17
sg13
Nsbag3
(g4
g5
NtRp6770
(dp6771
g8
g6768
sg10
VNNP
p6772
sg12
I22
sg13
VEXETER
p6773
sbag3
(g4
g5
NtRp6774
(dp6775
g8
g6758
sg10
VNNP
p6776
sg12
I22
sg13
VCOLLEGE
p6777
sbag3
(g4
g5
NtRp6778
(dp6779
g8
S','
sg10
V,
sg12
I15
sg13
V,
sbag3
(g4
g5
NtRp6780
(dp6781
g8
S'OXFORD'
p6782
sg10
VNNP
p6783
sg12
I10
sg13
VOXFORD
p6784
sbag3
(g4
g5
NtRp6785
(dp6786
g8
S'.'
sg10
V.
sg12
I1
sg13
V.
sba(lp6787
(lp6788
I1
aa(lp6789
I2
aI4
aI27
aa(lp6790
I3
aa(lp6791
a(lp6792
I5
aI6
aa(lp6793
a(lp6794
I7
aI8
aa(lp6795
a(lp6796
I9
aI10
aa(lp6797
a(lp6798
I11
aI14
aI15
aI26
aa(lp6799
I12
aI13
aa(lp6800
a(lp6801
a(lp6802
a(lp6803
I16
aI17
aI25
aa(lp6804
a(lp6805
I18
aI21
aI22
aa(lp6806
I19
aI20
aa(lp6807
a(lp6808
a(lp6809
a(lp6810
I23
aI24
aa(lp6811
a(lp6812
a(lp6813
a(lp6814
a(lp6815
a(lp6816
NaNag110
aNaNaNaNaNaNaNaNaNag111
aNaNaNaNaNaNaNaNaNaNaNaNaNaNaNaI1
tp6817
a(g6680
g6787
(lp6818
NaNaNaNaNaNaNaNaNaNaNaNag111
aNaNaNaNag110
aNaNaNaNaNaNaNaNaNaNaI10
tp6819
a(g6680
g6787
(lp6820
NaNag110
aNaNaNaNaNaNaNaNaNaNaNaNaNaNaNaNag111
aNaNaNaNaNaNaNaNaI1
tp6821
a(g6680
g6787
(lp6822
NaNaNaNaNaNaNaNaNaNaNaNaNaNaNaNaNag110
aNag111
aNaNaNaNaNaNaNaNaI17
tp6823
a(g6680
g6787
(lp6824
NaNag110
aNaNaNaNaNaNaNaNaNaNaNaNaNaNaNaNaNaNaNaNag111
aNaNaNaNaI1
tp6825
a(g6680
g6787
(lp6826
NaNaNaNaNaNaNaNaNaNaNaNaNaNaNaNaNag110
aNaNaNaNaNag111
aNaNaNaNaI17
tp6827
a((lp6828
g3
(g4
g5
NtRp6829
(dp6830
g8
V JONATHAN SCHANZER IS A GRADUATE OF LOWER MERION HIGH SCHOOL .
p6831
sg10
VROOT
p6832
sg12
Nsg13
Nsbag3
(g4
g5
NtRp6833
(dp6834
g8
V JONATHAN SCHANZER IS A GRADUATE OF LOWER MERION HIGH SCHOOL .
p6835
sg10
VS
sg12
I0
sg13
Nsbag3
(g4
g5
NtRp6836
(dp6837
g8
VJONATHAN
p6838
sg10
VNP
p6839
sg12
I1
sg13
Nsbag3
(g4
g5
NtRp6840
(dp6841
g8
g6838
sg10
VNNP
p6842
sg12
I2
sg13
Nsbag3
(g4
g5
NtRp6843
(dp6844
g8
S'SCHANZER'
p6845
sg10
VNNP
p6846
sg12
I2
sg13
VSCHANZER
p6847
sbag3
(g4
g5
NtRp6848
(dp6849
g8
S'BE'
p6850
sg10
VVP
p6851
sg12
I1
sg13
Nsbag3
(g4
g5
NtRp6852
(dp6853
g8
g6850
sg10
VVBZ
p6854
sg12
I5
sg13
VIS
p6855
sbag3
(g4
g5
NtRp6856
(dp6857
g8
S'GRADUATE'
p6858
sg10
VNP
p6859
sg12
I5
sg13
Nsbag3
(g4
g5
NtRp6860
(dp6861
g8
g6858
sg10
VNP
p6862
sg12
I7
sg13
Nsbag3
(g4
g5
NtRp6863
(dp6864
g8
S'A'
sg10
VDT
p6865
sg12
I8
sg13
VA
sbag3
(g4
g5
NtRp6866
(dp6867
g8
g6858
sg10
VNN
p6868
sg12
I8
sg13
VGRADUATE
p6869
sbag3
(g4
g5
NtRp6870
(dp6871
g8
S'OF'
p6872
sg10
VPP
p6873
sg12
I7
sg13
Nsbag3
(g4
g5
NtRp6874
(dp6875
g8
g6872
sg10
VIN
p6876
sg12
I11
sg13
VOF
p6877
sbag3
(g4
g5
NtRp6878
(dp6879
g8
S'LOWER'
p6880
sg10
VNP
p6881
sg12
I11
sg13
Nsbag3
(g4
g5
NtRp6882
(dp6883
g8
g6880
sg10
VNNP
p6884
sg12
I13
sg13
VLOWER
p6885
sbag3
(g4
g5
NtRp6886
(dp6887
g8
S'MERION'
p6888
sg10
VNNP
p6889
sg12
I13
sg13
VMERION
p6890
sbag3
(g4
g5
NtRp6891
(dp6892
g8
S'HIGH'
p6893
sg10
VNNP
p6894
sg12
I13
sg13
VHIGH
p6895
sbag3
(g4
g5
NtRp6896
(dp6897
g8
S'SCHOOL'
p6898
sg10
VNNP
p6899
sg12
I13
sg13
VSCHOOL
p6900
sbag3
(g4
g5
NtRp6901
(dp6902
g8
S'.'
sg10
V.
sg12
I1
sg13
V.
sba(lp6903
(lp6904
I1
aa(lp6905
I2
aI5
aI18
aa(lp6906
I3
aI4
aa(lp6907
a(lp6908
a(lp6909
I6
aI7
aa(lp6910
a(lp6911
I8
aI11
aa(lp6912
I9
aI10
aa(lp6913
a(lp6914
a(lp6915
I12
aI13
aa(lp6916
a(lp6917
I14
aI15
aI16
aI17
aa(lp6918
a(lp6919
a(lp6920
a(lp6921
a(lp6922
a(lp6923
NaNag110
aNaNaNaNaNaNaNaNaNaNaNag111
aNaNaNaNaI1
tp6924
a(g6828
g6903
(lp6925
NaNaNaNaNaNaNag110
aNaNaNaNaNaNag111
aNaNaNaNaI7
tp6926
a(g6828
g6903
(lp6927
NaNaNaNaNaNaNaNag110
aNaNaNaNaNag111
aNaNaNaNaI7
tp6928
a(g6828
g6903
(lp6929
NaNaNaNaNaNaNaNaNaNag110
aNaNaNag111
aNaNaNaNaI7
tp6930
a((lp6931
g3
(g4
g5
NtRp6932
(dp6933
g8
V BUTLER GRADUATED FROM LAKE FOREST COLLEGE IN LAKE FOREST , ILLINOIS .
p6934
sg10
VROOT
p6935
sg12
Nsg13
Nsbag3
(g4
g5
NtRp6936
(dp6937
g8
V BUTLER GRADUATED FROM LAKE FOREST COLLEGE IN LAKE FOREST , ILLINOIS .
p6938
sg10
VS
sg12
I0
sg13
Nsbag3
(g4
g5
NtRp6939
(dp6940
g8
VBUTLER
p6941
sg10
VNP
p6942
sg12
I1
sg13
Nsbag3
(g4
g5
NtRp6943
(dp6944
g8
g6941
sg10
VNNP
p6945
sg12
I2
sg13
Nsbag3
(g4
g5
NtRp6946
(dp6947
g8
S'GRADUATE'
p6948
sg10
VVP
p6949
sg12
I1
sg13
Nsbag3
(g4
g5
NtRp6950
(dp6951
g8
g6948
sg10
VVBD
p6952
sg12
I4
sg13
VGRADUATED
p6953
sbag3
(g4
g5
NtRp6954
(dp6955
g8
S'FROM'
p6956
sg10
VPP
p6957
sg12
I4
sg13
Nsbag3
(g4
g5
NtRp6958
(dp6959
g8
g6956
sg10
VIN
p6960
sg12
I6
sg13
VFROM
p6961
sbag3
(g4
g5
NtRp6962
(dp6963
g8
S'LAKE'
p6964
sg10
VNP
p6965
sg12
I6
sg13
Nsbag3
(g4
g5
NtRp6966
(dp6967
g8
g6964
sg10
VNNP
p6968
sg12
I8
sg13
VLAKE
p6969
sbag3
(g4
g5
NtRp6970
(dp6971
g8
S'FOREST'
p6972
sg10
VNNP
p6973
sg12
I8
sg13
VFOREST
p6974
sbag3
(g4
g5
NtRp6975
(dp6976
g8
S'COLLEGE'
p6977
sg10
VNNP
p6978
sg12
I8
sg13
VCOLLEGE
p6979
sbag3
(g4
g5
NtRp6980
(dp6981
g8
S'IN'
p6982
sg10
VPP
p6983
sg12
I4
sg13
Nsbag3
(g4
g5
NtRp6984
(dp6985
g8
g6982
sg10
VIN
p6986
sg12
I12
sg13
VIN
p6987
sbag3
(g4
g5
NtRp6988
(dp6989
g8
g6964
sg10
VNP
p6990
sg12
I12
sg13
Nsbag3
(g4
g5
NtRp6991
(dp6992
g8
g6964
sg10
VNP
p6993
sg12
I14
sg13
Nsbag3
(g4
g5
NtRp6994
(dp6995
g8
g6964
sg10
VNNP
p6996
sg12
I15
sg13
VLAKE
p6997
sbag3
(g4
g5
NtRp6998
(dp6999
g8
g6972
sg10
VNNP
p7000
sg12
I15
sg13
VFOREST
p7001
sbag3
(g4
g5
NtRp7002
(dp7003
g8
S','
sg10
V,
sg12
I14
sg13
V,
sbag3
(g4
g5
NtRp7004
(dp7005
g8
S'ILLINOIS'
p7006
sg10
VNP
p7007
sg12
I14
sg13
VILLINOIS
p7008
sbag3
(g4
g5
NtRp7009
(dp7010
g8
g7006
sg10
VNNP
p7011
sg12
I19
sg13
VILLINOIS
p7012
sbag3
(g4
g5
NtRp7013
(dp7014
g8
S'.'
sg10
V.
sg12
I1
sg13
V.
sba(lp7015
(lp7016
I1
aa(lp7017
I2
aI4
aI21
aa(lp7018
I3
aa(lp7019
a(lp7020
I5
aI6
aI12
aa(lp7021
a(lp7022
I7
aI8
aa(lp7023
a(lp7024
I9
aI10
aI11
aa(lp7025
a(lp7026
a(lp7027
a(lp7028
I13
aI14
aa(lp7029
a(lp7030
I15
aI18
aI19
aa(lp7031
I16
aI17
aa(lp7032
a(lp7033
a(lp7034
a(lp7035
I20
aa(lp7036
a(lp7037
a(lp7038
NaNag110
aNaNaNaNaNaNaNaNag111
aNaNaNaNaNaNaNaNaNaNaI1
tp7039
a(g6931
g7015
(lp7040
NaNaNaNaNaNaNaNaNaNaNag111
aNaNag110
aNaNaNaNaNaNaNaI4
tp7041
a(g6931
g7015
(lp7042
NaNaNaNaNaNaNaNaNaNaNag111
aNaNaNag110
aNaNaNaNaNaNaI4
tp7043
a(g6931
g7015
(lp7044
NaNaNaNaNaNaNaNaNaNaNag111
aNaNaNaNaNaNaNag110
aNaNaI4
tp7045
a((lp7046
g3
(g4
g5
NtRp7047
(dp7048
g8
V SMITH ATTENDED DUNMORE HIGH SCHOOL AND KEYSTONE COLLEGE .
p7049
sg10
VROOT
p7050
sg12
Nsg13
Nsbag3
(g4
g5
NtRp7051
(dp7052
g8
V SMITH ATTENDED DUNMORE HIGH SCHOOL AND KEYSTONE COLLEGE .
p7053
sg10
VS
sg12
I0
sg13
Nsbag3
(g4
g5
NtRp7054
(dp7055
g8
VSMITH
p7056
sg10
VNP
p7057
sg12
I1
sg13
Nsbag3
(g4
g5
NtRp7058
(dp7059
g8
g7056
sg10
VNNP
p7060
sg12
I2
sg13
Nsbag3
(g4
g5
NtRp7061
(dp7062
g8
S'ATTEND'
p7063
sg10
VVP
p7064
sg12
I1
sg13
Nsbag3
(g4
g5
NtRp7065
(dp7066
g8
g7063
sg10
VVBD
p7067
sg12
I4
sg13
VATTENDED
p7068
sbag3
(g4
g5
NtRp7069
(dp7070
g8
S'DUNMORE'
p7071
sg10
VNP
p7072
sg12
I4
sg13
Nsbag3
(g4
g5
NtRp7073
(dp7074
g8
g7071
sg10
VNP
p7075
sg12
I6
sg13
Nsbag3
(g4
g5
NtRp7076
(dp7077
g8
g7071
sg10
VNNP
p7078
sg12
I7
sg13
VDUNMORE
p7079
sbag3
(g4
g5
NtRp7080
(dp7081
g8
S'HIGH'
p7082
sg10
VNNP
p7083
sg12
I7
sg13
VHIGH
p7084
sbag3
(g4
g5
NtRp7085
(dp7086
g8
S'SCHOOL'
p7087
sg10
VNNP
p7088
sg12
I7
sg13
VSCHOOL
p7089
sbag3
(g4
g5
NtRp7090
(dp7091
g8
S'AND'
p7092
sg10
VCC
p7093
sg12
I6
sg13
VAND
p7094
sbag3
(g4
g5
NtRp7095
(dp7096
g8
S'KEYSTONE'
p7097
sg10
VNP
p7098
sg12
I6
sg13
Nsbag3
(g4
g5
NtRp7099
(dp7100
g8
g7097
sg10
VNN
p7101
sg12
I12
sg13
VKEYSTONE
p7102
sbag3
(g4
g5
NtRp7103
(dp7104
g8
S'COLLEGE'
p7105
sg10
VNNP
p7106
sg12
I12
sg13
VCOLLEGE
p7107
sbag3
(g4
g5
NtRp7108
(dp7109
g8
S'.'
sg10
V.
sg12
I1
sg13
V.
sba(lp7110
(lp7111
I1
aa(lp7112
I2
aI4
aI15
aa(lp7113
I3
aa(lp7114
a(lp7115
I5
aI6
aa(lp7116
a(lp7117
I7
aI11
aI12
aa(lp7118
I8
aI9
aI10
aa(lp7119
a(lp7120
a(lp7121
a(lp7122
a(lp7123
I13
aI14
aa(lp7124
a(lp7125
a(lp7126
a(lp7127
NaNag110
aNaNaNaNaNag111
aNaNaNaNaNaNaNaI1
tp7128
a(g7046
g7110
(lp7129
NaNaNaNaNaNag110
aNag111
aNaNaNaNaNaNaNaI6
tp7130
a(g7046
g7110
(lp7131
NaNag110
aNaNaNaNaNaNaNaNaNaNag111
aNaNaI1
tp7132
a(g7046
g7110
(lp7133
NaNaNaNaNaNag110
aNaNaNaNaNaNag111
aNaNaI6
tp7134
a((lp7135
g3
(g4
g5
NtRp7136
(dp7137
g8
V GROVE ATTENDED YORK COLLEGE AND GRADUATED WITH A DEGREE IN PUBLIC ADMINISTRATION .
p7138
sg10
VROOT
p7139
sg12
Nsg13
Nsbag3
(g4
g5
NtRp7140
(dp7141
g8
V GROVE ATTENDED YORK COLLEGE AND GRADUATED WITH A DEGREE IN PUBLIC ADMINISTRATION .
p7142
sg10
VS
sg12
I0
sg13
Nsbag3
(g4
g5
NtRp7143
(dp7144
g8
VGROVE
p7145
sg10
VNP
p7146
sg12
I1
sg13
Nsbag3
(g4
g5
NtRp7147
(dp7148
g8
g7145
sg10
VNNP
p7149
sg12
I2
sg13
Nsbag3
(g4
g5
NtRp7150
(dp7151
g8
S'ATTEND'
p7152
sg10
VVP
p7153
sg12
I1
sg13
Nsbag3
(g4
g5
NtRp7154
(dp7155
g8
g7152
sg10
VVP
p7156
sg12
I4
sg13
Nsbag3
(g4
g5
NtRp7157
(dp7158
g8
g7152
sg10
VVBD
p7159
sg12
I5
sg13
VATTENDED
p7160
sbag3
(g4
g5
NtRp7161
(dp7162
g8
S'YORK'
p7163
sg10
VNP
p7164
sg12
I5
sg13
Nsbag3
(g4
g5
NtRp7165
(dp7166
g8
g7163
sg10
VNNP
p7167
sg12
I7
sg13
VYORK
p7168
sbag3
(g4
g5
NtRp7169
(dp7170
g8
S'COLLEGE'
p7171
sg10
VNNP
p7172
sg12
I7
sg13
VCOLLEGE
p7173
sbag3
(g4
g5
NtRp7174
(dp7175
g8
S'AND'
p7176
sg10
VCC
p7177
sg12
I4
sg13
VAND
p7178
sbag3
(g4
g5
NtRp7179
(dp7180
g8
S'GRADUATE'
p7181
sg10
VVP
p7182
sg12
I4
sg13
Nsbag3
(g4
g5
NtRp7183
(dp7184
g8
g7181
sg10
VVBN
p7185
sg12
I11
sg13
VGRADUATED
p7186
sbag3
(g4
g5
NtRp7187
(dp7188
g8
S'WITH'
p7189
sg10
VPP
p7190
sg12
I11
sg13
Nsbag3
(g4
g5
NtRp7191
(dp7192
g8
g7189
sg10
VIN
p7193
sg12
I13
sg13
VWITH
p7194
sbag3
(g4
g5
NtRp7195
(dp7196
g8
S'DEGREE'
p7197
sg10
VNP
p7198
sg12
I13
sg13
Nsbag3
(g4
g5
NtRp7199
(dp7200
g8
g7197
sg10
VNP
p7201
sg12
I15
sg13
Nsbag3
(g4
g5
NtRp7202
(dp7203
g8
S'A'
sg10
VDT
p7204
sg12
I16
sg13
VA
sbag3
(g4
g5
NtRp7205
(dp7206
g8
g7197
sg10
VNN
p7207
sg12
I16
sg13
VDEGREE
p7208
sbag3
(g4
g5
NtRp7209
(dp7210
g8
S'IN'
p7211
sg10
VPP
p7212
sg12
I15
sg13
Nsbag3
(g4
g5
NtRp7213
(dp7214
g8
g7211
sg10
VIN
p7215
sg12
I19
sg13
VIN
p7216
sbag3
(g4
g5
NtRp7217
(dp7218
g8
S'ADMINISTRATION'
p7219
sg10
VNP
p7220
sg12
I19
sg13
Nsbag3
(g4
g5
NtRp7221
(dp7222
g8
S'PUBLIC'
p7223
sg10
VJJ
p7224
sg12
I21
sg13
VPUBLIC
p7225
sbag3
(g4
g5
NtRp7226
(dp7227
g8
g7219
sg10
VNN
p7228
sg12
I21
sg13
VADMINISTRATION
p7229
sbag3
(g4
g5
NtRp7230
(dp7231
g8
S'.'
sg10
V.
sg12
I1
sg13
V.
sba(lp7232
(lp7233
I1
aa(lp7234
I2
aI4
aI24
aa(lp7235
I3
aa(lp7236
a(lp7237
I5
aI10
aI11
aa(lp7238
I6
aI7
aa(lp7239
a(lp7240
I8
aI9
aa(lp7241
a(lp7242
a(lp7243
a(lp7244
I12
aI13
aa(lp7245
a(lp7246
I14
aI15
aa(lp7247
a(lp7248
I16
aI19
aa(lp7249
I17
aI18
aa(lp7250
a(lp7251
a(lp7252
I20
aI21
aa(lp7253
a(lp7254
I22
aI23
aa(lp7255
a(lp7256
a(lp7257
a(lp7258
NaNag110
aNaNaNaNaNag111
aNaNaNaNaNaNaNaNaNaNaNaNaNaNaNaNaI1
tp7259
a(g7135
g7232
(lp7260
NaNaNaNaNaNaNaNag111
aNaNaNaNaNaNag110
aNaNaNaNaNaNaNaNaNaI4
tp7261
a(g7135
g7232
(lp7262
NaNaNaNaNaNaNaNag111
aNaNaNaNaNaNaNag110
aNaNaNaNaNaNaNaNaI4
tp7263
a(g7135
g7232
(lp7264
NaNaNaNaNaNaNaNag111
aNaNaNaNaNaNaNaNaNag110
aNaNaNaNaNaNaI4
tp7265
a(g7135
g7232
(lp7266
NaNaNaNaNaNaNaNag111
aNaNaNaNaNaNaNaNaNaNaNaNag110
aNaNaNaI4
tp7267
a(g7135
g7232
(lp7268
NaNaNaNaNaNaNaNag111
aNaNaNaNaNaNaNaNaNaNaNaNaNaNag110
aNaI4
tp7269
a((lp7270
g3
(g4
g5
NtRp7271
(dp7272
g8
V AFTER ATTENDING MCI , DANIEL DESANTO THEN ATTENDED RYERSON UNIVERSITY FOR FILM STUDIES .
p7273
sg10
VROOT
p7274
sg12
Nsg13
Nsbag3
(g4
g5
NtRp7275
(dp7276
g8
V AFTER ATTENDING MCI , DANIEL DESANTO THEN ATTENDED RYERSON UNIVERSITY FOR FILM STUDIES .
p7277
sg10
VS
sg12
I0
sg13
Nsbag3
(g4
g5
NtRp7278
(dp7279
g8
VAFTER
p7280
sg10
VPP
p7281
sg12
I1
sg13
Nsbag3
(g4
g5
NtRp7282
(dp7283
g8
g7280
sg10
VIN
p7284
sg12
I2
sg13
Nsbag3
(g4
g5
NtRp7285
(dp7286
g8
S'ATTEND'
p7287
sg10
VS
sg12
I2
sg13
Nsbag3
(g4
g5
NtRp7288
(dp7289
g8
g7287
sg10
VVP
p7290
sg12
I4
sg13
Nsbag3
(g4
g5
NtRp7291
(dp7292
g8
g7287
sg10
VVBG
p7293
sg12
I5
sg13
VATTENDING
p7294
sbag3
(g4
g5
NtRp7295
(dp7296
g8
S'MCI'
p7297
sg10
VNP
p7298
sg12
I5
sg13
VMCI
p7299
sbag3
(g4
g5
NtRp7300
(dp7301
g8
g7297
sg10
VNNP
p7302
sg12
I7
sg13
VMCI
p7303
sbag3
(g4
g5
NtRp7304
(dp7305
g8
S','
sg10
V,
sg12
I1
sg13
V,
sbag3
(g4
g5
NtRp7306
(dp7307
g8
S'DANIEL'
p7308
sg10
VNP
p7309
sg12
I1
sg13
Nsbag3
(g4
g5
NtRp7310
(dp7311
g8
g7308
sg10
VNNP
p7312
sg12
I10
sg13
VDANIEL
p7313
sbag3
(g4
g5
NtRp7314
(dp7315
g8
S'DESANTO'
p7316
sg10
VNNP
p7317
sg12
I10
sg13
VDESANTO
p7318
sbag3
(g4
g5
NtRp7319
(dp7320
g8
S'THEN'
p7321
sg10
VADVP
p7322
sg12
I1
sg13
VTHEN
p7323
sbag3
(g4
g5
NtRp7324
(dp7325
g8
g7321
sg10
VRB
p7326
sg12
I13
sg13
VTHEN
p7327
sbag3
(g4
g5
NtRp7328
(dp7329
g8
S'ATTEND'
p7330
sg10
VVP
p7331
sg12
I1
sg13
Nsbag3
(g4
g5
NtRp7332
(dp7333
g8
g7330
sg10
VVBD
p7334
sg12
I15
sg13
VATTENDED
p7335
sbag3
(g4
g5
NtRp7336
(dp7337
g8
S'RYERSON'
p7338
sg10
VNP
p7339
sg12
I15
sg13
Nsbag3
(g4
g5
NtRp7340
(dp7341
g8
g7338
sg10
VNP
p7342
sg12
I17
sg13
Nsbag3
(g4
g5
NtRp7343
(dp7344
g8
g7338
sg10
VNNP
p7345
sg12
I18
sg13
VRYERSON
p7346
sbag3
(g4
g5
NtRp7347
(dp7348
g8
S'UNIVERSITY'
p7349
sg10
VNNP
p7350
sg12
I18
sg13
VUNIVERSITY
p7351
sbag3
(g4
g5
NtRp7352
(dp7353
g8
S'FOR'
p7354
sg10
VPP
p7355
sg12
I17
sg13
Nsbag3
(g4
g5
NtRp7356
(dp7357
g8
g7354
sg10
VIN
p7358
sg12
I21
sg13
VFOR
p7359
sbag3
(g4
g5
NtRp7360
(dp7361
g8
S'FILM'
p7362
sg10
VNP
p7363
sg12
I21
sg13
Nsbag3
(g4
g5
NtRp7364
(dp7365
g8
g7362
sg10
VNNP
p7366
sg12
I23
sg13
VFILM
p7367
sbag3
(g4
g5
NtRp7368
(dp7369
g8
S'STUDIES'
p7370
sg10
VNNPS
p7371
sg12
I23
sg13
VSTUDIES
p7372
sbag3
(g4
g5
NtRp7373
(dp7374
g8
S'.'
sg10
V.
sg12
I1
sg13
V.
sba(lp7375
(lp7376
I1
aa(lp7377
I2
aI9
aI10
aI13
aI15
aI26
aa(lp7378
I3
aI4
aa(lp7379
a(lp7380
I5
aa(lp7381
I6
aI7
aa(lp7382
a(lp7383
I8
aa(lp7384
a(lp7385
a(lp7386
I11
aI12
aa(lp7387
a(lp7388
a(lp7389
I14
aa(lp7390
a(lp7391
I16
aI17
aa(lp7392
a(lp7393
I18
aI21
aa(lp7394
I19
aI20
aa(lp7395
a(lp7396
a(lp7397
I22
aI23
aa(lp7398
a(lp7399
I24
aI25
aa(lp7400
a(lp7401
a(lp7402
a(lp7403
NaNaNaNaNaNaNag111
aNaNag110
aNaNaNaNaNaNaNaNaNaNaNaNaNaNaNaNaI1
tp7404
a(g7270
g7375
(lp7405
NaNaNaNaNaNaNag111
aNaNaNaNaNaNaNaNaNag110
aNaNaNaNaNaNaNaNaNaI1
tp7406
a(g7270
g7375
(lp7407
NaNaNaNaNaNaNag111
aNaNaNaNaNaNaNaNaNaNaNaNaNaNaNag110
aNaNaNaI1
tp7408
a(g7270
g7375
(lp7409
NaNaNaNaNaNaNaNaNaNag110
aNaNaNaNaNaNaNaNag111
aNaNaNaNaNaNaNaI1
tp7410
a(g7270
g7375
(lp7411
NaNaNaNaNaNaNaNaNaNaNaNaNaNaNaNaNag110
aNag111
aNaNaNaNaNaNaNaI17
tp7412
a(g7270
g7375
(lp7413
NaNaNaNaNaNaNaNaNaNaNaNaNaNaNaNaNaNaNag111
aNaNaNag110
aNaNaNaI17
tp7414
a((lp7415
g3
(g4
g5
NtRp7416
(dp7417
g8
V NIGEL LOCKYER WAS EDUCATED AT YORK UNIVERSITY IN TORONTO , CANADA .
p7418
sg10
VROOT
p7419
sg12
Nsg13
Nsbag3
(g4
g5
NtRp7420
(dp7421
g8
V NIGEL LOCKYER WAS EDUCATED AT YORK UNIVERSITY IN TORONTO , CANADA .
p7422
sg10
VS
sg12
I0
sg13
Nsbag3
(g4
g5
NtRp7423
(dp7424
g8
VNIGEL
p7425
sg10
VNP
p7426
sg12
I1
sg13
Nsbag3
(g4
g5
NtRp7427
(dp7428
g8
g7425
sg10
VNNP
p7429
sg12
I2
sg13
Nsbag3
(g4
g5
NtRp7430
(dp7431
g8
S'LOCKYER'
p7432
sg10
VNNP
p7433
sg12
I2
sg13
VLOCKYER
p7434
sbag3
(g4
g5
NtRp7435
(dp7436
g8
S'BE'
p7437
sg10
VVP
p7438
sg12
I1
sg13
Nsbag3
(g4
g5
NtRp7439
(dp7440
g8
g7437
sg10
VVBD
p7441
sg12
I5
sg13
VWAS
p7442
sbag3
(g4
g5
NtRp7443
(dp7444
g8
S'EDUCATE'
p7445
sg10
VVP
p7446
sg12
I5
sg13
Nsbag3
(g4
g5
NtRp7447
(dp7448
g8
g7445
sg10
VVBN
p7449
sg12
I7
sg13
VEDUCATED
p7450
sbag3
(g4
g5
NtRp7451
(dp7452
g8
S'AT'
p7453
sg10
VPP
p7454
sg12
I7
sg13
Nsbag3
(g4
g5
NtRp7455
(dp7456
g8
g7453
sg10
VIN
p7457
sg12
I9
sg13
VAT
p7458
sbag3
(g4
g5
NtRp7459
(dp7460
g8
S'YORK'
p7461
sg10
VNP
p7462
sg12
I9
sg13
Nsbag3
(g4
g5
NtRp7463
(dp7464
g8
g7461
sg10
VNP
p7465
sg12
I11
sg13
Nsbag3
(g4
g5
NtRp7466
(dp7467
g8
g7461
sg10
VNNP
p7468
sg12
I12
sg13
VYORK
p7469
sbag3
(g4
g5
NtRp7470
(dp7471
g8
S'UNIVERSITY'
p7472
sg10
VNNP
p7473
sg12
I12
sg13
VUNIVERSITY
p7474
sbag3
(g4
g5
NtRp7475
(dp7476
g8
S'IN'
p7477
sg10
VPP
p7478
sg12
I11
sg13
Nsbag3
(g4
g5
NtRp7479
(dp7480
g8
g7477
sg10
VIN
p7481
sg12
I15
sg13
VIN
p7482
sbag3
(g4
g5
NtRp7483
(dp7484
g8
S'TORONTO'
p7485
sg10
VNP
p7486
sg12
I15
sg13
Nsbag3
(g4
g5
NtRp7487
(dp7488
g8
g7485
sg10
VNNP
p7489
sg12
I17
sg13
VTORONTO
p7490
sbag3
(g4
g5
NtRp7491
(dp7492
g8
S','
sg10
V,
sg12
I17
sg13
V,
sbag3
(g4
g5
NtRp7493
(dp7494
g8
S'CANADA'
p7495
sg10
VNNP
p7496
sg12
I17
sg13
VCANADA
p7497
sbag3
(g4
g5
NtRp7498
(dp7499
g8
S'.'
sg10
V.
sg12
I1
sg13
V.
sba(lp7500
(lp7501
I1
aa(lp7502
I2
aI5
aI21
aa(lp7503
I3
aI4
aa(lp7504
a(lp7505
a(lp7506
I6
aI7
aa(lp7507
a(lp7508
I8
aI9
aa(lp7509
a(lp7510
I10
aI11
aa(lp7511
a(lp7512
I12
aI15
aa(lp7513
I13
aI14
aa(lp7514
a(lp7515
a(lp7516
I16
aI17
aa(lp7517
a(lp7518
I18
aI19
aI20
aa(lp7519
a(lp7520
a(lp7521
a(lp7522
a(lp7523
NaNag110
aNaNaNaNaNaNaNaNaNaNag111
aNaNaNaNaNaNaNaNaI1
tp7524
a(g7415
g7500
(lp7525
NaNaNaNaNaNaNaNaNaNaNag110
aNag111
aNaNaNaNaNaNaNaNaI11
tp7526
a(g7415
g7500
(lp7527
NaNaNaNaNaNaNaNaNaNaNaNaNag111
aNaNaNag110
aNaNaNaNaI11
tp7528
a.